; Disassembly of the file "C:\Users\ka1tw\Desktop\KY-67_Unit_2_021817_B550h.bin"
; 
; CPU Type: Z80
; 
; Created with dZ80 2.0
; 
; on Sunday, 19 of February 2017 at 09:50 PM
; 
0000 f3        di      
0001 c38000    jp      0080h
0004 ff        rst     38h
0005 ff        rst     38h
0006 ff        rst     38h
0007 ff        rst     38h
0008 ff        rst     38h
0009 ff        rst     38h
000a ff        rst     38h
000b ff        rst     38h
000c ff        rst     38h
000d ff        rst     38h
000e ff        rst     38h
000f ff        rst     38h
0010 ff        rst     38h
0011 ff        rst     38h
0012 ff        rst     38h
0013 ff        rst     38h
0014 ff        rst     38h
0015 ff        rst     38h
0016 ff        rst     38h
0017 ff        rst     38h
0018 ff        rst     38h
0019 ff        rst     38h
001a ff        rst     38h
001b ff        rst     38h
001c ff        rst     38h
001d ff        rst     38h
001e ff        rst     38h
001f ff        rst     38h
0020 ff        rst     38h
0021 ff        rst     38h
0022 ff        rst     38h
0023 ff        rst     38h
0024 ff        rst     38h
0025 ff        rst     38h
0026 ff        rst     38h
0027 ff        rst     38h
0028 ff        rst     38h
0029 ff        rst     38h
002a ff        rst     38h
002b ff        rst     38h
002c ff        rst     38h
002d ff        rst     38h
002e ff        rst     38h
002f ff        rst     38h
0030 ff        rst     38h
0031 ff        rst     38h
0032 ff        rst     38h
0033 ff        rst     38h
0034 dde9      jp      (ix)
0036 ff        rst     38h
0037 ff        rst     38h
0038 f3        di      
0039 c38000    jp      0080h
003c fde9      jp      (iy)
003e ff        rst     38h
003f ff        rst     38h
0040 ff        rst     38h
0041 ff        rst     38h
0042 ff        rst     38h
0043 ff        rst     38h
0044 ff        rst     38h
0045 ff        rst     38h
0046 ff        rst     38h
0047 ff        rst     38h
0048 ff        rst     38h
0049 ff        rst     38h
004a ff        rst     38h
004b ff        rst     38h
004c ff        rst     38h
004d ff        rst     38h
004e ff        rst     38h
004f ff        rst     38h
0050 ff        rst     38h
0051 ff        rst     38h
0052 ff        rst     38h
0053 ff        rst     38h
0054 ff        rst     38h
0055 ff        rst     38h
0056 ff        rst     38h
0057 ff        rst     38h
0058 ff        rst     38h
0059 ff        rst     38h
005a ff        rst     38h
005b ff        rst     38h
005c ff        rst     38h
005d ff        rst     38h
005e ff        rst     38h
005f ff        rst     38h
0060 ff        rst     38h
0061 ff        rst     38h
0062 ff        rst     38h
0063 ff        rst     38h
0064 ff        rst     38h
0065 ff        rst     38h
0066 ff        rst     38h
0067 ff        rst     38h
0068 ff        rst     38h
0069 ff        rst     38h
006a ff        rst     38h
006b ff        rst     38h
006c ff        rst     38h
006d ff        rst     38h
006e ff        rst     38h
006f ff        rst     38h
0070 ff        rst     38h
0071 ff        rst     38h
0072 ff        rst     38h
0073 ff        rst     38h
0074 ff        rst     38h
0075 ff        rst     38h
0076 ff        rst     38h
0077 ff        rst     38h
0078 ff        rst     38h
0079 ff        rst     38h
007a ff        rst     38h
007b ff        rst     38h
007c ff        rst     38h
007d ff        rst     38h
007e ff        rst     38h
007f ff        rst     38h
0080 c3a415    jp      15a4h
0083 00        nop     
0084 c30d07    jp      070dh
0087 00        nop     
0088 c31b08    jp      081bh
008b ff        rst     38h
008c ff        rst     38h
008d ff        rst     38h
008e ff        rst     38h
008f ff        rst     38h
0090 ff        rst     38h
0091 ff        rst     38h
0092 ff        rst     38h
0093 ff        rst     38h
0094 ff        rst     38h
0095 ff        rst     38h
0096 ff        rst     38h
0097 ff        rst     38h
0098 ff        rst     38h
0099 ff        rst     38h
009a ff        rst     38h
009b ff        rst     38h
009c ff        rst     38h
009d ff        rst     38h
009e ff        rst     38h
009f ff        rst     38h
00a0 ff        rst     38h
00a1 ff        rst     38h
00a2 ff        rst     38h
00a3 ff        rst     38h
00a4 ff        rst     38h
00a5 ff        rst     38h
00a6 ff        rst     38h
00a7 ff        rst     38h
00a8 ff        rst     38h
00a9 ff        rst     38h
00aa ff        rst     38h
00ab ff        rst     38h
00ac ff        rst     38h
00ad ff        rst     38h
00ae ff        rst     38h
00af ff        rst     38h
00b0 ff        rst     38h
00b1 ff        rst     38h
00b2 ff        rst     38h
00b3 ff        rst     38h
00b4 ff        rst     38h
00b5 ff        rst     38h
00b6 ff        rst     38h
00b7 ff        rst     38h
00b8 ff        rst     38h
00b9 ff        rst     38h
00ba ff        rst     38h
00bb ff        rst     38h
00bc ff        rst     38h
00bd ff        rst     38h
00be ff        rst     38h
00bf ff        rst     38h
00c0 ff        rst     38h
00c1 ff        rst     38h
00c2 ff        rst     38h
00c3 ff        rst     38h
00c4 ff        rst     38h
00c5 ff        rst     38h
00c6 ff        rst     38h
00c7 ff        rst     38h
00c8 ff        rst     38h
00c9 ff        rst     38h
00ca ff        rst     38h
00cb ff        rst     38h
00cc ff        rst     38h
00cd ff        rst     38h
00ce ff        rst     38h
00cf ff        rst     38h
00d0 ff        rst     38h
00d1 ff        rst     38h
00d2 ff        rst     38h
00d3 ff        rst     38h
00d4 ff        rst     38h
00d5 ff        rst     38h
00d6 ff        rst     38h
00d7 ff        rst     38h
00d8 ff        rst     38h
00d9 ff        rst     38h
00da ff        rst     38h
00db ff        rst     38h
00dc ff        rst     38h
00dd ff        rst     38h
00de ff        rst     38h
00df ff        rst     38h
00e0 ff        rst     38h
00e1 ff        rst     38h
00e2 ff        rst     38h
00e3 ff        rst     38h
00e4 ff        rst     38h
00e5 ff        rst     38h
00e6 ff        rst     38h
00e7 ff        rst     38h
00e8 ff        rst     38h
00e9 ff        rst     38h
00ea ff        rst     38h
00eb ff        rst     38h
00ec ff        rst     38h
00ed ff        rst     38h
00ee ff        rst     38h
00ef ff        rst     38h
00f0 ff        rst     38h
00f1 ff        rst     38h
00f2 ff        rst     38h
00f3 ff        rst     38h
00f4 ff        rst     38h
00f5 ff        rst     38h
00f6 ff        rst     38h
00f7 ff        rst     38h
00f8 ff        rst     38h
00f9 ff        rst     38h
00fa ff        rst     38h
00fb ff        rst     38h
00fc ff        rst     38h
00fd ff        rst     38h
00fe ff        rst     38h
00ff ff        rst     38h
0100 0e00      ld      c,00h
0102 3a0b80    ld      a,(800bh)
0105 217001    ld      hl,0170h
0108 be        cp      (hl)
0109 2807      jr      z,0112h
010b 380f      jr      c,011ch
010d 23        inc     hl
010e 23        inc     hl
010f 0c        inc     c
0110 18f6      jr      0108h
0112 3a0c80    ld      a,(800ch)
0115 e60f      and     0fh
0117 23        inc     hl
0118 be        cp      (hl)
0119 3801      jr      c,011ch
011b 0c        inc     c
011c 3a1980    ld      a,(8019h)
011f e60f      and     0fh
0121 b9        cp      c
0122 2834      jr      z,0158h
0124 3a1980    ld      a,(8019h)
0127 e6f0      and     0f0h
0129 b1        or      c
012a 321980    ld      (8019h),a
012d 3e01      ld      a,01h
012f 0622      ld      b,22h
0131 cd3115    call    1531h
0134 3e01      ld      a,01h
0136 cdd507    call    07d5h
0139 3e00      ld      a,00h
013b 0622      ld      b,22h
013d cd3115    call    1531h
0140 218001    ld      hl,0180h
0143 0600      ld      b,00h
0145 09        add     hl,bc
0146 7e        ld      a,(hl)
0147 0620      ld      b,20h
0149 cd3115    call    1531h
014c 3e01      ld      a,01h
014e cdd507    call    07d5h
0151 3e00      ld      a,00h
0153 0620      ld      b,20h
0155 cd3115    call    1531h
0158 3a0b80    ld      a,(800bh)
015b fe58      cp      58h
015d 0e03      ld      c,03h
015f 3008      jr      nc,0169h
0161 fe40      cp      40h
0163 0e12      ld      c,12h
0165 3002      jr      nc,0169h
0167 0e11      ld      c,11h
0169 79        ld      a,c
016a 0620      ld      b,20h
016c cd3115    call    1531h
016f c9        ret     

0170 310332    ld      sp,3203h
0173 03        inc     bc
0174 33        inc     sp
0175 07        rlca    
0176 35        dec     (hl)
0177 09        add     hl,bc
0178 39        add     hl,sp
0179 00        nop     
017a 44        ld      b,h
017b 0659      ld      b,59h
017d 019909    ld      bc,0999h
0180 2c        inc     l
0181 24        inc     h
0182 2820      jr      z,01a4h
0184 0c        inc     c
0185 04        inc     b
0186 08        ex      af,af'
0187 00        nop     
0188 57        ld      d,a
0189 3a0280    ld      a,(8002h)
018c aa        xor     d
018d 5f        ld      e,a
018e 282d      jr      z,01bdh
0190 7a        ld      a,d
0191 320280    ld      (8002h),a
0194 cb63      bit     4,e
0196 2804      jr      z,019ch
0198 cb5b      bit     3,e
019a 2004      jr      nz,01a0h
019c cba2      res     4,d
019e cb9a      res     3,d
01a0 cb53      bit     2,e
01a2 2804      jr      z,01a8h
01a4 cb4b      bit     1,e
01a6 2004      jr      nz,01ach
01a8 cb92      res     2,d
01aa cb8a      res     1,d
01ac 7a        ld      a,d
01ad 0680      ld      b,80h
01af cd3115    call    1531h
01b2 3e01      ld      a,01h
01b4 cdd507    call    07d5h
01b7 7a        ld      a,d
01b8 e621      and     21h
01ba cd3115    call    1531h
01bd c9        ret     

01be f3        di      
01bf e5        push    hl
01c0 c5        push    bc
01c1 f5        push    af
01c2 3e00      ld      a,00h
01c4 d3bb      out     (0bbh),a
01c6 212680    ld      hl,8026h
01c9 cbae      res     5,(hl)
01cb 0613      ld      b,13h
01cd cd8e0c    call    0c8eh
01d0 320080    ld      (8000h),a
01d3 f3        di      
01d4 3e0c      ld      a,0ch
01d6 d3bb      out     (0bbh),a
01d8 f1        pop     af
01d9 c1        pop     bc
01da e1        pop     hl
01db fb        ei      
01dc c9        ret     

01dd e5        push    hl
01de c5        push    bc
01df 47        ld      b,a
01e0 b7        or      a
01e1 280a      jr      z,01edh
01e3 21050f    ld      hl,0f05h
01e6 2b        dec     hl
01e7 7c        ld      a,h
01e8 b5        or      l
01e9 20fb      jr      nz,01e6h
01eb 10f6      djnz    01e3h
01ed c1        pop     bc
01ee e1        pop     hl
01ef c9        ret     

01f0 c5        push    bc
01f1 f5        push    af
01f2 3e0a      ld      a,0ah
01f4 0648      ld      b,48h
01f6 cd3115    call    1531h
01f9 0649      ld      b,49h
01fb cd3115    call    1531h
01fe 064a      ld      b,4ah
0200 cd3115    call    1531h
0203 064b      ld      b,4bh
0205 cd3115    call    1531h
0208 064c      ld      b,4ch
020a cd3115    call    1531h
020d f1        pop     af
020e c1        pop     bc
020f c9        ret     

0210 f5        push    af
0211 3e00      ld      a,00h
0213 329980    ld      (8099h),a
0216 3e05      ld      a,05h
0218 329980    ld      (8099h),a
021b 3e05      ld      a,05h
021d 329280    ld      (8092h),a
0220 f1        pop     af
0221 f5        push    af
0222 3e01      ld      a,01h
0224 d22902    jp      nc,0229h
0227 3e02      ld      a,02h
0229 329380    ld      (8093h),a
022c 329780    ld      (8097h),a
022f f1        pop     af
0230 c9        ret     

0231 3a0180    ld      a,(8001h)
0234 b7        or      a
0235 2822      jr      z,0259h
0237 fe01      cp      01h
0239 2010      jr      nz,024bh
023b 0612      ld      b,12h
023d cd8e0c    call    0c8eh
0240 cb57      bit     2,a
0242 2005      jr      nz,0249h
0244 cd190b    call    0b19h
0247 181e      jr      0267h
0249 180e      jr      0259h
024b 0612      ld      b,12h
024d cd8e0c    call    0c8eh
0250 cb5f      bit     3,a
0252 2005      jr      nz,0259h
0254 cd8503    call    0385h
0257 180e      jr      0267h
0259 3e00      ld      a,00h
025b 329680    ld      (8096h),a
025e 320580    ld      (8005h),a
0261 320680    ld      (8006h),a
0264 320480    ld      (8004h),a
0267 c9        ret     

0268 0641      ld      b,41h
026a cd8e0c    call    0c8eh
026d cb6f      bit     5,a
026f 280e      jr      z,027fh
0271 212680    ld      hl,8026h
0274 cb5e      bit     3,(hl)
0276 2013      jr      nz,028bh
0278 cbde      set     3,(hl)
027a cd4f05    call    054fh
027d 180c      jr      028bh
027f 212680    ld      hl,8026h
0282 cb5e      bit     3,(hl)
0284 2805      jr      z,028bh
0286 cb9e      res     3,(hl)
0288 cdf503    call    03f5h
028b 0643      ld      b,43h
028d cd8e0c    call    0c8eh
0290 cb67      bit     4,a
0292 200e      jr      nz,02a2h
0294 212680    ld      hl,8026h
0297 cb66      bit     4,(hl)
0299 2013      jr      nz,02aeh
029b cbe6      set     4,(hl)
029d cd4f05    call    054fh
02a0 180c      jr      02aeh
02a2 212680    ld      hl,8026h
02a5 cb66      bit     4,(hl)
02a7 2805      jr      z,02aeh
02a9 cba6      res     4,(hl)
02ab cd4f05    call    054fh
02ae 210f80    ld      hl,800fh
02b1 cb76      bit     6,(hl)
02b3 2808      jr      z,02bdh
02b5 cdf503    call    03f5h
02b8 3e00      ld      a,00h
02ba 320f80    ld      (800fh),a
02bd c9        ret     

02be 211880    ld      hl,8018h
02c1 cb7e      bit     7,(hl)
02c3 2804      jr      z,02c9h
02c5 cb76      bit     6,(hl)
02c7 28fc      jr      z,02c5h
02c9 211780    ld      hl,8017h
02cc cba6      res     4,(hl)
02ce 7e        ld      a,(hl)
02cf 0613      ld      b,13h
02d1 cd3115    call    1531h
02d4 3e00      ld      a,00h
02d6 321880    ld      (8018h),a
02d9 c9        ret     

02da 3e00      ld      a,00h
02dc 0610      ld      b,10h
02de cd3115    call    1531h
02e1 3e20      ld      a,20h
02e3 0611      ld      b,11h
02e5 cd3115    call    1531h
02e8 3e01      ld      a,01h
02ea cdd507    call    07d5h
02ed 3e21      ld      a,21h
02ef 0611      ld      b,11h
02f1 cd3115    call    1531h
02f4 3e30      ld      a,30h
02f6 0612      ld      b,12h
02f8 cd3115    call    1531h
02fb 3e00      ld      a,00h
02fd 0613      ld      b,13h
02ff cd3115    call    1531h
0302 3e34      ld      a,34h
0304 0680      ld      b,80h
0306 cd3115    call    1531h
0309 3e01      ld      a,01h
030b cdd507    call    07d5h
030e 3e20      ld      a,20h
0310 0680      ld      b,80h
0312 cd3115    call    1531h
0315 0611      ld      b,11h
0317 cd8e0c    call    0c8eh
031a cb6f      bit     5,a
031c 28f9      jr      z,0317h
031e 0611      ld      b,11h
0320 cd8e0c    call    0c8eh
0323 cb6f      bit     5,a
0325 2812      jr      z,0339h
0327 0643      ld      b,43h
0329 cd8e0c    call    0c8eh
032c e60f      and     0fh
032e fe06      cp      06h
0330 2005      jr      nz,0337h
0332 212680    ld      hl,8026h
0335 cbc6      set     0,(hl)
0337 18e5      jr      031eh
0339 3e10      ld      a,10h
033b 0613      ld      b,13h
033d cd3115    call    1531h
0340 0611      ld      b,11h
0342 cd8e0c    call    0c8eh
0345 cb6f      bit     5,a
0347 28f9      jr      z,0342h
0349 3e00      ld      a,00h
034b 0613      ld      b,13h
034d cd3115    call    1531h
0350 3e00      ld      a,00h
0352 321480    ld      (8014h),a
0355 3e21      ld      a,21h
0357 321580    ld      (8015h),a
035a 3e30      ld      a,30h
035c 321680    ld      (8016h),a
035f 3e00      ld      a,00h
0361 321780    ld      (8017h),a
0364 3e34      ld      a,34h
0366 320280    ld      (8002h),a
0369 c9        ret     

036a e5        push    hl
036b d5        push    de
036c c5        push    bc
036d f5        push    af
036e 50        ld      d,b
036f 59        ld      e,c
0370 47        ld      b,a
0371 7e        ld      a,(hl)
0372 4f        ld      c,a
0373 1a        ld      a,(de)
0374 b9        cp      c
0375 2008      jr      nz,037fh
0377 23        inc     hl
0378 13        inc     de
0379 10f6      djnz    0371h
037b f1        pop     af
037c b7        or      a
037d 1802      jr      0381h
037f f1        pop     af
0380 37        scf     
0381 c1        pop     bc
0382 d1        pop     de
0383 e1        pop     hl
0384 c9        ret     

0385 210580    ld      hl,8005h
0388 cb7e      bit     7,(hl)
038a 2817      jr      z,03a3h
038c cb76      bit     6,(hl)
038e 282f      jr      z,03bfh
0390 b7        or      a
0391 cd1002    call    0210h
0394 210680    ld      hl,8006h
0397 3e08      ld      a,08h
0399 cd9213    call    1392h
039c 3e00      ld      a,00h
039e 320580    ld      (8005h),a
03a1 181c      jr      03bfh
03a3 210680    ld      hl,8006h
03a6 cb7e      bit     7,(hl)
03a8 2804      jr      z,03aeh
03aa cb76      bit     6,(hl)
03ac 2811      jr      z,03bfh
03ae 210580    ld      hl,8005h
03b1 3e08      ld      a,08h
03b3 cd9213    call    1392h
03b6 3e00      ld      a,00h
03b8 320680    ld      (8006h),a
03bb 37        scf     
03bc cd1002    call    0210h
03bf c9        ret     

03c0 c5        push    bc
03c1 47        ld      b,a
03c2 e60f      and     0fh
03c4 4f        ld      c,a
03c5 78        ld      a,b
03c6 1f        rra     
03c7 1f        rra     
03c8 1f        rra     
03c9 1f        rra     
03ca e60f      and     0fh
03cc 87        add     a,a
03cd 47        ld      b,a
03ce 87        add     a,a
03cf 87        add     a,a
03d0 80        add     a,b
03d1 81        add     a,c
03d2 c1        pop     bc
03d3 c9        ret     

03d4 e5        push    hl
03d5 c5        push    bc
03d6 f5        push    af
03d7 0641      ld      b,41h
03d9 cd8e0c    call    0c8eh
03dc cb6f      bit     5,a
03de 2811      jr      z,03f1h
03e0 0648      ld      b,48h
03e2 0e05      ld      c,05h
03e4 7e        ld      a,(hl)
03e5 e60f      and     0fh
03e7 f620      or      20h
03e9 cd3115    call    1531h
03ec 23        inc     hl
03ed 04        inc     b
03ee 0d        dec     c
03ef 20f3      jr      nz,03e4h
03f1 f1        pop     af
03f2 c1        pop     bc
03f3 e1        pop     hl
03f4 c9        ret     

03f5 c5        push    bc
03f6 f5        push    af
03f7 3e00      ld      a,00h
03f9 064d      ld      b,4dh
03fb cd3115    call    1531h
03fe f1        pop     af
03ff c1        pop     bc
0400 c9        ret     

0401 c5        push    bc
0402 f5        push    af
0403 3e20      ld      a,20h
0405 064d      ld      b,4dh
0407 cd3115    call    1531h
040a f1        pop     af
040b c1        pop     bc
040c c9        ret     

040d 212880    ld      hl,8028h
0410 cb7e      bit     7,(hl)
0412 2819      jr      z,042dh
0414 3a2680    ld      a,(8026h)
0417 cb4f      bit     1,a
0419 2808      jr      z,0423h
041b 211480    ld      hl,8014h
041e cbe6      set     4,(hl)
0420 cd6415    call    1564h
0423 3e00      ld      a,00h
0425 322980    ld      (8029h),a
0428 3e00      ld      a,00h
042a 322880    ld      (8028h),a
042d c9        ret     

042e 3a2980    ld      a,(8029h)
0431 cb7f      bit     7,a
0433 281e      jr      z,0453h
0435 cb77      bit     6,a
0437 2844      jr      z,047dh
0439 cdf503    call    03f5h
043c 211480    ld      hl,8014h
043f cba6      res     4,(hl)
0441 cd6415    call    1564h
0444 212880    ld      hl,8028h
0447 3e1f      ld      a,1fh
0449 cd9213    call    1392h
044c 3e00      ld      a,00h
044e 322980    ld      (8029h),a
0451 182a      jr      047dh
0453 3a2880    ld      a,(8028h)
0456 cb7f      bit     7,a
0458 2804      jr      z,045eh
045a cb77      bit     6,a
045c 281f      jr      z,047dh
045e cd4f05    call    054fh
0461 3a2680    ld      a,(8026h)
0464 cb4f      bit     1,a
0466 2808      jr      z,0470h
0468 211480    ld      hl,8014h
046b cbe6      set     4,(hl)
046d cd6415    call    1564h
0470 212980    ld      hl,8029h
0473 3e1f      ld      a,1fh
0475 cd9213    call    1392h
0478 3e00      ld      a,00h
047a 322880    ld      (8028h),a
047d 3e00      ld      a,00h
047f 320180    ld      (8001h),a
0482 211780    ld      hl,8017h
0485 cb96      res     2,(hl)
0487 7e        ld      a,(hl)
0488 0613      ld      b,13h
048a cd3115    call    1531h
048d c9        ret     

048e 010000    ld      bc,0000h
0491 110000    ld      de,0000h
0494 3a2380    ld      a,(8023h)
0497 cb47      bit     0,a
0499 2801      jr      z,049ch
049b 04        inc     b
049c cb4f      bit     1,a
049e 2801      jr      z,04a1h
04a0 04        inc     b
04a1 cb57      bit     2,a
04a3 2801      jr      z,04a6h
04a5 04        inc     b
04a6 cb5f      bit     3,a
04a8 2801      jr      z,04abh
04aa 04        inc     b
04ab cb67      bit     4,a
04ad 2801      jr      z,04b0h
04af 04        inc     b
04b0 3e01      ld      a,01h
04b2 b8        cp      b
04b3 2064      jr      nz,0519h
04b5 3a2480    ld      a,(8024h)
04b8 cb47      bit     0,a
04ba 2801      jr      z,04bdh
04bc 0c        inc     c
04bd cb4f      bit     1,a
04bf 2801      jr      z,04c2h
04c1 0c        inc     c
04c2 cb57      bit     2,a
04c4 2801      jr      z,04c7h
04c6 0c        inc     c
04c7 cb5f      bit     3,a
04c9 2801      jr      z,04cch
04cb 0c        inc     c
04cc cb67      bit     4,a
04ce 2801      jr      z,04d1h
04d0 0c        inc     c
04d1 cb6f      bit     5,a
04d3 2801      jr      z,04d6h
04d5 0c        inc     c
04d6 cb77      bit     6,a
04d8 2801      jr      z,04dbh
04da 14        inc     d
04db cb7f      bit     7,a
04dd 2801      jr      z,04e0h
04df 14        inc     d
04e0 3e01      ld      a,01h
04e2 b9        cp      c
04e3 2034      jr      nz,0519h
04e5 3a2580    ld      a,(8025h)
04e8 cb67      bit     4,a
04ea 2801      jr      z,04edh
04ec 14        inc     d
04ed cb77      bit     6,a
04ef 2801      jr      z,04f2h
04f1 14        inc     d
04f2 cb7f      bit     7,a
04f4 2801      jr      z,04f7h
04f6 14        inc     d
04f7 3e01      ld      a,01h
04f9 ba        cp      d
04fa 201d      jr      nz,0519h
04fc 3a2580    ld      a,(8025h)
04ff e60c      and     0ch
0501 fe0c      cp      0ch
0503 2814      jr      z,0519h
0505 3a1f80    ld      a,(801fh)
0508 e603      and     03h
050a fe03      cp      03h
050c 280b      jr      z,0519h
050e 212380    ld      hl,8023h
0511 011d80    ld      bc,801dh
0514 3e03      ld      a,03h
0516 cd9408    call    0894h
0519 c9        ret     

051a e5        push    hl
051b 7e        ld      a,(hl)
051c fe30      cp      30h
051e 3824      jr      c,0544h
0520 fe76      cp      76h
0522 3020      jr      nc,0544h
0524 e60f      and     0fh
0526 fe0a      cp      0ah
0528 301a      jr      nc,0544h
052a 23        inc     hl
052b 7e        ld      a,(hl)
052c e60f      and     0fh
052e fe0a      cp      0ah
0530 3012      jr      nc,0544h
0532 23        inc     hl
0533 7e        ld      a,(hl)
0534 fe00      cp      00h
0536 2815      jr      z,054dh
0538 fe25      cp      25h
053a 2811      jr      z,054dh
053c fe50      cp      50h
053e 280d      jr      z,054dh
0540 fe75      cp      75h
0542 2809      jr      z,054dh
0544 e1        pop     hl
0545 e5        push    hl
0546 3e11      ld      a,11h
0548 77        ld      (hl),a
0549 23        inc     hl
054a 77        ld      (hl),a
054b 23        inc     hl
054c 77        ld      (hl),a
054d e1        pop     hl
054e c9        ret     

054f e5        push    hl
0550 c5        push    bc
0551 f5        push    af
0552 0641      ld      b,41h
0554 cd8e0c    call    0c8eh
0557 cb6f      bit     5,a
0559 2847      jr      z,05a2h
055b 210f80    ld      hl,800fh
055e 3e2f      ld      a,2fh
0560 cd5606    call    0656h
0563 210b80    ld      hl,800bh
0566 7e        ld      a,(hl)
0567 1f        rra     
0568 1f        rra     
0569 1f        rra     
056a 1f        rra     
056b e60f      and     0fh
056d f620      or      20h
056f 0648      ld      b,48h
0571 cd3115    call    1531h
0574 7e        ld      a,(hl)
0575 e60f      and     0fh
0577 f620      or      20h
0579 0649      ld      b,49h
057b cd3115    call    1531h
057e 23        inc     hl
057f 7e        ld      a,(hl)
0580 e60f      and     0fh
0582 f620      or      20h
0584 064a      ld      b,4ah
0586 cd3115    call    1531h
0589 23        inc     hl
058a 7e        ld      a,(hl)
058b 1f        rra     
058c 1f        rra     
058d 1f        rra     
058e 1f        rra     
058f e60f      and     0fh
0591 f620      or      20h
0593 064b      ld      b,4bh
0595 cd3115    call    1531h
0598 7e        ld      a,(hl)
0599 e60f      and     0fh
059b f620      or      20h
059d 064c      ld      b,4ch
059f cd3115    call    1531h
05a2 f1        pop     af
05a3 c1        pop     bc
05a4 e1        pop     hl
05a5 c9        ret     

05a6 0e00      ld      c,00h
05a8 3a0b80    ld      a,(800bh)
05ab 21cf05    ld      hl,05cfh
05ae be        cp      (hl)
05af 2807      jr      z,05b8h
05b1 380f      jr      c,05c2h
05b3 23        inc     hl
05b4 23        inc     hl
05b5 0c        inc     c
05b6 18f6      jr      05aeh
05b8 3a0c80    ld      a,(800ch)
05bb e60f      and     0fh
05bd 23        inc     hl
05be be        cp      (hl)
05bf 3801      jr      c,05c2h
05c1 0c        inc     c
05c2 21e505    ld      hl,05e5h
05c5 0600      ld      b,00h
05c7 09        add     hl,bc
05c8 7e        ld      a,(hl)
05c9 06b3      ld      b,0b3h
05cb cd3115    call    1531h
05ce c9        ret     

05cf 35        dec     (hl)
05d0 00        nop     
05d1 40        ld      b,b
05d2 00        nop     
05d3 45        ld      b,l
05d4 05        dec     b
05d5 51        ld      d,c
05d6 00        nop     
05d7 56        ld      d,(hl)
05d8 05        dec     b
05d9 62        ld      h,d
05da 00        nop     
05db 67        ld      h,a
05dc 05        dec     b
05dd 73        ld      (hl),e
05de 00        nop     
05df 99        sbc     a,c
05e0 09        add     hl,bc
05e1 99        sbc     a,c
05e2 09        add     hl,bc
05e3 99        sbc     a,c
05e4 09        add     hl,bc
05e5 00        nop     
05e6 80        add     a,b
05e7 40        ld      b,b
05e8 2010      jr      nz,05fah
05ea 08        ex      af,af'
05eb 04        inc     b
05ec 02        ld      (bc),a
05ed 010101    ld      bc,0101h
05f0 7e        ld      a,(hl)
05f1 cb7f      bit     7,a
05f3 2811      jr      z,0606h
05f5 cb77      bit     6,a
05f7 200d      jr      nz,0606h
05f9 e63f      and     3fh
05fb 47        ld      b,a
05fc 3a0e80    ld      a,(800eh)
05ff e63f      and     3fh
0601 b8        cp      b
0602 2002      jr      nz,0606h
0604 cbf6      set     6,(hl)
0606 c9        ret     

0607 0e00      ld      c,00h
0609 3a0b80    ld      a,(800bh)
060c 213806    ld      hl,0638h
060f be        cp      (hl)
0610 2807      jr      z,0619h
0612 380f      jr      c,0623h
0614 23        inc     hl
0615 23        inc     hl
0616 0c        inc     c
0617 18f6      jr      060fh
0619 3a0c80    ld      a,(800ch)
061c e60f      and     0fh
061e 23        inc     hl
061f be        cp      (hl)
0620 3801      jr      c,0623h
0622 0c        inc     c
0623 214c06    ld      hl,064ch
0626 0600      ld      b,00h
0628 09        add     hl,bc
0629 7e        ld      a,(hl)
062a 47        ld      b,a
062b 3a1480    ld      a,(8014h)
062e e6f0      and     0f0h
0630 b0        or      b
0631 321480    ld      (8014h),a
0634 cd6415    call    1564h
0637 c9        ret     

0638 33        inc     sp
0639 00        nop     
063a 37        scf     
063b 00        nop     
063c 42        ld      b,d
063d 00        nop     
063e 47        ld      b,a
063f 05        dec     b
0640 53        ld      d,e
0641 00        nop     
0642 56        ld      d,(hl)
0643 00        nop     
0644 60        ld      h,b
0645 00        nop     
0646 65        ld      h,l
0647 00        nop     
0648 70        ld      (hl),b
0649 05        dec     b
064a 99        sbc     a,c
064b 09        add     hl,bc
064c 00        nop     
064d 010203    ld      bc,0302h
0650 04        inc     b
0651 08        ex      af,af'
0652 09        add     hl,bc
0653 0a        ld      a,(bc)
0654 0b        dec     bc
0655 0c        inc     c
0656 47        ld      b,a
0657 3a0e80    ld      a,(800eh)
065a 80        add     a,b
065b e63f      and     3fh
065d f680      or      80h
065f 77        ld      (hl),a
0660 c9        ret     

0661 f3        di      
0662 e5        push    hl
0663 c5        push    bc
0664 f5        push    af
0665 3e00      ld      a,00h
0667 d3bb      out     (0bbh),a
0669 211380    ld      hl,8013h
066c 7e        ld      a,(hl)
066d 3c        inc     a
066e e63f      and     3fh
0670 77        ld      (hl),a
0671 210380    ld      hl,8003h
0674 cdb313    call    13b3h
0677 210580    ld      hl,8005h
067a cdb313    call    13b3h
067d 210680    ld      hl,8006h
0680 cdb313    call    13b3h
0683 211880    ld      hl,8018h
0686 cdb313    call    13b3h
0689 212880    ld      hl,8028h
068c cdb313    call    13b3h
068f 212980    ld      hl,8029h
0692 cdb313    call    13b3h
0695 212a80    ld      hl,802ah
0698 cdb313    call    13b3h
069b 212b80    ld      hl,802bh
069e cdb313    call    13b3h
06a1 3a1380    ld      a,(8013h)
06a4 e60f      and     0fh
06a6 fe08      cp      08h
06a8 2014      jr      nz,06beh
06aa 210e80    ld      hl,800eh
06ad 7e        ld      a,(hl)
06ae 3c        inc     a
06af e63f      and     3fh
06b1 77        ld      (hl),a
06b2 210480    ld      hl,8004h
06b5 cdf005    call    05f0h
06b8 210f80    ld      hl,800fh
06bb cdf005    call    05f0h
06be 3a2680    ld      a,(8026h)
06c1 e603      and     03h
06c3 2020      jr      nz,06e5h
06c5 0640      ld      b,40h
06c7 cd8e0c    call    0c8eh
06ca eeff      xor     0ffh
06cc e61f      and     1fh
06ce 47        ld      b,a
06cf 3a1280    ld      a,(8012h)
06d2 b8        cp      b
06d3 200b      jr      nz,06e0h
06d5 0643      ld      b,43h
06d7 cd8e0c    call    0c8eh
06da eeff      xor     0ffh
06dc e60f      and     0fh
06de 2805      jr      z,06e5h
06e0 212680    ld      hl,8026h
06e3 cbd6      set     2,(hl)
06e5 3a1380    ld      a,(8013h)
06e8 e603      and     03h
06ea fe01      cp      01h
06ec cc6802    call    z,0268h
06ef 3a1380    ld      a,(8013h)
06f2 e603      and     03h
06f4 fe03      cp      03h
06f6 cc3102    call    z,0231h
06f9 3ed0      ld      a,0d0h
06fb 328180    ld      (8081h),a
06fe 3e00      ld      a,00h
0700 328180    ld      (8081h),a
0703 f3        di      
0704 3e0c      ld      a,0ch
0706 d3bb      out     (0bbh),a
0708 f1        pop     af
0709 c1        pop     bc
070a e1        pop     hl
070b fb        ei      
070c c9        ret     

070d 3e00      ld      a,00h
070f d3bb      out     (0bbh),a
0711 317f80    ld      sp,807fh
0714 fd216106  ld      iy,0661h
0718 dd21be01  ld      ix,01beh
071c cdd008    call    08d0h
071f cdcb0b    call    0bcbh
0722 cd2509    call    0925h
0725 cdf001    call    01f0h
0728 cdda02    call    02dah
072b f3        di      
072c 3e0c      ld      a,0ch
072e d3bb      out     (0bbh),a
0730 fb        ei      
0731 c38700    jp      0087h
0734 211580    ld      hl,8015h
0737 7e        ld      a,(hl)
0738 cbaf      res     5,a
073a 0611      ld      b,11h
073c cd3115    call    1531h
073f cbd7      set     2,a
0741 cd3115    call    1531h
0744 77        ld      (hl),a
0745 210380    ld      hl,8003h
0748 3e0d      ld      a,0dh
074a cd9213    call    1392h
074d 3e1e      ld      a,1eh
074f 212a80    ld      hl,802ah
0752 cd9213    call    1392h
0755 cb76      bit     6,(hl)
0757 203f      jr      nz,0798h
0759 0653      ld      b,53h
075b cd8e0c    call    0c8eh
075e cb4f      bit     1,a
0760 28f3      jr      z,0755h
0762 cd8e0c    call    0c8eh
0765 cb4f      bit     1,a
0767 28ec      jr      z,0755h
0769 cd8e0c    call    0c8eh
076c cb4f      bit     1,a
076e 28e5      jr      z,0755h
0770 211580    ld      hl,8015h
0773 cbce      set     1,(hl)
0775 7e        ld      a,(hl)
0776 0611      ld      b,11h
0778 cd3115    call    1531h
077b 06b1      ld      b,0b1h
077d cd3115    call    1531h
0780 211580    ld      hl,8015h
0783 cbde      set     3,(hl)
0785 7e        ld      a,(hl)
0786 0611      ld      b,11h
0788 cd3115    call    1531h
078b 211780    ld      hl,8017h
078e cbee      set     5,(hl)
0790 7e        ld      a,(hl)
0791 0613      ld      b,13h
0793 cd3115    call    1531h
0796 180e      jr      07a6h
0798 211580    ld      hl,8015h
079b 7e        ld      a,(hl)
079c cb97      res     2,a
079e cbef      set     5,a
07a0 77        ld      (hl),a
07a1 0611      ld      b,11h
07a3 cd3115    call    1531h
07a6 c9        ret     

07a7 3a1f80    ld      a,(801fh)
07aa e60c      and     0ch
07ac 2826      jr      z,07d4h
07ae cb57      bit     2,a
07b0 2812      jr      z,07c4h
07b2 210d80    ld      hl,800dh
07b5 7e        ld      a,(hl)
07b6 c625      add     a,25h
07b8 27        daa     
07b9 77        ld      (hl),a
07ba 2b        dec     hl
07bb 7e        ld      a,(hl)
07bc ce00      adc     a,00h
07be 27        daa     
07bf e60f      and     0fh
07c1 77        ld      (hl),a
07c2 1810      jr      07d4h
07c4 210d80    ld      hl,800dh
07c7 7e        ld      a,(hl)
07c8 d625      sub     25h
07ca 27        daa     
07cb 77        ld      (hl),a
07cc 2b        dec     hl
07cd 7e        ld      a,(hl)
07ce de00      sbc     a,00h
07d0 27        daa     
07d1 e60f      and     0fh
07d3 77        ld      (hl),a
07d4 c9        ret     

07d5 e5        push    hl
07d6 c5        push    bc
07d7 47        ld      b,a
07d8 b7        or      a
07d9 280a      jr      z,07e5h
07db 218001    ld      hl,0180h
07de 2b        dec     hl
07df 7c        ld      a,h
07e0 b5        or      l
07e1 20fb      jr      nz,07deh
07e3 10f6      djnz    07dbh
07e5 c1        pop     bc
07e6 e1        pop     hl
07e7 c9        ret     

07e8 211780    ld      hl,8017h
07eb cb96      res     2,(hl)
07ed 7e        ld      a,(hl)
07ee 0613      ld      b,13h
07f0 cd3115    call    1531h
07f3 3e00      ld      a,00h
07f5 320180    ld      (8001h),a
07f8 3e34      ld      a,34h
07fa cd8801    call    0188h
07fd 212680    ld      hl,8026h
0800 cbbe      res     7,(hl)
0802 0611      ld      b,11h
0804 cd8e0c    call    0c8eh
0807 cb6f      bit     5,a
0809 200f      jr      nz,081ah
080b cdc512    call    12c5h
080e 0611      ld      b,11h
0810 cd8e0c    call    0c8eh
0813 cb6f      bit     5,a
0815 28f7      jr      z,080eh
0817 cdbe02    call    02beh
081a c9        ret     

081b cdb411    call    11b4h
081e 211e80    ld      hl,801eh
0821 cb76      bit     6,(hl)
0823 281a      jr      z,083fh
0825 0610      ld      b,10h
0827 cd8e0c    call    0c8eh
082a cb6f      bit     5,a
082c 280c      jr      z,083ah
082e 211480    ld      hl,8014h
0831 cb6e      bit     5,(hl)
0833 2005      jr      nz,083ah
0835 cd950f    call    0f95h
0838 1830      jr      086ah
083a cdf40e    call    0ef4h
083d 182b      jr      086ah
083f 0611      ld      b,11h
0841 cd8e0c    call    0c8eh
0844 cb5f      bit     3,a
0846 2805      jr      z,084dh
0848 cd6b09    call    096bh
084b 181d      jr      086ah
084d 211e80    ld      hl,801eh
0850 cb7e      bit     7,(hl)
0852 2805      jr      z,0859h
0854 cde807    call    07e8h
0857 1811      jr      086ah
0859 0611      ld      b,11h
085b cd8e0c    call    0c8eh
085e cb6f      bit     5,a
0860 2005      jr      nz,0867h
0862 cdca13    call    13cah
0865 1803      jr      086ah
0867 cd1210    call    1012h
086a c31b08    jp      081bh
086d 3a1f80    ld      a,(801fh)
0870 e603      and     03h
0872 281f      jr      z,0893h
0874 cb47      bit     0,a
0876 2807      jr      z,087fh
0878 3a0b80    ld      a,(800bh)
087b 3c        inc     a
087c 27        daa     
087d 1805      jr      0884h
087f 3a0b80    ld      a,(800bh)
0882 3d        dec     a
0883 27        daa     
0884 fe76      cp      76h
0886 2002      jr      nz,088ah
0888 3e30      ld      a,30h
088a fe29      cp      29h
088c 2002      jr      nz,0890h
088e 3e75      ld      a,75h
0890 320b80    ld      (800bh),a
0893 c9        ret     

0894 e5        push    hl
0895 d5        push    de
0896 c5        push    bc
0897 f5        push    af
0898 50        ld      d,b
0899 59        ld      e,c
089a 0600      ld      b,00h
089c 4f        ld      c,a
089d edb0      ldir    
089f f1        pop     af
08a0 c1        pop     bc
08a1 d1        pop     de
08a2 e1        pop     hl
08a3 c9        ret     

08a4 e5        push    hl
08a5 d5        push    de
08a6 c5        push    bc
08a7 f5        push    af
08a8 b7        or      a
08a9 280a      jr      z,08b5h
08ab 47        ld      b,a
08ac cd770c    call    0c77h
08af 77        ld      (hl),a
08b0 23        inc     hl
08b1 13        inc     de
08b2 05        dec     b
08b3 20f7      jr      nz,08ach
08b5 f1        pop     af
08b6 c1        pop     bc
08b7 d1        pop     de
08b8 e1        pop     hl
08b9 c9        ret     

08ba e5        push    hl
08bb d5        push    de
08bc c5        push    bc
08bd f5        push    af
08be b7        or      a
08bf 280a      jr      z,08cbh
08c1 47        ld      b,a
08c2 7e        ld      a,(hl)
08c3 cd8815    call    1588h
08c6 13        inc     de
08c7 23        inc     hl
08c8 05        dec     b
08c9 20f7      jr      nz,08c2h
08cb f1        pop     af
08cc c1        pop     bc
08cd d1        pop     de
08ce e1        pop     hl
08cf c9        ret     

08d0 062a      ld      b,2ah
08d2 2100c0    ld      hl,0c000h
08d5 112a00    ld      de,002ah
08d8 c5        push    bc
08d9 e5        push    hl
08da 7e        ld      a,(hl)
08db e60f      and     0fh
08dd 4f        ld      c,a
08de 19        add     hl,de
08df 7e        ld      a,(hl)
08e0 e60f      and     0fh
08e2 47        ld      b,a
08e3 19        add     hl,de
08e4 7e        ld      a,(hl)
08e5 e60f      and     0fh
08e7 b9        cp      c
08e8 2804      jr      z,08eeh
08ea b8        cp      b
08eb 2801      jr      z,08eeh
08ed 79        ld      a,c
08ee e1        pop     hl
08ef e5        push    hl
08f0 77        ld      (hl),a
08f1 19        add     hl,de
08f2 77        ld      (hl),a
08f3 19        add     hl,de
08f4 77        ld      (hl),a
08f5 e1        pop     hl
08f6 c1        pop     bc
08f7 23        inc     hl
08f8 10de      djnz    08d8h
08fa 062a      ld      b,2ah
08fc 2180c0    ld      hl,0c080h
08ff 112a00    ld      de,002ah
0902 c5        push    bc
0903 e5        push    hl
0904 7e        ld      a,(hl)
0905 e60f      and     0fh
0907 4f        ld      c,a
0908 19        add     hl,de
0909 7e        ld      a,(hl)
090a e60f      and     0fh
090c 47        ld      b,a
090d 19        add     hl,de
090e 7e        ld      a,(hl)
090f e60f      and     0fh
0911 b9        cp      c
0912 2804      jr      z,0918h
0914 b8        cp      b
0915 2801      jr      z,0918h
0917 79        ld      a,c
0918 e1        pop     hl
0919 e5        push    hl
091a 77        ld      (hl),a
091b 19        add     hl,de
091c 77        ld      (hl),a
091d 19        add     hl,de
091e 77        ld      (hl),a
091f e1        pop     hl
0920 c1        pop     bc
0921 23        inc     hl
0922 10de      djnz    0902h
0924 c9        ret     

0925 3e00      ld      a,00h
0927 328780    ld      (8087h),a
092a 3e00      ld      a,00h
092c 328480    ld      (8084h),a
092f 3eff      ld      a,0ffh
0931 328580    ld      (8085h),a
0934 3e00      ld      a,00h
0936 328180    ld      (8081h),a
0939 3e27      ld      a,27h
093b 328680    ld      (8086h),a
093e 3e02      ld      a,02h
0940 328280    ld      (8082h),a
0943 3e00      ld      a,00h
0945 329880    ld      (8098h),a
0948 329980    ld      (8099h),a
094b 3e05      ld      a,05h
094d 329880    ld      (8098h),a
0950 329980    ld      (8099h),a
0953 3e05      ld      a,05h
0955 329080    ld      (8090h),a
0958 3e0d      ld      a,0dh
095a 329180    ld      (8091h),a
095d 3e0d      ld      a,0dh
095f 328180    ld      (8081h),a
0962 3e00      ld      a,00h
0964 328180    ld      (8081h),a
0967 329580    ld      (8095h),a
096a c9        ret     

096b 211780    ld      hl,8017h
096e cbc6      set     0,(hl)
0970 cb96      res     2,(hl)
0972 7e        ld      a,(hl)
0973 0613      ld      b,13h
0975 cd3115    call    1531h
0978 3e00      ld      a,00h
097a 320180    ld      (8001h),a
097d 3e34      ld      a,34h
097f cd8801    call    0188h
0982 212680    ld      hl,8026h
0985 cbbe      res     7,(hl)
0987 0611      ld      b,11h
0989 cd8e0c    call    0c8eh
098c cb4f      bit     1,a
098e 280f      jr      z,099fh
0990 cd3407    call    0734h
0993 0611      ld      b,11h
0995 cd8e0c    call    0c8eh
0998 cb4f      bit     1,a
099a 20f7      jr      nz,0993h
099c cdca14    call    14cah
099f 0611      ld      b,11h
09a1 cd8e0c    call    0c8eh
09a4 cb5f      bit     3,a
09a6 20df      jr      nz,0987h
09a8 211780    ld      hl,8017h
09ab cb86      res     0,(hl)
09ad 7e        ld      a,(hl)
09ae 0613      ld      b,13h
09b0 cd3115    call    1531h
09b3 c9        ret     

09b4 211d80    ld      hl,801dh
09b7 7e        ld      a,(hl)
09b8 cb67      bit     4,a
09ba 200c      jr      nz,09c8h
09bc 23        inc     hl
09bd 7e        ld      a,(hl)
09be cb7f      bit     7,a
09c0 2006      jr      nz,09c8h
09c2 23        inc     hl
09c3 7e        ld      a,(hl)
09c4 cb67      bit     4,a
09c6 2807      jr      z,09cfh
09c8 3a1e80    ld      a,(801eh)
09cb e63f      and     3fh
09cd 1805      jr      09d4h
09cf 3a1d80    ld      a,(801dh)
09d2 e60f      and     0fh
09d4 0e0e      ld      c,0eh
09d6 fe01      cp      01h
09d8 281a      jr      z,09f4h
09da 0e0d      ld      c,0dh
09dc fe02      cp      02h
09de 2814      jr      z,09f4h
09e0 0e0b      ld      c,0bh
09e2 fe04      cp      04h
09e4 280e      jr      z,09f4h
09e6 0e07      ld      c,07h
09e8 fe08      cp      08h
09ea 2808      jr      z,09f4h
09ec 0e00      ld      c,00h
09ee fe10      cp      10h
09f0 2802      jr      z,09f4h
09f2 0e0f      ld      c,0fh
09f4 3a1d80    ld      a,(801dh)
09f7 cb77      bit     6,a
09f9 2804      jr      z,09ffh
09fb cb6f      bit     5,a
09fd 2802      jr      z,0a01h
09ff cbe9      set     5,c
0a01 211680    ld      hl,8016h
0a04 7e        ld      a,(hl)
0a05 e6d0      and     0d0h
0a07 b1        or      c
0a08 77        ld      (hl),a
0a09 0612      ld      b,12h
0a0b cd3115    call    1531h
0a0e 211e80    ld      hl,801eh
0a11 cb76      bit     6,(hl)
0a13 280d      jr      z,0a22h
0a15 211680    ld      hl,8016h
0a18 cba6      res     4,(hl)
0a1a 7e        ld      a,(hl)
0a1b 0612      ld      b,12h
0a1d cd3115    call    1531h
0a20 1816      jr      0a38h
0a22 211680    ld      hl,8016h
0a25 cbe6      set     4,(hl)
0a27 7e        ld      a,(hl)
0a28 0612      ld      b,12h
0a2a cd3115    call    1531h
0a2d 211480    ld      hl,8014h
0a30 cbae      res     5,(hl)
0a32 7e        ld      a,(hl)
0a33 0610      ld      b,10h
0a35 cd3115    call    1531h
0a38 211e80    ld      hl,801eh
0a3b cb7e      bit     7,(hl)
0a3d 2805      jr      z,0a44h
0a3f 212780    ld      hl,8027h
0a42 cbc6      set     0,(hl)
0a44 211f80    ld      hl,801fh
0a47 cb7e      bit     7,(hl)
0a49 2812      jr      z,0a5dh
0a4b 211780    ld      hl,8017h
0a4e cbce      set     1,(hl)
0a50 7e        ld      a,(hl)
0a51 0613      ld      b,13h
0a53 cd3115    call    1531h
0a56 212780    ld      hl,8027h
0a59 cb86      res     0,(hl)
0a5b 180b      jr      0a68h
0a5d 211780    ld      hl,8017h
0a60 cb8e      res     1,(hl)
0a62 7e        ld      a,(hl)
0a63 0613      ld      b,13h
0a65 cd3115    call    1531h
0a68 c9        ret     

0a69 010000    ld      bc,0000h
0a6c 3a0c80    ld      a,(800ch)
0a6f e60f      and     0fh
0a71 fe03      cp      03h
0a73 3806      jr      c,0a7bh
0a75 0c        inc     c
0a76 fe08      cp      08h
0a78 3801      jr      c,0a7bh
0a7a 0c        inc     c
0a7b 3a0b80    ld      a,(800bh)
0a7e cdc003    call    03c0h
0a81 fe3e      cp      3eh
0a83 380c      jr      c,0a91h
0a85 21fc0a    ld      hl,0afch
0a88 09        add     hl,bc
0a89 d63e      sub     3eh
0a8b cb27      sla     a
0a8d 4f        ld      c,a
0a8e 09        add     hl,bc
0a8f 181a      jr      0aabh
0a91 fe2b      cp      2bh
0a93 380c      jr      c,0aa1h
0a95 21d50a    ld      hl,0ad5h
0a98 09        add     hl,bc
0a99 d62b      sub     2bh
0a9b cb27      sla     a
0a9d 4f        ld      c,a
0a9e 09        add     hl,bc
0a9f 180a      jr      0aabh
0aa1 21ba0a    ld      hl,0abah
0aa4 09        add     hl,bc
0aa5 d61e      sub     1eh
0aa7 cb27      sla     a
0aa9 4f        ld      c,a
0aaa 09        add     hl,bc
0aab 7e        ld      a,(hl)
0aac 321a80    ld      (801ah),a
0aaf 0630      ld      b,30h
0ab1 cd3115    call    1531h
0ab4 0623      ld      b,23h
0ab6 cd3115    call    1531h
0ab9 c9        ret     

0aba f9        ld      sp,hl
0abb f7        rst     30h
0abc f4f2ef    call    p,0eff2h
0abf ece8e6    call    pe,0e6e8h
0ac2 e2ded9    jp      po,0d9deh
0ac5 d5        push    de
0ac6 d0        ret     nc

0ac7 ccc6c1    call    z,0c1c6h
0aca ba        cp      d
0acb b4        or      h
0acc ad        xor     l
0acd a6        and     (hl)
0ace 9e        sbc     a,(hl)
0acf 97        sub     a
0ad0 8f        adc     a,a
0ad1 87        add     a,a
0ad2 7d        ld      a,l
0ad3 73        ld      (hl),e
0ad4 68        ld      l,b
0ad5 faf8f6    jp      m,0f6f8h
0ad8 f5        push    af
0ad9 f3        di      
0ada f1        pop     af
0adb ef        rst     28h
0adc edeb      db      0edh, 0ebh       ; Undocumented 8 T-State NOP
0ade e9        jp      (hl)
0adf e6e4      and     0e4h
0ae1 e1        pop     hl
0ae2 df        rst     18h
0ae3 dbd9      in      a,(0d9h)
0ae5 d5        push    de
0ae6 d2cecb    jp      nc,0cbceh
0ae9 c7        rst     00h
0aea c4bfbc    call    nz,0bcbfh
0aed b7        or      a
0aee b3        or      e
0aef ad        xor     l
0af0 a9        xor     c
0af1 a3        and     e
0af2 9f        sbc     a,a
0af3 99        sbc     a,c
0af4 94        sub     h
0af5 8d        adc     a,l
0af6 87        add     a,a
0af7 80        add     a,b
0af8 7a        ld      a,d
0af9 73        ld      (hl),e
0afa 6c        ld      l,h
0afb 64        ld      h,h
0afc f6f5      or      0f5h
0afe f4f3f1    call    p,0f1f3h
0b01 f0        ret     p

0b02 eeed      xor     0edh
0b04 eb        ex      de,hl
0b05 e9        jp      (hl)
0b06 e7        rst     20h
0b07 e5        push    hl
0b08 e3        ex      (sp),hl
0b09 e2e0de    jp      po,0dee0h
0b0c dcdad7    call    c,0d7dah
0b0f d5        push    de
0b10 d2d0cd    jp      nc,0cdd0h
0b13 cbc8      set     1,b
0b15 c6c3      add     a,0c3h
0b17 c1        pop     bc
0b18 bd        cp      l
0b19 210580    ld      hl,8005h
0b1c cb7e      bit     7,(hl)
0b1e 2816      jr      z,0b36h
0b20 cb76      bit     6,(hl)
0b22 2838      jr      z,0b5ch
0b24 210480    ld      hl,8004h
0b27 3e09      ld      a,09h
0b29 cd5606    call    0656h
0b2c 3e00      ld      a,00h
0b2e 320580    ld      (8005h),a
0b31 329680    ld      (8096h),a
0b34 1826      jr      0b5ch
0b36 210480    ld      hl,8004h
0b39 cb7e      bit     7,(hl)
0b3b 2817      jr      z,0b54h
0b3d cb76      bit     6,(hl)
0b3f 281b      jr      z,0b5ch
0b41 b7        or      a
0b42 cd1002    call    0210h
0b45 210580    ld      hl,8005h
0b48 3e08      ld      a,08h
0b4a cd9213    call    1392h
0b4d 3e00      ld      a,00h
0b4f 320480    ld      (8004h),a
0b52 1808      jr      0b5ch
0b54 3e02      ld      a,02h
0b56 210480    ld      hl,8004h
0b59 cd5606    call    0656h
0b5c c9        ret     

0b5d 0611      ld      b,11h
0b5f cd8e0c    call    0c8eh
0b62 cb57      bit     2,a
0b64 281f      jr      z,0b85h
0b66 217400    ld      hl,0074h
0b69 2b        dec     hl
0b6a 7c        ld      a,h
0b6b b5        or      l
0b6c 20fb      jr      nz,0b69h
0b6e 0611      ld      b,11h
0b70 cd8e0c    call    0c8eh
0b73 cb57      bit     2,a
0b75 2807      jr      z,0b7eh
0b77 212780    ld      hl,8027h
0b7a cbce      set     1,(hl)
0b7c 180c      jr      0b8ah
0b7e 212780    ld      hl,8027h
0b81 cb8e      res     1,(hl)
0b83 1805      jr      0b8ah
0b85 212780    ld      hl,8027h
0b88 cb8e      res     1,(hl)
0b8a 210380    ld      hl,8003h
0b8d cb76      bit     6,(hl)
0b8f 2805      jr      z,0b96h
0b91 3e00      ld      a,00h
0b93 320380    ld      (8003h),a
0b96 0612      ld      b,12h
0b98 cd8e0c    call    0c8eh
0b9b cb47      bit     0,a
0b9d 2026      jr      nz,0bc5h
0b9f 210380    ld      hl,8003h
0ba2 cb7e      bit     7,(hl)
0ba4 201f      jr      nz,0bc5h
0ba6 217400    ld      hl,0074h
0ba9 2b        dec     hl
0baa 7c        ld      a,h
0bab b5        or      l
0bac 20fb      jr      nz,0ba9h
0bae 0612      ld      b,12h
0bb0 cd8e0c    call    0c8eh
0bb3 cb47      bit     0,a
0bb5 2007      jr      nz,0bbeh
0bb7 212780    ld      hl,8027h
0bba cbd6      set     2,(hl)
0bbc 180c      jr      0bcah
0bbe 212780    ld      hl,8027h
0bc1 cb96      res     2,(hl)
0bc3 1805      jr      0bcah
0bc5 212780    ld      hl,8027h
0bc8 cb96      res     2,(hl)
0bca c9        ret     

0bcb 062c      ld      b,2ch
0bcd 210080    ld      hl,8000h
0bd0 3e00      ld      a,00h
0bd2 77        ld      (hl),a
0bd3 23        inc     hl
0bd4 10fc      djnz    0bd2h
0bd6 0e00      ld      c,00h
0bd8 0641      ld      b,41h
0bda cd8e0c    call    0c8eh
0bdd cb6f      bit     5,a
0bdf 2802      jr      z,0be3h
0be1 cbd9      set     3,c
0be3 0643      ld      b,43h
0be5 cd8e0c    call    0c8eh
0be8 cb67      bit     4,a
0bea 2002      jr      nz,0beeh
0bec cbe1      set     4,c
0bee 79        ld      a,c
0bef 322680    ld      (8026h),a
0bf2 3eff      ld      a,0ffh
0bf4 321980    ld      (8019h),a
0bf7 211d80    ld      hl,801dh
0bfa 3e30      ld      a,30h
0bfc 77        ld      (hl),a
0bfd 23        inc     hl
0bfe 3e01      ld      a,01h
0c00 77        ld      (hl),a
0c01 23        inc     hl
0c02 3e80      ld      a,80h
0c04 77        ld      (hl),a
0c05 3e11      ld      a,11h
0c07 210880    ld      hl,8008h
0c0a 77        ld      (hl),a
0c0b 23        inc     hl
0c0c 77        ld      (hl),a
0c0d 23        inc     hl
0c0e 77        ld      (hl),a
0c0f c9        ret     

0c10 e5        push    hl
0c11 c5        push    bc
0c12 3e00      ld      a,00h
0c14 d3bb      out     (0bbh),a
0c16 3eff      ld      a,0ffh
0c18 328580    ld      (8085h),a
0c1b 78        ld      a,b
0c1c 328180    ld      (8081h),a
0c1f 062e      ld      b,2eh
0c21 10fe      djnz    0c21h
0c23 212680    ld      hl,8026h
0c26 cbee      set     5,(hl)
0c28 3e00      ld      a,00h
0c2a 320080    ld      (8000h),a
0c2d 3e04      ld      a,04h
0c2f d3bb      out     (0bbh),a
0c31 3e02      ld      a,02h
0c33 328a80    ld      (808ah),a
0c36 328e80    ld      (808eh),a
0c39 019d2a    ld      bc,2a9dh
0c3c 212680    ld      hl,8026h
0c3f cb6e      bit     5,(hl)
0c41 2805      jr      z,0c48h
0c43 0b        dec     bc
0c44 78        ld      a,b
0c45 b1        or      c
0c46 20f4      jr      nz,0c3ch
0c48 3e0c      ld      a,0ch
0c4a d3bb      out     (0bbh),a
0c4c 212680    ld      hl,8026h
0c4f cbae      res     5,(hl)
0c51 3a0080    ld      a,(8000h)
0c54 c1        pop     bc
0c55 e1        pop     hl
0c56 c9        ret     

0c57 c5        push    bc
0c58 f5        push    af
0c59 3a1480    ld      a,(8014h)
0c5c e6e0      and     0e0h
0c5e 0610      ld      b,10h
0c60 cd3115    call    1531h
0c63 3e04      ld      a,04h
0c65 328e80    ld      (808eh),a
0c68 328a80    ld      (808ah),a
0c6b 0610      ld      b,10h
0c6d cd8e0c    call    0c8eh
0c70 e61f      and     1fh
0c72 4f        ld      c,a
0c73 f1        pop     af
0c74 79        ld      a,c
0c75 c1        pop     bc
0c76 c9        ret     

0c77 c5        push    bc
0c78 f5        push    af
0c79 cbfb      set     7,e
0c7b 1a        ld      a,(de)
0c7c 17        rla     
0c7d 17        rla     
0c7e 17        rla     
0c7f 17        rla     
0c80 e6f0      and     0f0h
0c82 47        ld      b,a
0c83 cbbb      res     7,e
0c85 1a        ld      a,(de)
0c86 e60f      and     0fh
0c88 b0        or      b
0c89 47        ld      b,a
0c8a f1        pop     af
0c8b 78        ld      a,b
0c8c c1        pop     bc
0c8d c9        ret     

0c8e c5        push    bc
0c8f f5        push    af
0c90 f3        di      
0c91 3eff      ld      a,0ffh
0c93 328580    ld      (8085h),a
0c96 3e00      ld      a,00h
0c98 328480    ld      (8084h),a
0c9b 78        ld      a,b
0c9c 328180    ld      (8081h),a
0c9f 062e      ld      b,2eh
0ca1 10fe      djnz    0ca1h
0ca3 3a8080    ld      a,(8080h)
0ca6 4f        ld      c,a
0ca7 3e00      ld      a,00h
0ca9 328180    ld      (8081h),a
0cac fb        ei      
0cad f1        pop     af
0cae 79        ld      a,c
0caf c1        pop     bc
0cb0 c9        ret     

0cb1 110000    ld      de,0000h
0cb4 210d80    ld      hl,800dh
0cb7 7e        ld      a,(hl)
0cb8 87        add     a,a
0cb9 27        daa     
0cba 3001      jr      nc,0cbdh
0cbc 1c        inc     e
0cbd b7        or      a
0cbe 2801      jr      z,0cc1h
0cc0 14        inc     d
0cc1 2b        dec     hl
0cc2 7e        ld      a,(hl)
0cc3 e60f      and     0fh
0cc5 87        add     a,a
0cc6 27        daa     
0cc7 83        add     a,e
0cc8 27        daa     
0cc9 5f        ld      e,a
0cca e60f      and     0fh
0ccc 87        add     a,a
0ccd 82        add     a,d
0cce 57        ld      d,a
0ccf 7b        ld      a,e
0cd0 1f        rra     
0cd1 1f        rra     
0cd2 1f        rra     
0cd3 1f        rra     
0cd4 e60f      and     0fh
0cd6 5f        ld      e,a
0cd7 2b        dec     hl
0cd8 7e        ld      a,(hl)
0cd9 cdc003    call    03c0h
0cdc 87        add     a,a
0cdd 83        add     a,e
0cde 5f        ld      e,a
0cdf 060c      ld      b,0ch
0ce1 0eea      ld      c,0eah
0ce3 7e        ld      a,(hl)
0ce4 fe53      cp      53h
0ce6 3004      jr      nc,0cech
0ce8 0608      ld      b,08h
0cea 0e15      ld      c,15h
0cec 7b        ld      a,e
0ced 81        add     a,c
0cee 5f        ld      e,a
0cef 7a        ld      a,d
0cf0 80        add     a,b
0cf1 fe17      cp      17h
0cf3 3803      jr      c,0cf8h
0cf5 d614      sub     14h
0cf7 1c        inc     e
0cf8 fe03      cp      03h
0cfa 3003      jr      nc,0cffh
0cfc c614      add     a,14h
0cfe 1d        dec     e
0cff 57        ld      d,a
0d00 e60f      and     0fh
0d02 0652      ld      b,52h
0d04 cd3115    call    1531h
0d07 7a        ld      a,d
0d08 1f        rra     
0d09 1f        rra     
0d0a 1f        rra     
0d0b 1f        rra     
0d0c e60f      and     0fh
0d0e f610      or      10h
0d10 cd3115    call    1531h
0d13 7b        ld      a,e
0d14 e60f      and     0fh
0d16 f620      or      20h
0d18 cd3115    call    1531h
0d1b 7b        ld      a,e
0d1c 1f        rra     
0d1d 1f        rra     
0d1e 1f        rra     
0d1f 1f        rra     
0d20 e60f      and     0fh
0d22 f630      or      30h
0d24 cd3115    call    1531h
0d27 3e40      ld      a,40h
0d29 cd3115    call    1531h
0d2c 3e50      ld      a,50h
0d2e cd3115    call    1531h
0d31 3e60      ld      a,60h
0d33 cd3115    call    1531h
0d36 3e71      ld      a,71h
0d38 cd3115    call    1531h
0d3b c9        ret     

0d3c 3a0b80    ld      a,(800bh)
0d3f fe62      cp      62h
0d41 3808      jr      c,0d4bh
0d43 0e40      ld      c,40h
0d45 1608      ld      d,08h
0d47 1e0a      ld      e,0ah
0d49 1812      jr      0d5dh
0d4b fe43      cp      43h
0d4d 3808      jr      c,0d57h
0d4f 0e20      ld      c,20h
0d51 1620      ld      d,20h
0d53 1e09      ld      e,09h
0d55 1806      jr      0d5dh
0d57 0e10      ld      c,10h
0d59 1600      ld      d,00h
0d5b 1e08      ld      e,08h
0d5d 3a1980    ld      a,(8019h)
0d60 e6f0      and     0f0h
0d62 b9        cp      c
0d63 caaf0d    jp      z,0dafh
0d66 3a1980    ld      a,(8019h)
0d69 e60f      and     0fh
0d6b b1        or      c
0d6c 321980    ld      (8019h),a
0d6f 3e00      ld      a,00h
0d71 0631      ld      b,31h
0d73 cd3115    call    1531h
0d76 3e04      ld      a,04h
0d78 0622      ld      b,22h
0d7a cd3115    call    1531h
0d7d 3e01      ld      a,01h
0d7f cdd507    call    07d5h
0d82 3e08      ld      a,08h
0d84 0631      ld      b,31h
0d86 cd3115    call    1531h
0d89 3e00      ld      a,00h
0d8b 0622      ld      b,22h
0d8d cd3115    call    1531h
0d90 7a        ld      a,d
0d91 0621      ld      b,21h
0d93 cd3115    call    1531h
0d96 7b        ld      a,e
0d97 0631      ld      b,31h
0d99 cd3115    call    1531h
0d9c 3e01      ld      a,01h
0d9e cdd507    call    07d5h
0da1 3e00      ld      a,00h
0da3 0621      ld      b,21h
0da5 cd3115    call    1531h
0da8 3e08      ld      a,08h
0daa 0631      ld      b,31h
0dac cd3115    call    1531h
0daf c9        ret     

0db0 3a1580    ld      a,(8015h)
0db3 f606      or      06h
0db5 321580    ld      (8015h),a
0db8 0611      ld      b,11h
0dba cd3115    call    1531h
0dbd 3e01      ld      a,01h
0dbf 0621      ld      b,21h
0dc1 cd3115    call    1531h
0dc4 3e08      ld      a,08h
0dc6 0622      ld      b,22h
0dc8 cd3115    call    1531h
0dcb 3e1f      ld      a,1fh
0dcd 212a80    ld      hl,802ah
0dd0 cd9213    call    1392h
0dd3 cb76      bit     6,(hl)
0dd5 c2c00e    jp      nz,0ec0h
0dd8 0653      ld      b,53h
0dda cd8e0c    call    0c8eh
0ddd cb4f      bit     1,a
0ddf 28f2      jr      z,0dd3h
0de1 cd8e0c    call    0c8eh
0de4 cb4f      bit     1,a
0de6 28eb      jr      z,0dd3h
0de8 cd8e0c    call    0c8eh
0deb cb4f      bit     1,a
0ded 28e4      jr      z,0dd3h
0def 3a1a80    ld      a,(801ah)
0df2 d630      sub     30h
0df4 4f        ld      c,a
0df5 210880    ld      hl,8008h
0df8 3e11      ld      a,11h
0dfa 77        ld      (hl),a
0dfb 23        inc     hl
0dfc 77        ld      (hl),a
0dfd 23        inc     hl
0dfe 77        ld      (hl),a
0dff 3e00      ld      a,00h
0e01 321180    ld      (8011h),a
0e04 321c80    ld      (801ch),a
0e07 57        ld      d,a
0e08 5f        ld      e,a
0e09 212680    ld      hl,8026h
0e0c cb56      bit     2,(hl)
0e0e c2cb0e    jp      nz,0ecbh
0e11 79        ld      a,c
0e12 82        add     a,d
0e13 14        inc     d
0e14 0623      ld      b,23h
0e16 cd3115    call    1531h
0e19 0624      ld      b,24h
0e1b cd100c    call    0c10h
0e1e fe40      cp      40h
0e20 3810      jr      c,0e32h
0e22 bb        cp      e
0e23 2809      jr      z,0e2eh
0e25 380b      jr      c,0e32h
0e27 5f        ld      e,a
0e28 7a        ld      a,d
0e29 321180    ld      (8011h),a
0e2c 1804      jr      0e32h
0e2e 7a        ld      a,d
0e2f 321c80    ld      (801ch),a
0e32 7a        ld      a,d
0e33 fe60      cp      60h
0e35 2805      jr      z,0e3ch
0e37 81        add     a,c
0e38 feff      cp      0ffh
0e3a 20cd      jr      nz,0e09h
0e3c 3e00      ld      a,00h
0e3e 321080    ld      (8010h),a
0e41 321b80    ld      (801bh),a
0e44 57        ld      d,a
0e45 7b        ld      a,e
0e46 cb2f      sra     a
0e48 5f        ld      e,a
0e49 cb2f      sra     a
0e4b 83        add     a,e
0e4c 5f        ld      e,a
0e4d 212680    ld      hl,8026h
0e50 cb56      bit     2,(hl)
0e52 c2cb0e    jp      nz,0ecbh
0e55 79        ld      a,c
0e56 82        add     a,d
0e57 14        inc     d
0e58 0623      ld      b,23h
0e5a cd3115    call    1531h
0e5d 0624      ld      b,24h
0e5f cd100c    call    0c10h
0e62 d608      sub     08h
0e64 0610      ld      b,10h
0e66 3c        inc     a
0e67 bb        cp      e
0e68 2804      jr      z,0e6eh
0e6a 10fa      djnz    0e66h
0e6c 1810      jr      0e7eh
0e6e 3a1180    ld      a,(8011h)
0e71 ba        cp      d
0e72 3806      jr      c,0e7ah
0e74 7a        ld      a,d
0e75 321080    ld      (8010h),a
0e78 1804      jr      0e7eh
0e7a 7a        ld      a,d
0e7b 321b80    ld      (801bh),a
0e7e 7a        ld      a,d
0e7f fe60      cp      60h
0e81 2805      jr      z,0e88h
0e83 81        add     a,c
0e84 feff      cp      0ffh
0e86 20c5      jr      nz,0e4dh
0e88 3a1080    ld      a,(8010h)
0e8b b7        or      a
0e8c 2815      jr      z,0ea3h
0e8e 57        ld      d,a
0e8f 3a1b80    ld      a,(801bh)
0e92 b7        or      a
0e93 280e      jr      z,0ea3h
0e95 ba        cp      d
0e96 380b      jr      c,0ea3h
0e98 92        sub     d
0e99 b7        or      a
0e9a 1f        rra     
0e9b 57        ld      d,a
0e9c 3a1080    ld      a,(8010h)
0e9f 82        add     a,d
0ea0 81        add     a,c
0ea1 181a      jr      0ebdh
0ea3 3a1180    ld      a,(8011h)
0ea6 b7        or      a
0ea7 2817      jr      z,0ec0h
0ea9 57        ld      d,a
0eaa 3a1c80    ld      a,(801ch)
0ead ba        cp      d
0eae 3004      jr      nc,0eb4h
0eb0 1600      ld      d,00h
0eb2 1804      jr      0eb8h
0eb4 92        sub     d
0eb5 b7        or      a
0eb6 1f        rra     
0eb7 57        ld      d,a
0eb8 3a1180    ld      a,(8011h)
0ebb 82        add     a,d
0ebc 81        add     a,c
0ebd 321a80    ld      (801ah),a
0ec0 210b80    ld      hl,800bh
0ec3 010880    ld      bc,8008h
0ec6 3e03      ld      a,03h
0ec8 cd9408    call    0894h
0ecb 3a1a80    ld      a,(801ah)
0ece 0623      ld      b,23h
0ed0 cd3115    call    1531h
0ed3 0630      ld      b,30h
0ed5 cd3115    call    1531h
0ed8 3e00      ld      a,00h
0eda 0621      ld      b,21h
0edc cd3115    call    1531h
0edf 3e00      ld      a,00h
0ee1 0622      ld      b,22h
0ee3 cd3115    call    1531h
0ee6 3a1580    ld      a,(8015h)
0ee9 e6f9      and     0f9h
0eeb 321580    ld      (8015h),a
0eee 0611      ld      b,11h
0ef0 cd3115    call    1531h
0ef3 c9        ret     

0ef4 211780    ld      hl,8017h
0ef7 cb96      res     2,(hl)
0ef9 7e        ld      a,(hl)
0efa 0613      ld      b,13h
0efc cd3115    call    1531h
0eff 212680    ld      hl,8026h
0f02 cbbe      res     7,(hl)
0f04 cd5d0b    call    0b5dh
0f07 212780    ld      hl,8027h
0f0a cb56      bit     2,(hl)
0f0c 281c      jr      z,0f2ah
0f0e 211480    ld      hl,8014h
0f11 cbee      set     5,(hl)
0f13 7e        ld      a,(hl)
0f14 0610      ld      b,10h
0f16 cd3115    call    1531h
0f19 3e01      ld      a,01h
0f1b 320180    ld      (8001h),a
0f1e 3e0c      ld      a,0ch
0f20 cd8801    call    0188h
0f23 212780    ld      hl,8027h
0f26 cb86      res     0,(hl)
0f28 184e      jr      0f78h
0f2a 212780    ld      hl,8027h
0f2d cb4e      bit     1,(hl)
0f2f 2827      jr      z,0f58h
0f31 211480    ld      hl,8014h
0f34 cbee      set     5,(hl)
0f36 7e        ld      a,(hl)
0f37 0610      ld      b,10h
0f39 cd3115    call    1531h
0f3c 211d80    ld      hl,801dh
0f3f cb6e      bit     5,(hl)
0f41 2804      jr      z,0f47h
0f43 3e02      ld      a,02h
0f45 1802      jr      0f49h
0f47 3e00      ld      a,00h
0f49 320180    ld      (8001h),a
0f4c 3e34      ld      a,34h
0f4e cd8801    call    0188h
0f51 212780    ld      hl,8027h
0f54 cb86      res     0,(hl)
0f56 1820      jr      0f78h
0f58 3e00      ld      a,00h
0f5a 320180    ld      (8001h),a
0f5d 211480    ld      hl,8014h
0f60 cbae      res     5,(hl)
0f62 7e        ld      a,(hl)
0f63 0610      ld      b,10h
0f65 cd3115    call    1531h
0f68 212780    ld      hl,8027h
0f6b cb46      bit     0,(hl)
0f6d 2804      jr      z,0f73h
0f6f 3e34      ld      a,34h
0f71 1802      jr      0f75h
0f73 3e0c      ld      a,0ch
0f75 cd8801    call    0188h
0f78 c9        ret     

0f79 f5        push    af
0f7a c5        push    bc
0f7b e5        push    hl
0f7c 211480    ld      hl,8014h
0f7f cbae      res     5,(hl)
0f81 7e        ld      a,(hl)
0f82 0610      ld      b,10h
0f84 cd3115    call    1531h
0f87 cbef      set     5,a
0f89 cd3115    call    1531h
0f8c cbaf      res     5,a
0f8e cd3115    call    1531h
0f91 e1        pop     hl
0f92 c1        pop     bc
0f93 f1        pop     af
0f94 c9        ret     

0f95 211780    ld      hl,8017h
0f98 cb96      res     2,(hl)
0f9a 7e        ld      a,(hl)
0f9b 0613      ld      b,13h
0f9d cd3115    call    1531h
0fa0 cd3407    call    0734h
0fa3 3a0280    ld      a,(8002h)
0fa6 e6f8      and     0f8h
0fa8 f602      or      02h
0faa cd8801    call    0188h
0fad cdf503    call    03f5h
0fb0 212680    ld      hl,8026h
0fb3 cbbe      res     7,(hl)
0fb5 212780    ld      hl,8027h
0fb8 cb86      res     0,(hl)
0fba 0641      ld      b,41h
0fbc cd8e0c    call    0c8eh
0fbf cb57      bit     2,a
0fc1 203c      jr      nz,0fffh
0fc3 0610      ld      b,10h
0fc5 cd8e0c    call    0c8eh
0fc8 cb6f      bit     5,a
0fca 2833      jr      z,0fffh
0fcc 211580    ld      hl,8015h
0fcf cb6e      bit     5,(hl)
0fd1 2803      jr      z,0fd6h
0fd3 cd3407    call    0734h
0fd6 cd5d0b    call    0b5dh
0fd9 212780    ld      hl,8027h
0fdc cb56      bit     2,(hl)
0fde 280c      jr      z,0fech
0fe0 3e0b      ld      a,0bh
0fe2 cd8801    call    0188h
0fe5 3e01      ld      a,01h
0fe7 320180    ld      (8001h),a
0fea 1811      jr      0ffdh
0fec 3e00      ld      a,00h
0fee 320180    ld      (8001h),a
0ff1 212780    ld      hl,8027h
0ff4 cb4e      bit     1,(hl)
0ff6 2805      jr      z,0ffdh
0ff8 3e32      ld      a,32h
0ffa cd8801    call    0188h
0ffd 18bb      jr      0fbah
0fff 3e00      ld      a,00h
1001 320180    ld      (8001h),a
1004 cdca14    call    14cah
1007 3a0280    ld      a,(8002h)
100a e6f8      and     0f8h
100c f604      or      04h
100e cd8801    call    0188h
1011 c9        ret     

1012 cd5d0b    call    0b5dh
1015 211f80    ld      hl,801fh
1018 cb66      bit     4,(hl)
101a 2032      jr      nz,104eh
101c 212780    ld      hl,8027h
101f cb56      bit     2,(hl)
1021 2027      jr      nz,104ah
1023 212780    ld      hl,8027h
1026 cb4e      bit     1,(hl)
1028 2812      jr      z,103ch
102a 211d80    ld      hl,801dh
102d cb6e      bit     5,(hl)
102f 281d      jr      z,104eh
1031 0611      ld      b,11h
1033 cd8e0c    call    0c8eh
1036 cb67      bit     4,a
1038 2814      jr      z,104eh
103a 180e      jr      104ah
103c 211d80    ld      hl,801dh
103f cb6e      bit     5,(hl)
1041 2007      jr      nz,104ah
1043 211f80    ld      hl,801fh
1046 cb76      bit     6,(hl)
1048 2804      jr      z,104eh
104a 3e0c      ld      a,0ch
104c 1802      jr      1050h
104e 3e34      ld      a,34h
1050 cd8801    call    0188h
1053 212780    ld      hl,8027h
1056 cb56      bit     2,(hl)
1058 2804      jr      z,105eh
105a 3e01      ld      a,01h
105c 1814      jr      1072h
105e 212780    ld      hl,8027h
1061 cb4e      bit     1,(hl)
1063 280b      jr      z,1070h
1065 211d80    ld      hl,801dh
1068 cb6e      bit     5,(hl)
106a 2804      jr      z,1070h
106c 3e02      ld      a,02h
106e 1802      jr      1072h
1070 3e00      ld      a,00h
1072 320180    ld      (8001h),a
1075 211f80    ld      hl,801fh
1078 cb7e      bit     7,(hl)
107a 2004      jr      nz,1080h
107c 0e00      ld      c,00h
107e 1837      jr      10b7h
1080 212780    ld      hl,8027h
1083 cb56      bit     2,(hl)
1085 2007      jr      nz,108eh
1087 210380    ld      hl,8003h
108a cb7e      bit     7,(hl)
108c 2804      jr      z,1092h
108e 0e04      ld      c,04h
1090 1825      jr      10b7h
1092 211d80    ld      hl,801dh
1095 cb6e      bit     5,(hl)
1097 2011      jr      nz,10aah
1099 0611      ld      b,11h
109b cd8e0c    call    0c8eh
109e cb47      bit     0,a
10a0 2804      jr      z,10a6h
10a2 0e04      ld      c,04h
10a4 1811      jr      10b7h
10a6 0e00      ld      c,00h
10a8 180d      jr      10b7h
10aa 212780    ld      hl,8027h
10ad cb4e      bit     1,(hl)
10af 2804      jr      z,10b5h
10b1 0e04      ld      c,04h
10b3 1802      jr      10b7h
10b5 0e00      ld      c,00h
10b7 3a1780    ld      a,(8017h)
10ba e6fb      and     0fbh
10bc b1        or      c
10bd 321780    ld      (8017h),a
10c0 0613      ld      b,13h
10c2 cd3115    call    1531h
10c5 c9        ret     

10c6 3a2680    ld      a,(8026h)
10c9 cb47      bit     0,a
10cb 2806      jr      z,10d3h
10cd cd3412    call    1234h
10d0 c3b311    jp      11b3h
10d3 212380    ld      hl,8023h
10d6 012080    ld      bc,8020h
10d9 3e03      ld      a,03h
10db cd9408    call    0894h
10de 3e01      ld      a,01h
10e0 cdd507    call    07d5h
10e3 1600      ld      d,00h
10e5 0640      ld      b,40h
10e7 cd8e0c    call    0c8eh
10ea eeff      xor     0ffh
10ec e63f      and     3fh
10ee 4f        ld      c,a
10ef 0641      ld      b,41h
10f1 cd8e0c    call    0c8eh
10f4 eeff      xor     0ffh
10f6 f5        push    af
10f7 e60f      and     0fh
10f9 fe00      cp      00h
10fb 2002      jr      nz,10ffh
10fd 1610      ld      d,10h
10ff f1        pop     af
1100 17        rla     
1101 17        rla     
1102 f5        push    af
1103 e6c0      and     0c0h
1105 b1        or      c
1106 322380    ld      (8023h),a
1109 f1        pop     af
110a 17        rla     
110b 17        rla     
110c f5        push    af
110d e6c0      and     0c0h
110f 4f        ld      c,a
1110 0642      ld      b,42h
1112 cd8e0c    call    0c8eh
1115 eeff      xor     0ffh
1117 e63f      and     3fh
1119 b1        or      c
111a 322480    ld      (8024h),a
111d f1        pop     af
111e 17        rla     
111f 17        rla     
1120 e6c0      and     0c0h
1122 4f        ld      c,a
1123 0643      ld      b,43h
1125 cd8e0c    call    0c8eh
1128 eeff      xor     0ffh
112a 47        ld      b,a
112b e60f      and     0fh
112d cb60      bit     4,b
112f 2802      jr      z,1133h
1131 cbef      set     5,a
1133 b1        or      c
1134 b2        or      d
1135 322580    ld      (8025h),a
1138 3a2580    ld      a,(8025h)
113b cb77      bit     6,a
113d 2004      jr      nz,1143h
113f cb7f      bit     7,a
1141 284e      jr      z,1191h
1143 cd570c    call    0c57h
1146 cb67      bit     4,a
1148 2847      jr      z,1191h
114a 212680    ld      hl,8026h
114d cb4e      bit     1,(hl)
114f 200a      jr      nz,115bh
1151 cbce      set     1,(hl)
1153 211480    ld      hl,8014h
1156 cbe6      set     4,(hl)
1158 cd6415    call    1564h
115b cd570c    call    0c57h
115e 0e20      ld      c,20h
1160 cb47      bit     0,a
1162 2802      jr      z,1166h
1164 0e00      ld      c,00h
1166 e60e      and     0eh
1168 fe00      cp      00h
116a 2002      jr      nz,116eh
116c cbc1      set     0,c
116e fe02      cp      02h
1170 2002      jr      nz,1174h
1172 cbc9      set     1,c
1174 fe04      cp      04h
1176 2002      jr      nz,117ah
1178 cbd1      set     2,c
117a fe06      cp      06h
117c 2002      jr      nz,1180h
117e cbd9      set     3,c
1180 fe08      cp      08h
1182 2002      jr      nz,1186h
1184 cbe1      set     4,c
1186 3a2380    ld      a,(8023h)
1189 e6c0      and     0c0h
118b b1        or      c
118c 322380    ld      (8023h),a
118f 1811      jr      11a2h
1191 212680    ld      hl,8026h
1194 cb4e      bit     1,(hl)
1196 280a      jr      z,11a2h
1198 cb8e      res     1,(hl)
119a 211480    ld      hl,8014h
119d cba6      res     4,(hl)
119f cd6415    call    1564h
11a2 212380    ld      hl,8023h
11a5 012080    ld      bc,8020h
11a8 3e03      ld      a,03h
11aa cd6a03    call    036ah
11ad dad310    jp      c,10d3h
11b0 cd8e04    call    048eh
11b3 c9        ret     

11b4 cdc610    call    10c6h
11b7 3a1280    ld      a,(8012h)
11ba e61f      and     1fh
11bc 4f        ld      c,a
11bd 3a1d80    ld      a,(801dh)
11c0 e61f      and     1fh
11c2 b9        cp      c
11c3 282c      jr      z,11f1h
11c5 321280    ld      (8012h),a
11c8 1100c0    ld      de,0c000h
11cb 1f        rra     
11cc 3815      jr      c,11e3h
11ce 1103c0    ld      de,0c003h
11d1 1f        rra     
11d2 380f      jr      c,11e3h
11d4 1106c0    ld      de,0c006h
11d7 1f        rra     
11d8 3809      jr      c,11e3h
11da 1109c0    ld      de,0c009h
11dd 1f        rra     
11de 3803      jr      c,11e3h
11e0 110cc0    ld      de,0c00ch
11e3 210b80    ld      hl,800bh
11e6 3e03      ld      a,03h
11e8 cda408    call    08a4h
11eb cd1a05    call    051ah
11ee cd4f05    call    054fh
11f1 3a1f80    ld      a,(801fh)
11f4 e60f      and     0fh
11f6 c4d912    call    nz,12d9h
11f9 212680    ld      hl,8026h
11fc cb96      res     2,(hl)
11fe cdb409    call    09b4h
1201 3a0b80    ld      a,(800bh)
1204 fe11      cp      11h
1206 2005      jr      nz,120dh
1208 cd2e04    call    042eh
120b 1816      jr      1223h
120d cd0d04    call    040dh
1210 210b80    ld      hl,800bh
1213 010880    ld      bc,8008h
1216 3e03      ld      a,03h
1218 cd6a03    call    036ah
121b 3006      jr      nc,1223h
121d cd9d13    call    139dh
1220 cdb00d    call    0db0h
1223 3a0b80    ld      a,(800bh)
1226 fe11      cp      11h
1228 cab411    jp      z,11b4h
122b 3a0880    ld      a,(8008h)
122e fe11      cp      11h
1230 cab411    jp      z,11b4h
1233 c9        ret     

1234 0610      ld      b,10h
1236 cd8e0c    call    0c8eh
1239 cb6f      bit     5,a
123b cac412    jp      z,12c4h
123e 212080    ld      hl,8020h
1241 1600      ld      d,00h
1243 0e06      ld      c,06h
1245 1e08      ld      e,08h
1247 cb02      rlc     d
1249 cd790f    call    0f79h
124c 0610      ld      b,10h
124e cd8e0c    call    0c8eh
1251 cb82      res     0,d
1253 cb6f      bit     5,a
1255 2802      jr      z,1259h
1257 cbc2      set     0,d
1259 1d        dec     e
125a 20eb      jr      nz,1247h
125c 7a        ld      a,d
125d 77        ld      (hl),a
125e 23        inc     hl
125f 0d        dec     c
1260 20e3      jr      nz,1245h
1262 cd790f    call    0f79h
1265 212380    ld      hl,8023h
1268 cbbe      res     7,(hl)
126a 212480    ld      hl,8024h
126d cb76      bit     6,(hl)
126f 2807      jr      z,1278h
1271 cbb6      res     6,(hl)
1273 212580    ld      hl,8025h
1276 cbfe      set     7,(hl)
1278 cd8e04    call    048eh
127b 212080    ld      hl,8020h
127e cd1a05    call    051ah
1281 7e        ld      a,(hl)
1282 fe11      cp      11h
1284 283e      jr      z,12c4h
1286 3a1f80    ld      a,(801fh)
1289 e6f0      and     0f0h
128b 321f80    ld      (801fh),a
128e 212080    ld      hl,8020h
1291 010b80    ld      bc,800bh
1294 3e03      ld      a,03h
1296 cd9408    call    0894h
1299 3a1d80    ld      a,(801dh)
129c e61f      and     1fh
129e 1100c0    ld      de,0c000h
12a1 1f        rra     
12a2 3815      jr      c,12b9h
12a4 1103c0    ld      de,0c003h
12a7 1f        rra     
12a8 380f      jr      c,12b9h
12aa 1106c0    ld      de,0c006h
12ad 1f        rra     
12ae 3809      jr      c,12b9h
12b0 1109c0    ld      de,0c009h
12b3 1f        rra     
12b4 3803      jr      c,12b9h
12b6 110cc0    ld      de,0c00ch
12b9 212080    ld      hl,8020h
12bc 3e03      ld      a,03h
12be cdba08    call    08bah
12c1 cd4f05    call    054fh
12c4 c9        ret     

12c5 211780    ld      hl,8017h
12c8 cbe6      set     4,(hl)
12ca 7e        ld      a,(hl)
12cb 0613      ld      b,13h
12cd cd3115    call    1531h
12d0 211880    ld      hl,8018h
12d3 3e10      ld      a,10h
12d5 cd9213    call    1392h
12d8 c9        ret     

12d9 3a2680    ld      a,(8026h)
12dc cb4f      bit     1,a
12de c29113    jp      nz,1391h
12e1 3a1d80    ld      a,(801dh)
12e4 cb7f      bit     7,a
12e6 c29113    jp      nz,1391h
12e9 cb67      bit     4,a
12eb 2008      jr      nz,12f5h
12ed 3a1e80    ld      a,(801eh)
12f0 cb7f      bit     7,a
12f2 ca9113    jp      z,1391h
12f5 3a0b80    ld      a,(800bh)
12f8 fe11      cp      11h
12fa 2021      jr      nz,131dh
12fc 3a1f80    ld      a,(801fh)
12ff e60a      and     0ah
1301 280e      jr      z,1311h
1303 210b80    ld      hl,800bh
1306 3e75      ld      a,75h
1308 77        ld      (hl),a
1309 3e00      ld      a,00h
130b 23        inc     hl
130c 77        ld      (hl),a
130d 23        inc     hl
130e 77        ld      (hl),a
130f 180c      jr      131dh
1311 210b80    ld      hl,800bh
1314 3e30      ld      a,30h
1316 77        ld      (hl),a
1317 3e00      ld      a,00h
1319 23        inc     hl
131a 77        ld      (hl),a
131b 23        inc     hl
131c 77        ld      (hl),a
131d cd4f05    call    054fh
1320 212b80    ld      hl,802bh
1323 3e0a      ld      a,0ah
1325 cd9213    call    1392h
1328 3e02      ld      a,02h
132a 320780    ld      (8007h),a
132d 3a2b80    ld      a,(802bh)
1330 cb77      bit     6,a
1332 2826      jr      z,135ah
1334 cd6d08    call    086dh
1337 cda707    call    07a7h
133a cd4f05    call    054fh
133d 3a0780    ld      a,(8007h)
1340 fe00      cp      00h
1342 200a      jr      nz,134eh
1344 212b80    ld      hl,802bh
1347 3e0a      ld      a,0ah
1349 cd9213    call    1392h
134c 180c      jr      135ah
134e 212b80    ld      hl,802bh
1351 3e30      ld      a,30h
1353 cd9213    call    1392h
1356 210780    ld      hl,8007h
1359 35        dec     (hl)
135a cdc610    call    10c6h
135d 3a1f80    ld      a,(801fh)
1360 e60f      and     0fh
1362 20c9      jr      nz,132dh
1364 3a1d80    ld      a,(801dh)
1367 e61f      and     1fh
1369 1100c0    ld      de,0c000h
136c 1f        rra     
136d 3815      jr      c,1384h
136f 1103c0    ld      de,0c003h
1372 1f        rra     
1373 380f      jr      c,1384h
1375 1106c0    ld      de,0c006h
1378 1f        rra     
1379 3809      jr      c,1384h
137b 1109c0    ld      de,0c009h
137e 1f        rra     
137f 3803      jr      c,1384h
1381 110cc0    ld      de,0c00ch
1384 210b80    ld      hl,800bh
1387 3e03      ld      a,03h
1389 cdba08    call    08bah
138c 3e00      ld      a,00h
138e 322b80    ld      (802bh),a
1391 c9        ret     

1392 47        ld      b,a
1393 3a1380    ld      a,(8013h)
1396 80        add     a,b
1397 e63f      and     3fh
1399 f680      or      80h
139b 77        ld      (hl),a
139c c9        ret     

139d cdb10c    call    0cb1h
13a0 cd9f14    call    149fh
13a3 cd3c0d    call    0d3ch
13a6 cd690a    call    0a69h
13a9 cd0001    call    0100h
13ac cda605    call    05a6h
13af cd0706    call    0607h
13b2 c9        ret     

13b3 7e        ld      a,(hl)
13b4 cb7f      bit     7,a
13b6 2811      jr      z,13c9h
13b8 cb77      bit     6,a
13ba 200d      jr      nz,13c9h
13bc e63f      and     3fh
13be 47        ld      b,a
13bf 3a1380    ld      a,(8013h)
13c2 e63f      and     3fh
13c4 b8        cp      b
13c5 2002      jr      nz,13c9h
13c7 cbf6      set     6,(hl)
13c9 c9        ret     

13ca 0611      ld      b,11h
13cc cd8e0c    call    0c8eh
13cf cb57      bit     2,a
13d1 2825      jr      z,13f8h
13d3 3a0280    ld      a,(8002h)
13d6 cb57      bit     2,a
13d8 281e      jr      z,13f8h
13da 3a2680    ld      a,(8026h)
13dd cb7f      bit     7,a
13df 2017      jr      nz,13f8h
13e1 212680    ld      hl,8026h
13e4 cbfe      set     7,(hl)
13e6 cdc512    call    12c5h
13e9 0611      ld      b,11h
13eb cd8e0c    call    0c8eh
13ee cb6f      bit     5,a
13f0 28f7      jr      z,13e9h
13f2 cdbe02    call    02beh
13f5 c39e14    jp      149eh
13f8 211780    ld      hl,8017h
13fb cb96      res     2,(hl)
13fd 7e        ld      a,(hl)
13fe 0613      ld      b,13h
1400 cd3115    call    1531h
1403 212680    ld      hl,8026h
1406 cbbe      res     7,(hl)
1408 211f80    ld      hl,801fh
140b cb66      bit     4,(hl)
140d 2007      jr      nz,1416h
140f 211d80    ld      hl,801dh
1412 cb6e      bit     5,(hl)
1414 200c      jr      nz,1422h
1416 3e00      ld      a,00h
1418 320180    ld      (8001h),a
141b 3e32      ld      a,32h
141d cd8801    call    0188h
1420 180a      jr      142ch
1422 3e01      ld      a,01h
1424 320180    ld      (8001h),a
1427 3e0d      ld      a,0dh
1429 cd8801    call    0188h
142c 211580    ld      hl,8015h
142f cb6e      bit     5,(hl)
1431 280b      jr      z,143eh
1433 cdf503    call    03f5h
1436 cd3407    call    0734h
1439 cdc512    call    12c5h
143c 182b      jr      1469h
143e 3a1d80    ld      a,(801dh)
1441 cb6f      bit     5,a
1443 2024      jr      nz,1469h
1445 212a80    ld      hl,802ah
1448 3e1f      ld      a,1fh
144a cd9213    call    1392h
144d 0612      ld      b,12h
144f cd8e0c    call    0c8eh
1452 cb4f      bit     1,a
1454 2813      jr      z,1469h
1456 3a2a80    ld      a,(802ah)
1459 cb77      bit     6,a
145b 28f0      jr      z,144dh
145d cdca14    call    14cah
1460 0611      ld      b,11h
1462 cd8e0c    call    0c8eh
1465 cb6f      bit     5,a
1467 28f9      jr      z,1462h
1469 0611      ld      b,11h
146b cd8e0c    call    0c8eh
146e cb6f      bit     5,a
1470 28ba      jr      z,142ch
1472 cdbe02    call    02beh
1475 211580    ld      hl,8015h
1478 cb6e      bit     5,(hl)
147a 2013      jr      nz,148fh
147c 211d80    ld      hl,801dh
147f cb6e      bit     5,(hl)
1481 2009      jr      nz,148ch
1483 0611      ld      b,11h
1485 cd8e0c    call    0c8eh
1488 cb4f      bit     1,a
148a 20f7      jr      nz,1483h
148c cdca14    call    14cah
148f 3e00      ld      a,00h
1491 320180    ld      (8001h),a
1494 3a0280    ld      a,(8002h)
1497 e6f8      and     0f8h
1499 f604      or      04h
149b cd8801    call    0188h
149e c9        ret     

149f 06b0      ld      b,0b0h
14a1 3e00      ld      a,00h
14a3 cd3115    call    1531h
14a6 3e10      ld      a,10h
14a8 cd3115    call    1531h
14ab 3e2b      ld      a,2bh
14ad cd3115    call    1531h
14b0 3e36      ld      a,36h
14b2 cd3115    call    1531h
14b5 3e40      ld      a,40h
14b7 cd3115    call    1531h
14ba 3e50      ld      a,50h
14bc cd3115    call    1531h
14bf 3e64      ld      a,64h
14c1 cd3115    call    1531h
14c4 3e70      ld      a,70h
14c6 cd3115    call    1531h
14c9 c9        ret     

14ca 211580    ld      hl,8015h
14cd cb9e      res     3,(hl)
14cf 7e        ld      a,(hl)
14d0 0611      ld      b,11h
14d2 cd3115    call    1531h
14d5 3e01      ld      a,01h
14d7 cdd507    call    07d5h
14da cb96      res     2,(hl)
14dc 7e        ld      a,(hl)
14dd cd3115    call    1531h
14e0 3e01      ld      a,01h
14e2 cdd507    call    07d5h
14e5 cb8e      res     1,(hl)
14e7 7e        ld      a,(hl)
14e8 cd3115    call    1531h
14eb 211780    ld      hl,8017h
14ee cbae      res     5,(hl)
14f0 7e        ld      a,(hl)
14f1 0613      ld      b,13h
14f3 cd3115    call    1531h
14f6 211580    ld      hl,8015h
14f9 cbee      set     5,(hl)
14fb 7e        ld      a,(hl)
14fc 0611      ld      b,11h
14fe cd3115    call    1531h
1501 210380    ld      hl,8003h
1504 3e0d      ld      a,0dh
1506 cd9213    call    1392h
1509 c9        ret     

150a e5        push    hl
150b c5        push    bc
150c f5        push    af
150d 48        ld      c,b
150e 0641      ld      b,41h
1510 cd8e0c    call    0c8eh
1513 41        ld      b,c
1514 cb6f      bit     5,a
1516 2815      jr      z,152dh
1518 78        ld      a,b
1519 fe06      cp      06h
151b 3010      jr      nc,152dh
151d b7        or      a
151e 280d      jr      z,152dh
1520 3e4d      ld      a,4dh
1522 90        sub     b
1523 47        ld      b,a
1524 f1        pop     af
1525 f5        push    af
1526 e60f      and     0fh
1528 f620      or      20h
152a cd3115    call    1531h
152d f1        pop     af
152e c1        pop     bc
152f e1        pop     hl
1530 c9        ret     

1531 c5        push    bc
1532 f5        push    af
1533 f3        di      
1534 78        ld      a,b
1535 328180    ld      (8081h),a
1538 3eff      ld      a,0ffh
153a 328480    ld      (8084h),a
153d f1        pop     af
153e f5        push    af
153f 328080    ld      (8080h),a
1542 062e      ld      b,2eh
1544 10fe      djnz    1544h
1546 3e01      ld      a,01h
1548 328a80    ld      (808ah),a
154b 062e      ld      b,2eh
154d 10fe      djnz    154dh
154f 3e01      ld      a,01h
1551 328280    ld      (8082h),a
1554 062e      ld      b,2eh
1556 10fe      djnz    1556h
1558 3e00      ld      a,00h
155a 328480    ld      (8084h),a
155d 328180    ld      (8081h),a
1560 fb        ei      
1561 f1        pop     af
1562 c1        pop     bc
1563 c9        ret     

1564 c5        push    bc
1565 f5        push    af
1566 3a1480    ld      a,(8014h)
1569 e6e0      and     0e0h
156b 0610      ld      b,10h
156d cd3115    call    1531h
1570 3e04      ld      a,04h
1572 328e80    ld      (808eh),a
1575 328a80    ld      (808ah),a
1578 3a1480    ld      a,(8014h)
157b 0610      ld      b,10h
157d cd3115    call    1531h
1580 06a0      ld      b,0a0h
1582 cd3115    call    1531h
1585 f1        pop     af
1586 c1        pop     bc
1587 c9        ret     

1588 e5        push    hl
1589 d5        push    de
158a f5        push    af
158b eb        ex      de,hl
158c 112a00    ld      de,002ah
158f 77        ld      (hl),a
1590 19        add     hl,de
1591 77        ld      (hl),a
1592 19        add     hl,de
1593 77        ld      (hl),a
1594 23        inc     hl
1595 23        inc     hl
1596 1f        rra     
1597 1f        rra     
1598 1f        rra     
1599 1f        rra     
159a 19        add     hl,de
159b 77        ld      (hl),a
159c 19        add     hl,de
159d 77        ld      (hl),a
159e 19        add     hl,de
159f 77        ld      (hl),a
15a0 f1        pop     af
15a1 d1        pop     de
15a2 e1        pop     hl
15a3 c9        ret     

15a4 c32b18    jp      182bh
15a7 00        nop     
15a8 cd851d    call    1d85h
15ab cdb71a    call    1ab7h
15ae cdc317    call    17c3h
15b1 cd1b17    call    171bh
15b4 cd851b    call    1b85h
15b7 cddf1b    call    1bdfh
15ba cd5e1c    call    1c5eh
15bd cd0418    call    1804h
15c0 cde11e    call    1ee1h
15c3 cd7e21    call    217eh
15c6 cd7822    call    2278h
15c9 c37016    jp      1670h
15cc 5f        ld      e,a
15cd 3e00      ld      a,00h
15cf 328780    ld      (8087h),a
15d2 328480    ld      (8084h),a
15d5 328180    ld      (8081h),a
15d8 3eff      ld      a,0ffh
15da 328580    ld      (8085h),a
15dd 3e03      ld      a,03h
15df 328280    ld      (8082h),a
15e2 3e27      ld      a,27h
15e4 328680    ld      (8086h),a
15e7 cdd403    call    03d4h
15ea 0604      ld      b,04h
15ec 3e02      ld      a,02h
15ee cddd01    call    01ddh
15f1 cdf503    call    03f5h
15f4 3e02      ld      a,02h
15f6 cddd01    call    01ddh
15f9 cd0104    call    0401h
15fc 10ee      djnz    15ech
15fe c30116    jp      1601h
1601 3e0a      ld      a,0ah
1603 cddd01    call    01ddh
1606 0643      ld      b,43h
1608 cd8e0c    call    0c8eh
160b cb4f      bit     1,a
160d ca1716    jp      z,1617h
1610 cb47      bit     0,a
1612 c2ab16    jp      nz,16abh
1615 e1        pop     hl
1616 c9        ret     

1617 0605      ld      b,05h
1619 3e0a      ld      a,0ah
161b cd0a15    call    150ah
161e 10fb      djnz    161bh
1620 d5        push    de
1621 7a        ld      a,d
1622 e607      and     07h
1624 0601      ld      b,01h
1626 cd0a15    call    150ah
1629 7a        ld      a,d
162a cb3f      srl     a
162c cb3f      srl     a
162e cb3f      srl     a
1630 57        ld      d,a
1631 e607      and     07h
1633 0602      ld      b,02h
1635 cd0a15    call    150ah
1638 7a        ld      a,d
1639 cb3f      srl     a
163b cb3f      srl     a
163d cb3f      srl     a
163f 0603      ld      b,03h
1641 cd0a15    call    150ah
1644 7b        ld      a,e
1645 0604      ld      b,04h
1647 cd0a15    call    150ah
164a cb3f      srl     a
164c cb3f      srl     a
164e cb3f      srl     a
1650 cb3f      srl     a
1652 0605      ld      b,05h
1654 cd0a15    call    150ah
1657 3e14      ld      a,14h
1659 cddd01    call    01ddh
165c d1        pop     de
165d cd2b17    call    172bh
1660 0643      ld      b,43h
1662 cd8e0c    call    0c8eh
1665 cb5f      bit     3,a
1667 cc6121    call    z,2161h
166a cb4f      bit     1,a
166c c26016    jp      nz,1660h
166f c9        ret     

1670 3e00      ld      a,00h
1672 328780    ld      (8087h),a
1675 328480    ld      (8084h),a
1678 328180    ld      (8081h),a
167b 3eff      ld      a,0ffh
167d 328580    ld      (8085h),a
1680 328280    ld      (8082h),a
1683 3e27      ld      a,27h
1685 328680    ld      (8086h),a
1688 21a616    ld      hl,16a6h
168b 0605      ld      b,05h
168d 7e        ld      a,(hl)
168e cd0a15    call    150ah
1691 23        inc     hl
1692 10f9      djnz    168dh
1694 3e05      ld      a,05h
1696 cddd01    call    01ddh
1699 0643      ld      b,43h
169b cd8e0c    call    0c8eh
169e cb5f      bit     3,a
16a0 cc6121    call    z,2161h
16a3 c3ad16    jp      16adh
16a6 2828      jr      z,16d0h
16a8 2828      jr      z,16d2h
16aa 28e1      jr      z,168dh
16ac e1        pop     hl
16ad cdf001    call    01f0h
16b0 c38300    jp      0083h
16b3 f5        push    af
16b4 78        ld      a,b
16b5 328180    ld      (8081h),a
16b8 f1        pop     af
16b9 cdd507    call    07d5h
16bc c9        ret     

16bd c5        push    bc
16be d5        push    de
16bf 50        ld      d,b
16c0 0613      ld      b,13h
16c2 cd8e0c    call    0c8eh
16c5 7a        ld      a,d
16c6 328180    ld      (8081h),a
16c9 3e02      ld      a,02h
16cb cdd507    call    07d5h
16ce 3e04      ld      a,04h
16d0 d3bb      out     (0bbh),a
16d2 3e02      ld      a,02h
16d4 328a80    ld      (808ah),a
16d7 328e80    ld      (808eh),a
16da 0640      ld      b,40h
16dc 10fe      djnz    16dch
16de 0613      ld      b,13h
16e0 cd8e0c    call    0c8eh
16e3 47        ld      b,a
16e4 7a        ld      a,d
16e5 328180    ld      (8081h),a
16e8 3e80      ld      a,80h
16ea d3bb      out     (0bbh),a
16ec 78        ld      a,b
16ed d1        pop     de
16ee c1        pop     bc
16ef fb        ei      
16f0 c9        ret     

16f1 0601      ld      b,01h
16f3 c9        ret     

16f4 c5        push    bc
16f5 cdbd16    call    16bdh
16f8 47        ld      b,a
16f9 93        sub     e
16fa daff16    jp      c,16ffh
16fd 7a        ld      a,d
16fe 90        sub     b
16ff 78        ld      a,b
1700 c1        pop     bc
1701 c9        ret     

1702 c5        push    bc
1703 0610      ld      b,10h
1705 cd3115    call    1531h
1708 3e04      ld      a,04h
170a 328e80    ld      (808eh),a
170d 328a80    ld      (808ah),a
1710 79        ld      a,c
1711 cd3115    call    1531h
1714 06a0      ld      b,0a0h
1716 cd3115    call    1531h
1719 c1        pop     bc
171a c9        ret     

171b 3e04      ld      a,04h
171d 328e80    ld      (808eh),a
1720 06a0      ld      b,0a0h
1722 cd3115    call    1531h
1725 3e04      ld      a,04h
1727 328a80    ld      (808ah),a
172a c9        ret     

172b d5        push    de
172c 210000    ld      hl,0000h
172f 0e00      ld      c,00h
1731 7a        ld      a,d
1732 e60f      and     0fh
1734 ca4c17    jp      z,174ch
1737 47        ld      b,a
1738 118813    ld      de,1388h
173b 19        add     hl,de
173c d24017    jp      nc,1740h
173f 0c        inc     c
1740 10f9      djnz    173bh
1742 0604      ld      b,04h
1744 cb19      rr      c
1746 cb1c      rr      h
1748 cb1d      rr      l
174a 10f8      djnz    1744h
174c d1        pop     de
174d 7a        ld      a,d
174e cb3f      srl     a
1750 cb3f      srl     a
1752 cb3f      srl     a
1754 cb3f      srl     a
1756 ca6617    jp      z,1766h
1759 47        ld      b,a
175a 0e00      ld      c,00h
175c 118813    ld      de,1388h
175f 19        add     hl,de
1760 d26417    jp      nc,1764h
1763 0c        inc     c
1764 10f9      djnz    175fh
1766 0604      ld      b,04h
1768 cb19      rr      c
176a cb1c      rr      h
176c cb1d      rr      l
176e 10f8      djnz    1768h
1770 11e803    ld      de,03e8h
1773 0e00      ld      c,00h
1775 37        scf     
1776 3f        ccf     
1777 ed52      sbc     hl,de
1779 da8017    jp      c,1780h
177c 0c        inc     c
177d c37517    jp      1775h
1780 19        add     hl,de
1781 79        ld      a,c
1782 0604      ld      b,04h
1784 cd0a15    call    150ah
1787 116400    ld      de,0064h
178a 0e00      ld      c,00h
178c 37        scf     
178d 3f        ccf     
178e ed52      sbc     hl,de
1790 da9717    jp      c,1797h
1793 0c        inc     c
1794 c38c17    jp      178ch
1797 19        add     hl,de
1798 79        ld      a,c
1799 0603      ld      b,03h
179b cd0a15    call    150ah
179e 110a00    ld      de,000ah
17a1 0e00      ld      c,00h
17a3 37        scf     
17a4 3f        ccf     
17a5 ed52      sbc     hl,de
17a7 daae17    jp      c,17aeh
17aa 0c        inc     c
17ab c3a317    jp      17a3h
17ae 19        add     hl,de
17af 79        ld      a,c
17b0 0602      ld      b,02h
17b2 cd0a15    call    150ah
17b5 7d        ld      a,l
17b6 0601      ld      b,01h
17b8 cd0a15    call    150ah
17bb 3e0a      ld      a,0ah
17bd 0605      ld      b,05h
17bf cd0a15    call    150ah
17c2 c9        ret     

17c3 3e00      ld      a,00h
17c5 0610      ld      b,10h
17c7 cd3115    call    1531h
17ca 3e21      ld      a,21h
17cc 0611      ld      b,11h
17ce cd3115    call    1531h
17d1 321580    ld      (8015h),a
17d4 3e30      ld      a,30h
17d6 0612      ld      b,12h
17d8 cd3115    call    1531h
17db 321680    ld      (8016h),a
17de 3e00      ld      a,00h
17e0 0680      ld      b,80h
17e2 cd3115    call    1531h
17e5 3e01      ld      a,01h
17e7 cddd01    call    01ddh
17ea 3e12      ld      a,12h
17ec 0613      ld      b,13h
17ee cd3115    call    1531h
17f1 321780    ld      (8017h),a
17f4 3e01      ld      a,01h
17f6 cddd01    call    01ddh
17f9 3e02      ld      a,02h
17fb 0613      ld      b,13h
17fd cd3115    call    1531h
1800 321780    ld      (8017h),a
1803 c9        ret     

1804 3e00      ld      a,00h
1806 328680    ld      (8086h),a
1809 3e02      ld      a,02h
180b cdd507    call    07d5h
180e 3a8280    ld      a,(8082h)
1811 47        ld      b,a
1812 3e27      ld      a,27h
1814 328680    ld      (8086h),a
1817 78        ld      a,b
1818 e604      and     04h
181a ca2518    jp      z,1825h
181d 3e00      ld      a,00h
181f 322680    ld      (8026h),a
1822 c32a18    jp      182ah
1825 3e40      ld      a,40h
1827 322680    ld      (8026h),a
182a c9        ret     

182b af        xor     a
182c d3bb      out     (0bbh),a
182e 3e55      ld      a,55h
1830 fe55      cp      55h
1832 c2be18    jp      nz,18beh
1835 47        ld      b,a
1836 4f        ld      c,a
1837 57        ld      d,a
1838 5f        ld      e,a
1839 dd210000  ld      ix,0000h
183d fd210000  ld      iy,0000h
1841 210000    ld      hl,0000h
1844 09        add     hl,bc
1845 dd09      add     ix,bc
1847 fd09      add     iy,bc
1849 ed47      ld      i,a
184b ed57      ld      a,i
184d b7        or      a
184e ddf9      ld      sp,ix
1850 ed72      sbc     hl,sp
1852 c2be18    jp      nz,18beh
1855 fdf9      ld      sp,iy
1857 39        add     hl,sp
1858 ed42      sbc     hl,bc
185a c2be18    jp      nz,18beh
185d 19        add     hl,de
185e 94        sub     h
185f c2be18    jp      nz,18beh
1862 7c        ld      a,h
1863 95        sub     l
1864 c2be18    jp      nz,18beh
1867 7d        ld      a,l
1868 fe55      cp      55h
186a c27718    jp      nz,1877h
186d 3eaa      ld      a,0aah
186f feaa      cp      0aah
1871 c2be18    jp      nz,18beh
1874 c33518    jp      1835h
1877 d9        exx     
1878 08        ex      af,af'
1879 3e55      ld      a,55h
187b fe55      cp      55h
187d c2be18    jp      nz,18beh
1880 47        ld      b,a
1881 4f        ld      c,a
1882 57        ld      d,a
1883 5f        ld      e,a
1884 dd210000  ld      ix,0000h
1888 fd210000  ld      iy,0000h
188c 210000    ld      hl,0000h
188f 09        add     hl,bc
1890 dd09      add     ix,bc
1892 fd09      add     iy,bc
1894 b7        or      a
1895 ddf9      ld      sp,ix
1897 ed72      sbc     hl,sp
1899 c2be18    jp      nz,18beh
189c fdf9      ld      sp,iy
189e 39        add     hl,sp
189f ed42      sbc     hl,bc
18a1 c2be18    jp      nz,18beh
18a4 19        add     hl,de
18a5 94        sub     h
18a6 c2be18    jp      nz,18beh
18a9 7c        ld      a,h
18aa 95        sub     l
18ab c2be18    jp      nz,18beh
18ae 7d        ld      a,l
18af fe55      cp      55h
18b1 c2c318    jp      nz,18c3h
18b4 3eaa      ld      a,0aah
18b6 feaa      cp      0aah
18b8 c2be18    jp      nz,18beh
18bb c38018    jp      1880h
18be 1e01      ld      e,01h
18c0 c3e618    jp      18e6h
18c3 210080    ld      hl,8000h
18c6 0680      ld      b,80h
18c8 3e01      ld      a,01h
18ca 4f        ld      c,a
18cb 77        ld      (hl),a
18cc 7e        ld      a,(hl)
18cd b9        cp      c
18ce c2de18    jp      nz,18deh
18d1 07        rlca    
18d2 4f        ld      c,a
18d3 fe01      cp      01h
18d5 c2cb18    jp      nz,18cbh
18d8 23        inc     hl
18d9 10ed      djnz    18c8h
18db c34819    jp      1948h
18de 1e02      ld      e,02h
18e0 cdb11a    call    1ab1h
18e3 c34819    jp      1948h
18e6 317f80    ld      sp,807fh
18e9 21a715    ld      hl,15a7h
18ec e5        push    hl
18ed 0605      ld      b,05h
18ef 0e48      ld      c,48h
18f1 214319    ld      hl,1943h
18f4 56        ld      d,(hl)
18f5 af        xor     a
18f6 328780    ld      (8087h),a
18f9 328180    ld      (8081h),a
18fc 3eff      ld      a,0ffh
18fe 328480    ld      (8084h),a
1901 328580    ld      (8085h),a
1904 328280    ld      (8082h),a
1907 3e27      ld      a,27h
1909 328680    ld      (8086h),a
190c 79        ld      a,c
190d 328180    ld      (8081h),a
1910 3e04      ld      a,04h
1912 3d        dec     a
1913 c21219    jp      nz,1912h
1916 3e01      ld      a,01h
1918 328a80    ld      (808ah),a
191b 7a        ld      a,d
191c 328080    ld      (8080h),a
191f 3e0a      ld      a,0ah
1921 3d        dec     a
1922 c22119    jp      nz,1921h
1925 3e01      ld      a,01h
1927 328e80    ld      (808eh),a
192a 3e04      ld      a,04h
192c 3d        dec     a
192d c22c19    jp      nz,192ch
1930 3e00      ld      a,00h
1932 328480    ld      (8084h),a
1935 328180    ld      (8081h),a
1938 0c        inc     c
1939 23        inc     hl
193a 10b8      djnz    18f4h
193c 214819    ld      hl,1948h
193f e5        push    hl
1940 c30116    jp      1601h
1943 212a20    ld      hl,202ah
1946 25        dec     h
1947 2a317f    ld      hl,(7f31h)
194a 80        add     a,b
194b 21a715    ld      hl,15a7h
194e e5        push    hl
194f 2100c0    ld      hl,0c000h
1952 0600      ld      b,00h
1954 7e        ld      a,(hl)
1955 57        ld      d,a
1956 cd6119    call    1961h
1959 7a        ld      a,d
195a 77        ld      (hl),a
195b 23        inc     hl
195c 10f6      djnz    1954h
195e c37d19    jp      197dh
1961 3e01      ld      a,01h
1963 4f        ld      c,a
1964 77        ld      (hl),a
1965 7e        ld      a,(hl)
1966 e60f      and     0fh
1968 b9        cp      c
1969 c27419    jp      nz,1974h
196c 07        rlca    
196d 4f        ld      c,a
196e fe10      cp      10h
1970 c26419    jp      nz,1964h
1973 c9        ret     

1974 e1        pop     hl
1975 3e03      ld      a,03h
1977 cdb11a    call    1ab1h
197a c37d19    jp      197dh
197d 3ac0c0    ld      a,(0c0c0h)
1980 57        ld      d,a
1981 3a00c0    ld      a,(0c000h)
1984 5f        ld      e,a
1985 3e05      ld      a,05h
1987 32c0c0    ld      (0c0c0h),a
198a 3e00      ld      a,00h
198c 32c000    ld      (00c0h),a
198f 32c040    ld      (40c0h),a
1992 32c080    ld      (80c0h),a
1995 d3c0      out     (0c0h),a
1997 3ac0c0    ld      a,(0c0c0h)
199a e60f      and     0fh
199c fe05      cp      05h
199e c2c419    jp      nz,19c4h
19a1 3e55      ld      a,55h
19a3 320080    ld      (8000h),a
19a6 3e00      ld      a,00h
19a8 320000    ld      (0000h),a
19ab 320040    ld      (4000h),a
19ae 3200c0    ld      (0c000h),a
19b1 7a        ld      a,d
19b2 32c0c0    ld      (0c0c0h),a
19b5 7b        ld      a,e
19b6 3200c0    ld      (0c000h),a
19b9 3a0080    ld      a,(8000h)
19bc fe55      cp      55h
19be c2c419    jp      nz,19c4h
19c1 c3cc19    jp      19cch
19c4 3e04      ld      a,04h
19c6 cdb11a    call    1ab1h
19c9 c3cc19    jp      19cch
19cc 3e00      ld      a,00h
19ce 328780    ld      (8087h),a
19d1 328180    ld      (8081h),a
19d4 3eff      ld      a,0ffh
19d6 328580    ld      (8085h),a
19d9 0e01      ld      c,01h
19db 3eff      ld      a,0ffh
19dd 328480    ld      (8084h),a
19e0 79        ld      a,c
19e1 328080    ld      (8080h),a
19e4 060a      ld      b,0ah
19e6 10fe      djnz    19e6h
19e8 3e00      ld      a,00h
19ea 328480    ld      (8084h),a
19ed 3a8080    ld      a,(8080h)
19f0 b9        cp      c
19f1 c2fe19    jp      nz,19feh
19f4 07        rlca    
19f5 4f        ld      c,a
19f6 fe01      cp      01h
19f8 c2db19    jp      nz,19dbh
19fb c30a1a    jp      1a0ah
19fe 57        ld      d,a
19ff 214319    ld      hl,1943h
1a02 3e05      ld      a,05h
1a04 cdb11a    call    1ab1h
1a07 c30a1a    jp      1a0ah
1a0a 0e01      ld      c,01h
1a0c 3e0f      ld      a,0fh
1a0e 328580    ld      (8085h),a
1a11 79        ld      a,c
1a12 328180    ld      (8081h),a
1a15 060a      ld      b,0ah
1a17 10fe      djnz    1a17h
1a19 3e00      ld      a,00h
1a1b 328580    ld      (8085h),a
1a1e 3a8180    ld      a,(8081h)
1a21 e60f      and     0fh
1a23 b9        cp      c
1a24 c2311a    jp      nz,1a31h
1a27 07        rlca    
1a28 4f        ld      c,a
1a29 fe10      cp      10h
1a2b c20c1a    jp      nz,1a0ch
1a2e c33d1a    jp      1a3dh
1a31 57        ld      d,a
1a32 214319    ld      hl,1943h
1a35 3e06      ld      a,06h
1a37 cdb11a    call    1ab1h
1a3a c33d1a    jp      1a3dh
1a3d 3e20      ld      a,20h
1a3f 328680    ld      (8086h),a
1a42 3e00      ld      a,00h
1a44 329880    ld      (8098h),a
1a47 329980    ld      (8099h),a
1a4a 3e05      ld      a,05h
1a4c 329880    ld      (8098h),a
1a4f 329980    ld      (8099h),a
1a52 3e05      ld      a,05h
1a54 329080    ld      (8090h),a
1a57 329280    ld      (8092h),a
1a5a 3e0d      ld      a,0dh
1a5c 329180    ld      (8091h),a
1a5f 329380    ld      (8093h),a
1a62 06ff      ld      b,0ffh
1a64 329580    ld      (8095h),a
1a67 10fe      djnz    1a67h
1a69 3a9080    ld      a,(8090h)
1a6c 4f        ld      c,a
1a6d 3a9180    ld      a,(8091h)
1a70 47        ld      b,a
1a71 b7        or      a
1a72 c2801a    jp      nz,1a80h
1a75 79        ld      a,c
1a76 fe10      cp      10h
1a78 f2801a    jp      p,1a80h
1a7b fe0a      cp      0ah
1a7d f28b1a    jp      p,1a8bh
1a80 3e07      ld      a,07h
1a82 214319    ld      hl,1943h
1a85 cdb11a    call    1ab1h
1a88 c38b1a    jp      1a8bh
1a8b 06ff      ld      b,0ffh
1a8d 329780    ld      (8097h),a
1a90 10fe      djnz    1a90h
1a92 329680    ld      (8096h),a
1a95 3a9280    ld      a,(8092h)
1a98 4f        ld      c,a
1a99 3a9380    ld      a,(8093h)
1a9c 47        ld      b,a
1a9d b7        or      a
1a9e c2ab1a    jp      nz,1aabh
1aa1 79        ld      a,c
1aa2 fe10      cp      10h
1aa4 f2ab1a    jp      p,1aabh
1aa7 79        ld      a,c
1aa8 fe0a      cp      0ah
1aaa f0        ret     p

1aab 3e08      ld      a,08h
1aad cdb11a    call    1ab1h
1ab0 c9        ret     

1ab1 214319    ld      hl,1943h
1ab4 c3cc15    jp      15cch
1ab7 3e00      ld      a,00h
1ab9 329880    ld      (8098h),a
1abc 3eff      ld      a,0ffh
1abe 328580    ld      (8085h),a
1ac1 3ed0      ld      a,0d0h
1ac3 328180    ld      (8081h),a
1ac6 3e00      ld      a,00h
1ac8 328180    ld      (8081h),a
1acb 3e08      ld      a,08h
1acd d3bb      out     (0bbh),a
1acf fd21ec1a  ld      iy,1aech
1ad3 fb        ei      
1ad4 00        nop     
1ad5 fd21f21a  ld      iy,1af2h
1ad9 3e80      ld      a,80h
1adb 329880    ld      (8098h),a
1ade 3e00      ld      a,00h
1ae0 329880    ld      (8098h),a
1ae3 0610      ld      b,10h
1ae5 10fe      djnz    1ae5h
1ae7 3e02      ld      a,02h
1ae9 c3051b    jp      1b05h
1aec e1        pop     hl
1aed 3e01      ld      a,01h
1aef c3051b    jp      1b05h
1af2 e1        pop     hl
1af3 3ed0      ld      a,0d0h
1af5 328180    ld      (8081h),a
1af8 3e00      ld      a,00h
1afa 328180    ld      (8081h),a
1afd fd21ec1a  ld      iy,1aech
1b01 fb        ei      
1b02 c3121b    jp      1b12h
1b05 f3        di      
1b06 5f        ld      e,a
1b07 3e00      ld      a,00h
1b09 d3bb      out     (0bbh),a
1b0b 7b        ld      a,e
1b0c cd7e1b    call    1b7eh
1b0f c3171b    jp      1b17h
1b12 f3        di      
1b13 3e00      ld      a,00h
1b15 d3bb      out     (0bbh),a
1b17 3eff      ld      a,0ffh
1b19 328680    ld      (8086h),a
1b1c 328280    ld      (8082h),a
1b1f 0613      ld      b,13h
1b21 cd8e0c    call    0c8eh
1b24 3e04      ld      a,04h
1b26 d3bb      out     (0bbh),a
1b28 dd21431b  ld      ix,1b43h
1b2c fb        ei      
1b2d 00        nop     
1b2e dd21491b  ld      ix,1b49h
1b32 3e02      ld      a,02h
1b34 328a80    ld      (808ah),a
1b37 328e80    ld      (808eh),a
1b3a 0610      ld      b,10h
1b3c 10fe      djnz    1b3ch
1b3e 3e04      ld      a,04h
1b40 c3621b    jp      1b62h
1b43 e1        pop     hl
1b44 3e03      ld      a,03h
1b46 c3621b    jp      1b62h
1b49 e1        pop     hl
1b4a 78        ld      a,b
1b4b c6fb      add     a,0fbh
1b4d fa551b    jp      m,1b55h
1b50 3e04      ld      a,04h
1b52 c3621b    jp      1b62h
1b55 0613      ld      b,13h
1b57 cd8e0c    call    0c8eh
1b5a dd21431b  ld      ix,1b43h
1b5e fb        ei      
1b5f c3711b    jp      1b71h
1b62 f3        di      
1b63 5f        ld      e,a
1b64 3e00      ld      a,00h
1b66 d3bb      out     (0bbh),a
1b68 0613      ld      b,13h
1b6a cd8e0c    call    0c8eh
1b6d 7b        ld      a,e
1b6e cd7e1b    call    1b7eh
1b71 f3        di      
1b72 3e00      ld      a,00h
1b74 d3bb      out     (0bbh),a
1b76 c3841b    jp      1b84h
1b79 212a20    ld      hl,202ah
1b7c 262a      ld      h,2ah
1b7e 21791b    ld      hl,1b79h
1b81 c3cc15    jp      15cch
1b84 c9        ret     

1b85 3e04      ld      a,04h
1b87 d3bb      out     (0bbh),a
1b89 dd21f116  ld      ix,16f1h
1b8d 3eff      ld      a,0ffh
1b8f 328580    ld      (8085h),a
1b92 3e27      ld      a,27h
1b94 328680    ld      (8086h),a
1b97 0625      ld      b,25h
1b99 16ff      ld      d,0ffh
1b9b 1e6b      ld      e,6bh
1b9d cdf416    call    16f4h
1ba0 d2a91b    jp      nc,1ba9h
1ba3 57        ld      d,a
1ba4 3e12      ld      a,12h
1ba6 cdd11b    call    1bd1h
1ba9 3e11      ld      a,11h
1bab 0611      ld      b,11h
1bad cd3115    call    1531h
1bb0 0600      ld      b,00h
1bb2 16ff      ld      d,0ffh
1bb4 1e78      ld      e,78h
1bb6 cdf416    call    16f4h
1bb9 d2d71b    jp      nc,1bd7h
1bbc 57        ld      d,a
1bbd 3e01      ld      a,01h
1bbf 0611      ld      b,11h
1bc1 cd3115    call    1531h
1bc4 3e28      ld      a,28h
1bc6 cdd11b    call    1bd1h
1bc9 c3d71b    jp      1bd7h
1bcc 262a      ld      h,2ah
1bce 262a      ld      h,2ah
1bd0 2621      ld      h,21h
1bd2 cc1bc3    call    z,0c31bh
1bd5 cc153e    call    z,3e15h
1bd8 010611    ld      bc,1106h
1bdb cd3115    call    1531h
1bde c9        ret     

1bdf 3e04      ld      a,04h
1be1 d3bb      out     (0bbh),a
1be3 dd21f116  ld      ix,16f1h
1be7 3eff      ld      a,0ffh
1be9 328580    ld      (8085h),a
1bec 3e27      ld      a,27h
1bee 328680    ld      (8086h),a
1bf1 063e      ld      b,3eh
1bf3 16db      ld      d,0dbh
1bf5 1e80      ld      e,80h
1bf7 3e02      ld      a,02h
1bf9 cdb316    call    16b3h
1bfc cdf416    call    16f4h
1bff d2081c    jp      nc,1c08h
1c02 57        ld      d,a
1c03 3e05      ld      a,05h
1c05 cd571c    call    1c57h
1c08 063d      ld      b,3dh
1c0a 16e3      ld      d,0e3h
1c0c 1e81      ld      e,81h
1c0e 3e04      ld      a,04h
1c10 cdb316    call    16b3h
1c13 cdf416    call    16f4h
1c16 d21f1c    jp      nc,1c1fh
1c19 57        ld      d,a
1c1a 3e18      ld      a,18h
1c1c cd571c    call    1c57h
1c1f 0627      ld      b,27h
1c21 16ac      ld      d,0ach
1c23 1e7e      ld      e,7eh
1c25 cdf416    call    16f4h
1c28 d2311c    jp      nc,1c31h
1c2b 57        ld      d,a
1c2c 3e15      ld      a,15h
1c2e cd571c    call    1c57h
1c31 3e21      ld      a,21h
1c33 0611      ld      b,11h
1c35 cd3115    call    1531h
1c38 063f      ld      b,3fh
1c3a 16d1      ld      d,0d1h
1c3c 1e82      ld      e,82h
1c3e 3e02      ld      a,02h
1c40 cdb316    call    16b3h
1c43 cdf416    call    16f4h
1c46 d25d1c    jp      nc,1c5dh
1c49 57        ld      d,a
1c4a 3e57      ld      a,57h
1c4c cd571c    call    1c57h
1c4f c35d1c    jp      1c5dh
1c52 212a20    ld      hl,202ah
1c55 29        add     hl,hl
1c56 2a2152    ld      hl,(5221h)
1c59 1c        inc     e
1c5a c3cc15    jp      15cch
1c5d c9        ret     

1c5e af        xor     a
1c5f d3bb      out     (0bbh),a
1c61 3e14      ld      a,14h
1c63 0680      ld      b,80h
1c65 cd3115    call    1531h
1c68 3e01      ld      a,01h
1c6a cdd507    call    07d5h
1c6d 3e00      ld      a,00h
1c6f 0680      ld      b,80h
1c71 cd3115    call    1531h
1c74 3e21      ld      a,21h
1c76 0611      ld      b,11h
1c78 cd3115    call    1531h
1c7b 3e00      ld      a,00h
1c7d 329880    ld      (8098h),a
1c80 3e05      ld      a,05h
1c82 329880    ld      (8098h),a
1c85 3e05      ld      a,05h
1c87 329080    ld      (8090h),a
1c8a 3e0d      ld      a,0dh
1c8c 329180    ld      (8091h),a
1c8f 329580    ld      (8095h),a
1c92 cd981c    call    1c98h
1c95 c3da1c    jp      1cdah
1c98 216602    ld      hl,0266h
1c9b 0612      ld      b,12h
1c9d cd8e0c    call    0c8eh
1ca0 cb47      bit     0,a
1ca2 c2b11c    jp      nz,1cb1h
1ca5 2b        dec     hl
1ca6 7c        ld      a,h
1ca7 b5        or      l
1ca8 c29b1c    jp      nz,1c9bh
1cab 3e01      ld      a,01h
1cad e1        pop     hl
1cae c36e1d    jp      1d6eh
1cb1 3e0d      ld      a,0dh
1cb3 0680      ld      b,80h
1cb5 cd3115    call    1531h
1cb8 3e01      ld      a,01h
1cba cdd507    call    07d5h
1cbd 3e01      ld      a,01h
1cbf 0680      ld      b,80h
1cc1 cd3115    call    1531h
1cc4 26ff      ld      h,0ffh
1cc6 0612      ld      b,12h
1cc8 cd8e0c    call    0c8eh
1ccb cb47      bit     0,a
1ccd c8        ret     z

1cce 25        dec     h
1ccf 7c        ld      a,h
1cd0 b7        or      a
1cd1 c2c61c    jp      nz,1cc6h
1cd4 3e02      ld      a,02h
1cd6 e1        pop     hl
1cd7 c36e1d    jp      1d6eh
1cda 3e00      ld      a,00h
1cdc 0680      ld      b,80h
1cde cd3115    call    1531h
1ce1 216602    ld      hl,0266h
1ce4 0612      ld      b,12h
1ce6 cd8e0c    call    0c8eh
1ce9 cb47      bit     0,a
1ceb c2f91c    jp      nz,1cf9h
1cee 2b        dec     hl
1cef 7c        ld      a,h
1cf0 b5        or      l
1cf1 c2e41c    jp      nz,1ce4h
1cf4 3e03      ld      a,03h
1cf6 c36e1d    jp      1d6eh
1cf9 3e0b      ld      a,0bh
1cfb 0680      ld      b,80h
1cfd cd3115    call    1531h
1d00 3e01      ld      a,01h
1d02 cdd507    call    07d5h
1d05 3e01      ld      a,01h
1d07 0680      ld      b,80h
1d09 cd3115    call    1531h
1d0c 3e20      ld      a,20h
1d0e cdd507    call    07d5h
1d11 0612      ld      b,12h
1d13 cd8e0c    call    0c8eh
1d16 cb47      bit     0,a
1d18 c2201d    jp      nz,1d20h
1d1b 3e04      ld      a,04h
1d1d c36e1d    jp      1d6eh
1d20 cd981c    call    1c98h
1d23 3e10      ld      a,10h
1d25 0680      ld      b,80h
1d27 cd3115    call    1531h
1d2a 3e01      ld      a,01h
1d2c cdd507    call    07d5h
1d2f 3e00      ld      a,00h
1d31 0680      ld      b,80h
1d33 cd3115    call    1531h
1d36 216602    ld      hl,0266h
1d39 0612      ld      b,12h
1d3b cd8e0c    call    0c8eh
1d3e cb47      bit     0,a
1d40 c2711d    jp      nz,1d71h
1d43 2b        dec     hl
1d44 7c        ld      a,h
1d45 b5        or      l
1d46 c2391d    jp      nz,1d39h
1d49 3e05      ld      a,05h
1d4b c36e1d    jp      1d6eh
1d4e 212a20    ld      hl,202ah
1d51 27        daa     
1d52 2af53e    ld      hl,(3ef5h)
1d55 14        inc     d
1d56 0680      ld      b,80h
1d58 cd3115    call    1531h
1d5b 3e01      ld      a,01h
1d5d cdd507    call    07d5h
1d60 3e00      ld      a,00h
1d62 0680      ld      b,80h
1d64 cd3115    call    1531h
1d67 f1        pop     af
1d68 214e1d    ld      hl,1d4eh
1d6b c3cc15    jp      15cch
1d6e cd531d    call    1d53h
1d71 3e14      ld      a,14h
1d73 0680      ld      b,80h
1d75 cd3115    call    1531h
1d78 3e01      ld      a,01h
1d7a cdd507    call    07d5h
1d7d 3e00      ld      a,00h
1d7f 0680      ld      b,80h
1d81 cd3115    call    1531h
1d84 c9        ret     

1d85 3e00      ld      a,00h
1d87 328780    ld      (8087h),a
1d8a 328480    ld      (8084h),a
1d8d 328180    ld      (8081h),a
1d90 3eff      ld      a,0ffh
1d92 328580    ld      (8085h),a
1d95 328280    ld      (8082h),a
1d98 3e27      ld      a,27h
1d9a 328680    ld      (8086h),a
1d9d 0643      ld      b,43h
1d9f cd8e0c    call    0c8eh
1da2 cb5f      bit     3,a
1da4 c0        ret     nz

1da5 210000    ld      hl,0000h
1da8 110000    ld      de,0000h
1dab 010000    ld      bc,0000h
1dae 0a        ld      a,(bc)
1daf 5f        ld      e,a
1db0 19        add     hl,de
1db1 03        inc     bc
1db2 3e40      ld      a,40h
1db4 b8        cp      b
1db5 c2ae1d    jp      nz,1daeh
1db8 7d        ld      a,l
1db9 e607      and     07h
1dbb 0601      ld      b,01h
1dbd cd0a15    call    150ah
1dc0 cded1d    call    1dedh
1dc3 0602      ld      b,02h
1dc5 cd0a15    call    150ah
1dc8 cded1d    call    1dedh
1dcb 0603      ld      b,03h
1dcd cd0a15    call    150ah
1dd0 cded1d    call    1dedh
1dd3 0604      ld      b,04h
1dd5 cd0a15    call    150ah
1dd8 cded1d    call    1dedh
1ddb 47        ld      b,a
1ddc cded1d    call    1dedh
1ddf 80        add     a,b
1de0 0605      ld      b,05h
1de2 cd0a15    call    150ah
1de5 3e14      ld      a,14h
1de7 cddd01    call    01ddh
1dea c3fd1d    jp      1dfdh
1ded cb3c      srl     h
1def cb1d      rr      l
1df1 cb3c      srl     h
1df3 cb1d      rr      l
1df5 cb3c      srl     h
1df7 cb1d      rr      l
1df9 7d        ld      a,l
1dfa e607      and     07h
1dfc c9        ret     

1dfd 00        nop     
1dfe cd221e    call    1e22h
1e01 0601      ld      b,01h
1e03 3e20      ld      a,20h
1e05 cd0a15    call    150ah
1e08 f5        push    af
1e09 3e02      ld      a,02h
1e0b cddd01    call    01ddh
1e0e f1        pop     af
1e0f 3c        inc     a
1e10 fe2b      cp      2bh
1e12 c2051e    jp      nz,1e05h
1e15 04        inc     b
1e16 78        ld      a,b
1e17 fe06      cp      06h
1e19 c2031e    jp      nz,1e03h
1e1c cd221e    call    1e22h
1e1f c32c1e    jp      1e2ch
1e22 0605      ld      b,05h
1e24 3e2a      ld      a,2ah
1e26 cd0a15    call    150ah
1e29 10fb      djnz    1e26h
1e2b c9        ret     

1e2c 0642      ld      b,42h
1e2e cd8e0c    call    0c8eh
1e31 0e20      ld      c,20h
1e33 e63f      and     3fh
1e35 fe3f      cp      3fh
1e37 ca461e    jp      z,1e46h
1e3a 0e21      ld      c,21h
1e3c cb47      bit     0,a
1e3e ca461e    jp      z,1e46h
1e41 0f        rrca    
1e42 0c        inc     c
1e43 c33c1e    jp      1e3ch
1e46 79        ld      a,c
1e47 0601      ld      b,01h
1e49 cd0a15    call    150ah
1e4c 0641      ld      b,41h
1e4e cd8e0c    call    0c8eh
1e51 0e20      ld      c,20h
1e53 47        ld      b,a
1e54 e60f      and     0fh
1e56 fe0f      cp      0fh
1e58 ca671e    jp      z,1e67h
1e5b 0e21      ld      c,21h
1e5d cb47      bit     0,a
1e5f ca671e    jp      z,1e67h
1e62 0f        rrca    
1e63 0c        inc     c
1e64 c35d1e    jp      1e5dh
1e67 78        ld      a,b
1e68 cb67      bit     4,a
1e6a c26e1e    jp      nz,1e6eh
1e6d 0c        inc     c
1e6e 79        ld      a,c
1e6f 0602      ld      b,02h
1e71 cd0a15    call    150ah
1e74 0643      ld      b,43h
1e76 cd8e0c    call    0c8eh
1e79 0e20      ld      c,20h
1e7b e60f      and     0fh
1e7d fe0f      cp      0fh
1e7f ca8e1e    jp      z,1e8eh
1e82 0e21      ld      c,21h
1e84 cb47      bit     0,a
1e86 ca8e1e    jp      z,1e8eh
1e89 0f        rrca    
1e8a 0c        inc     c
1e8b c3841e    jp      1e84h
1e8e 79        ld      a,c
1e8f 0603      ld      b,03h
1e91 cd0a15    call    150ah
1e94 0640      ld      b,40h
1e96 cd8e0c    call    0c8eh
1e99 0e20      ld      c,20h
1e9b 47        ld      b,a
1e9c e61f      and     1fh
1e9e fe1f      cp      1fh
1ea0 caae1e    jp      z,1eaeh
1ea3 cb47      bit     0,a
1ea5 caae1e    jp      z,1eaeh
1ea8 0f        rrca    
1ea9 0c        inc     c
1eaa 0c        inc     c
1eab c3a31e    jp      1ea3h
1eae 78        ld      a,b
1eaf cb6f      bit     5,a
1eb1 cab51e    jp      z,1eb5h
1eb4 0c        inc     c
1eb5 79        ld      a,c
1eb6 0604      ld      b,04h
1eb8 cd0a15    call    150ah
1ebb 0e20      ld      c,20h
1ebd 0641      ld      b,41h
1ebf cd8e0c    call    0c8eh
1ec2 cb6f      bit     5,a
1ec4 c2c81e    jp      nz,1ec8h
1ec7 0c        inc     c
1ec8 0643      ld      b,43h
1eca cd8e0c    call    0c8eh
1ecd cb67      bit     4,a
1ecf c2d31e    jp      nz,1ed3h
1ed2 0c        inc     c
1ed3 79        ld      a,c
1ed4 0605      ld      b,05h
1ed6 cd0a15    call    150ah
1ed9 3e02      ld      a,02h
1edb cddd01    call    01ddh
1ede c32c1e    jp      1e2ch
1ee1 214721    ld      hl,2147h
1ee4 0650      ld      b,50h
1ee6 16bb      ld      d,0bbh
1ee8 1e99      ld      e,99h
1eea 3e04      ld      a,04h
1eec cdb316    call    16b3h
1eef cdf416    call    16f4h
1ef2 d2fb1e    jp      nc,1efbh
1ef5 57        ld      d,a
1ef6 3e05      ld      a,05h
1ef8 cda320    call    20a3h
1efb 23        inc     hl
1efc 7e        ld      a,(hl)
1efd feff      cp      0ffh
1eff ca2d21    jp      z,212dh
1f02 320b80    ld      (800bh),a
1f05 23        inc     hl
1f06 7e        ld      a,(hl)
1f07 320c80    ld      (800ch),a
1f0a 23        inc     hl
1f0b 7e        ld      a,(hl)
1f0c 320d80    ld      (800dh),a
1f0f 23        inc     hl
1f10 e5        push    hl
1f11 cd9d13    call    139dh
1f14 e1        pop     hl
1f15 3e02      ld      a,02h
1f17 cddd01    call    01ddh
1f1a 3e01      ld      a,01h
1f1c 0651      ld      b,51h
1f1e cdb316    call    16b3h
1f21 0656      ld      b,56h
1f23 16ff      ld      d,0ffh
1f25 1e33      ld      e,33h
1f27 cdf416    call    16f4h
1f2a d2331f    jp      nc,1f33h
1f2d 57        ld      d,a
1f2e 3e01      ld      a,01h
1f30 cda320    call    20a3h
1f33 3e01      ld      a,01h
1f35 0651      ld      b,51h
1f37 cdb316    call    16b3h
1f3a 0657      ld      b,57h
1f3c 16ff      ld      d,0ffh
1f3e 1e0a      ld      e,0ah
1f40 cdf416    call    16f4h
1f43 d24c1f    jp      nc,1f4ch
1f46 57        ld      d,a
1f47 3e02      ld      a,02h
1f49 cda320    call    20a3h
1f4c 0638      ld      b,38h
1f4e 16ff      ld      d,0ffh
1f50 1e19      ld      e,19h
1f52 3e04      ld      a,04h
1f54 cdb316    call    16b3h
1f57 cdf416    call    16f4h
1f5a d2631f    jp      nc,1f63h
1f5d 57        ld      d,a
1f5e 3e01      ld      a,01h
1f60 cdb120    call    20b1h
1f63 3e01      ld      a,01h
1f65 0621      ld      b,21h
1f67 cd3115    call    1531h
1f6a 3e07      ld      a,07h
1f6c 0611      ld      b,11h
1f6e cd3115    call    1531h
1f71 06b2      ld      b,0b2h
1f73 16ff      ld      d,0ffh
1f75 1e19      ld      e,19h
1f77 3e04      ld      a,04h
1f79 cdb316    call    16b3h
1f7c cdf416    call    16f4h
1f7f d2881f    jp      nc,1f88h
1f82 57        ld      d,a
1f83 3e01      ld      a,01h
1f85 cdbf20    call    20bfh
1f88 3e06      ld      a,06h
1f8a cdd507    call    07d5h
1f8d 06b3      ld      b,0b3h
1f8f 16ff      ld      d,0ffh
1f91 1eb3      ld      e,0b3h
1f93 cdf416    call    16f4h
1f96 d29f1f    jp      nc,1f9fh
1f99 57        ld      d,a
1f9a 3e02      ld      a,02h
1f9c cdbf20    call    20bfh
1f9f 06b0      ld      b,0b0h
1fa1 16d7      ld      d,0d7h
1fa3 1e0f      ld      e,0fh
1fa5 3e04      ld      a,04h
1fa7 cdb316    call    16b3h
1faa cdf416    call    16f4h
1fad d2b61f    jp      nc,1fb6h
1fb0 57        ld      d,a
1fb1 3e03      ld      a,03h
1fb3 cdbf20    call    20bfh
1fb6 3e03      ld      a,03h
1fb8 0611      ld      b,11h
1fba cd3115    call    1531h
1fbd 3e01      ld      a,01h
1fbf cdd507    call    07d5h
1fc2 3e01      ld      a,01h
1fc4 0611      ld      b,11h
1fc6 cd3115    call    1531h
1fc9 3a2680    ld      a,(8026h)
1fcc cb77      bit     6,a
1fce c2fb1e    jp      nz,1efbh
1fd1 3e02      ld      a,02h
1fd3 0e0a      ld      c,0ah
1fd5 cd0217    call    1702h
1fd8 3e22      ld      a,22h
1fda 0613      ld      b,13h
1fdc cd3115    call    1531h
1fdf 3e00      ld      a,00h
1fe1 0621      ld      b,21h
1fe3 cd3115    call    1531h
1fe6 3e07      ld      a,07h
1fe8 0611      ld      b,11h
1fea cd3115    call    1531h
1fed 3e01      ld      a,01h
1fef cddd01    call    01ddh
1ff2 06b1      ld      b,0b1h
1ff4 cd3115    call    1531h
1ff7 3e0f      ld      a,0fh
1ff9 0611      ld      b,11h
1ffb cd3115    call    1531h
1ffe 3e01      ld      a,01h
2000 0e03      ld      c,03h
2002 cd0217    call    1702h
2005 0600      ld      b,00h
2007 16ff      ld      d,0ffh
2009 1e4c      ld      e,4ch
200b 3e04      ld      a,04h
200d cdb316    call    16b3h
2010 cdf416    call    16f4h
2013 d21c20    jp      nc,201ch
2016 57        ld      d,a
2017 3e01      ld      a,01h
2019 cdd220    call    20d2h
201c 3e01      ld      a,01h
201e 0e04      ld      c,04h
2020 cd0217    call    1702h
2023 0600      ld      b,00h
2025 169a      ld      d,9ah
2027 1e33      ld      e,33h
2029 cdf416    call    16f4h
202c d23520    jp      nc,2035h
202f 57        ld      d,a
2030 3e02      ld      a,02h
2032 cdd220    call    20d2h
2035 cd0d21    call    210dh
2038 3e02      ld      a,02h
203a 0613      ld      b,13h
203c cd3115    call    1531h
203f 3e01      ld      a,01h
2041 0e05      ld      c,05h
2043 cd0217    call    1702h
2046 0600      ld      b,00h
2048 16ff      ld      d,0ffh
204a 1e29      ld      e,29h
204c 3e04      ld      a,04h
204e cdb316    call    16b3h
2051 cdf416    call    16f4h
2054 d25d20    jp      nc,205dh
2057 57        ld      d,a
2058 3e01      ld      a,01h
205a cdf320    call    20f3h
205d 3e01      ld      a,01h
205f 0e06      ld      c,06h
2061 cd0217    call    1702h
2064 0600      ld      b,00h
2066 16ff      ld      d,0ffh
2068 1e29      ld      e,29h
206a 3e04      ld      a,04h
206c cdb316    call    16b3h
206f cdf416    call    16f4h
2072 d27b20    jp      nc,207bh
2075 57        ld      d,a
2076 3e02      ld      a,02h
2078 cdf320    call    20f3h
207b 3e01      ld      a,01h
207d 0e07      ld      c,07h
207f cd0217    call    1702h
2082 0600      ld      b,00h
2084 16ff      ld      d,0ffh
2086 1e29      ld      e,29h
2088 3e04      ld      a,04h
208a cdb316    call    16b3h
208d cdf416    call    16f4h
2090 d29920    jp      nc,2099h
2093 57        ld      d,a
2094 3e03      ld      a,03h
2096 cdf320    call    20f3h
2099 3e02      ld      a,02h
209b 0e00      ld      c,00h
209d cd0217    call    1702h
20a0 c3fb1e    jp      1efbh
20a3 c1        pop     bc
20a4 b6        or      (hl)
20a5 d5        push    de
20a6 d9        exx     
20a7 d1        pop     de
20a8 212e21    ld      hl,212eh
20ab cdcc15    call    15cch
20ae d9        exx     
20af c5        push    bc
20b0 c9        ret     

20b1 c1        pop     bc
20b2 b6        or      (hl)
20b3 d5        push    de
20b4 d9        exx     
20b5 d1        pop     de
20b6 213321    ld      hl,2133h
20b9 cdcc15    call    15cch
20bc d9        exx     
20bd c5        push    bc
20be c9        ret     

20bf f5        push    af
20c0 cd0d21    call    210dh
20c3 f1        pop     af
20c4 c1        pop     bc
20c5 b6        or      (hl)
20c6 d5        push    de
20c7 d9        exx     
20c8 d1        pop     de
20c9 213821    ld      hl,2138h
20cc cdcc15    call    15cch
20cf d9        exx     
20d0 c5        push    bc
20d1 c9        ret     

20d2 f5        push    af
20d3 3e02      ld      a,02h
20d5 0613      ld      b,13h
20d7 cd3115    call    1531h
20da cd0d21    call    210dh
20dd 3e02      ld      a,02h
20df 0e00      ld      c,00h
20e1 cd0217    call    1702h
20e4 f1        pop     af
20e5 c1        pop     bc
20e6 b6        or      (hl)
20e7 d5        push    de
20e8 d9        exx     
20e9 d1        pop     de
20ea 213d21    ld      hl,213dh
20ed cdcc15    call    15cch
20f0 d9        exx     
20f1 c5        push    bc
20f2 c9        ret     

20f3 f5        push    af
20f4 cd0d21    call    210dh
20f7 3e02      ld      a,02h
20f9 0e00      ld      c,00h
20fb cd0217    call    1702h
20fe f1        pop     af
20ff c1        pop     bc
2100 b6        or      (hl)
2101 d5        push    de
2102 d9        exx     
2103 d1        pop     de
2104 214221    ld      hl,2142h
2107 cdcc15    call    15cch
210a d9        exx     
210b c5        push    bc
210c c9        ret     

210d 3e07      ld      a,07h
210f 0611      ld      b,11h
2111 cd3115    call    1531h
2114 3e01      ld      a,01h
2116 cdd507    call    07d5h
2119 3e03      ld      a,03h
211b 0611      ld      b,11h
211d cd3115    call    1531h
2120 3e01      ld      a,01h
2122 cdd507    call    07d5h
2125 3e01      ld      a,01h
2127 0611      ld      b,11h
2129 cd3115    call    1531h
212c c9        ret     

212d c9        ret     

212e 212a20    ld      hl,202ah
2131 24        inc     h
2132 2a212a    ld      hl,(2a21h)
2135 2022      jr      nz,2159h
2137 2a212a    ld      hl,(2a21h)
213a 21212a    ld      hl,2a21h
213d 222a20    ld      (202ah),hl
2140 23        inc     hl
2141 2a222a    ld      hl,(2a22h)
2144 2024      jr      nz,216ah
2146 2a0030    ld      hl,(3000h)
2149 010010    ld      bc,1000h
214c 43        ld      b,e
214d 00        nop     
214e 00        nop     
214f 3041      jr      nc,2192h
2151 00        nop     
2152 00        nop     
2153 2075      jr      nz,21cah
2155 09        add     hl,bc
2156 75        ld      (hl),l
2157 60        ld      h,b
2158 60        ld      h,b
2159 09        add     hl,bc
215a 75        ld      (hl),l
215b 40        ld      b,b
215c 61        ld      h,c
215d 010050    ld      bc,5000h
2160 ff        rst     38h
2161 f5        push    af
2162 d5        push    de
2163 0600      ld      b,00h
2165 cdbd16    call    16bdh
2168 57        ld      d,a
2169 cd2b17    call    172bh
216c 3e05      ld      a,05h
216e cddd01    call    01ddh
2171 0643      ld      b,43h
2173 cd8e0c    call    0c8eh
2176 cb57      bit     2,a
2178 c26321    jp      nz,2163h
217b d1        pop     de
217c f1        pop     af
217d c9        ret     

217e 3a2680    ld      a,(8026h)
2181 cb77      bit     6,a
2183 c0        ret     nz

2184 0615      ld      b,15h
2186 21b321    ld      hl,21b3h
2189 7e        ld      a,(hl)
218a c5        push    bc
218b 23        inc     hl
218c 4e        ld      c,(hl)
218d 23        inc     hl
218e cd0217    call    1702h
2191 0610      ld      b,10h
2193 cd8e0c    call    0c8eh
2196 c1        pop     bc
2197 e61f      and     1fh
2199 be        cp      (hl)
219a c2a321    jp      nz,21a3h
219d 23        inc     hl
219e 10e9      djnz    2189h
21a0 c3f221    jp      21f2h
21a3 57        ld      d,a
21a4 78        ld      a,b
21a5 e607      and     07h
21a7 4f        ld      c,a
21a8 78        ld      a,b
21a9 e618      and     18h
21ab 07        rlca    
21ac b1        or      c
21ad cd5b22    call    225bh
21b0 c3f221    jp      21f2h
21b3 05        dec     b
21b4 00        nop     
21b5 00        nop     
21b6 05        dec     b
21b7 02        ld      (bc),a
21b8 02        ld      (bc),a
21b9 05        dec     b
21ba 04        inc     b
21bb 04        inc     b
21bc 05        dec     b
21bd 08        ex      af,af'
21be 08        ex      af,af'
21bf 05        dec     b
21c0 1010      djnz    21d2h
21c2 0a        ld      a,(bc)
21c3 00        nop     
21c4 07        rlca    
21c5 0a        ld      a,(bc)
21c6 01060a    ld      bc,0a06h
21c9 02        ld      (bc),a
21ca 05        dec     b
21cb 0a        ld      a,(bc)
21cc 04        inc     b
21cd 03        inc     bc
21ce 0a        ld      a,(bc)
21cf 08        ex      af,af'
21d0 17        rla     
21d1 0a        ld      a,(bc)
21d2 100f      djnz    21e3h
21d4 0c        inc     c
21d5 00        nop     
21d6 010c11    ld      bc,110ch
21d9 110c02    ld      de,020ch
21dc 010c03    ld      bc,030ch
21df 02        ld      (bc),a
21e0 0c        inc     c
21e1 04        inc     b
21e2 02        ld      (bc),a
21e3 0c        inc     c
21e4 08        ex      af,af'
21e5 0a        ld      a,(bc)
21e6 0c        inc     c
21e7 09        add     hl,bc
21e8 0a        ld      a,(bc)
21e9 0c        inc     c
21ea 0a        ld      a,(bc)
21eb 0c        inc     c
21ec 0c        inc     c
21ed 0b        dec     bc
21ee 0c        inc     c
21ef 0c        inc     c
21f0 0c        inc     c
21f1 0c        inc     c
21f2 0609      ld      b,09h
21f4 212922    ld      hl,2229h
21f7 4e        ld      c,(hl)
21f8 3e05      ld      a,05h
21fa cd0217    call    1702h
21fd 23        inc     hl
21fe 4e        ld      c,(hl)
21ff 3e0a      ld      a,0ah
2201 cd0217    call    1702h
2204 23        inc     hl
2205 4e        ld      c,(hl)
2206 3e0c      ld      a,0ch
2208 cd0217    call    1702h
220b 23        inc     hl
220c 56        ld      d,(hl)
220d 23        inc     hl
220e 5e        ld      e,(hl)
220f c5        push    bc
2210 0600      ld      b,00h
2212 cdf416    call    16f4h
2215 57        ld      d,a
2216 c1        pop     bc
2217 da2022    jp      c,2220h
221a 23        inc     hl
221b 10da      djnz    21f7h
221d c37022    jp      2270h
2220 78        ld      a,b
2221 f640      or      40h
2223 cd5b22    call    225bh
2226 c37022    jp      2270h
2229 00        nop     
222a 04        inc     b
222b 00        nop     
222c ff        rst     38h
222d 75        ld      (hl),l
222e 010400    ld      bc,0004h
2231 1000      djnz    2233h
2233 010410    ld      bc,1004h
2236 ff        rst     38h
2237 75        ld      (hl),l
2238 02        ld      (bc),a
2239 04        inc     b
223a 00        nop     
223b ff        rst     38h
223c 75        ld      (hl),l
223d 03        inc     bc
223e 04        inc     b
223f 01ff75    ld      bc,75ffh
2242 04        inc     b
2243 04        inc     b
2244 02        ld      (bc),a
2245 ff        rst     38h
2246 75        ld      (hl),l
2247 05        dec     b
2248 04        inc     b
2249 03        inc     bc
224a ff        rst     38h
224b 75        ld      (hl),l
224c 0604      ld      b,04h
224e 04        inc     b
224f ff        rst     38h
2250 75        ld      (hl),l
2251 07        rlca    
2252 04        inc     b
2253 00        nop     
2254 ff        rst     38h
2255 75        ld      (hl),l
2256 222a20    ld      (202ah),hl
2259 25        dec     h
225a 2af53e    ld      hl,(3ef5h)
225d 02        ld      (bc),a
225e 0e00      ld      c,00h
2260 cd0217    call    1702h
2263 f1        pop     af
2264 c1        pop     bc
2265 d5        push    de
2266 d9        exx     
2267 d1        pop     de
2268 215622    ld      hl,2256h
226b cdcc15    call    15cch
226e d9        exx     
226f c5        push    bc
2270 3e02      ld      a,02h
2272 0e00      ld      c,00h
2274 cd0217    call    1702h
2277 c9        ret     

2278 3a2680    ld      a,(8026h)
227b cb77      bit     6,a
227d c0        ret     nz

227e 0e00      ld      c,00h
2280 3e01      ld      a,01h
2282 cd0217    call    1702h
2285 0e01      ld      c,01h
2287 3e02      ld      a,02h
2289 cd0217    call    1702h
228c 0600      ld      b,00h
228e 16ae      ld      d,0aeh
2290 1e85      ld      e,85h
2292 cdf416    call    16f4h
2295 d29e22    jp      nc,229eh
2298 57        ld      d,a
2299 3e12      ld      a,12h
229b cd1223    call    2312h
229e 0e02      ld      c,02h
22a0 3e01      ld      a,01h
22a2 cd0217    call    1702h
22a5 0e01      ld      c,01h
22a7 3e02      ld      a,02h
22a9 cd0217    call    1702h
22ac 0600      ld      b,00h
22ae 16ff      ld      d,0ffh
22b0 1e66      ld      e,66h
22b2 cdf416    call    16f4h
22b5 d2be22    jp      nc,22beh
22b8 57        ld      d,a
22b9 3e28      ld      a,28h
22bb cd1223    call    2312h
22be 0e03      ld      c,03h
22c0 3e01      ld      a,01h
22c2 cd0217    call    1702h
22c5 0e09      ld      c,09h
22c7 3e02      ld      a,02h
22c9 cd0217    call    1702h
22cc 3e22      ld      a,22h
22ce 0613      ld      b,13h
22d0 cd3115    call    1531h
22d3 0600      ld      b,00h
22d5 16ff      ld      d,0ffh
22d7 1e80      ld      e,80h
22d9 cdf416    call    16f4h
22dc d2e522    jp      nc,22e5h
22df 57        ld      d,a
22e0 3e10      ld      a,10h
22e2 cd1223    call    2312h
22e5 0e03      ld      c,03h
22e7 3e01      ld      a,01h
22e9 cd0217    call    1702h
22ec 0e01      ld      c,01h
22ee 3e02      ld      a,02h
22f0 cd0217    call    1702h
22f3 3e02      ld      a,02h
22f5 0613      ld      b,13h
22f7 cd3115    call    1531h
22fa 0600      ld      b,00h
22fc 1610      ld      d,10h
22fe 1e00      ld      e,00h
2300 cdf416    call    16f4h
2303 d23d23    jp      nc,233dh
2306 57        ld      d,a
2307 3e01      ld      a,01h
2309 cd2e23    call    232eh
230c c9        ret     

230d 222a20    ld      (202ah),hl
2310 212af5    ld      hl,0f52ah
2313 3e02      ld      a,02h
2315 0e00      ld      c,00h
2317 cd0217    call    1702h
231a 3e02      ld      a,02h
231c 0613      ld      b,13h
231e cd3115    call    1531h
2321 f1        pop     af
2322 210d23    ld      hl,230dh
2325 c3cc15    jp      15cch
2328 c9        ret     

2329 222a20    ld      (202ah),hl
232c 222af5    ld      (0f52ah),hl
232f 3e02      ld      a,02h
2331 0e00      ld      c,00h
2333 cd0217    call    1702h
2336 f1        pop     af
2337 212923    ld      hl,2329h
233a c3cc15    jp      15cch
233d 3e02      ld      a,02h
233f 0e00      ld      c,00h
2341 cd0217    call    1702h
2344 c9        ret     

2345 ff        rst     38h
2346 ff        rst     38h
2347 ff        rst     38h
2348 ff        rst     38h
2349 ff        rst     38h
234a ff        rst     38h
234b ff        rst     38h
234c ff        rst     38h
234d ff        rst     38h
234e ff        rst     38h
234f ff        rst     38h
2350 ff        rst     38h
2351 ff        rst     38h
2352 ff        rst     38h
2353 ff        rst     38h
2354 ff        rst     38h
2355 ff        rst     38h
2356 ff        rst     38h
2357 ff        rst     38h
2358 ff        rst     38h
2359 ff        rst     38h
235a ff        rst     38h
235b ff        rst     38h
235c ff        rst     38h
235d ff        rst     38h
235e ff        rst     38h
235f ff        rst     38h
2360 ff        rst     38h
2361 ff        rst     38h
2362 ff        rst     38h
2363 ff        rst     38h
2364 ff        rst     38h
2365 ff        rst     38h
2366 ff        rst     38h
2367 ff        rst     38h
2368 ff        rst     38h
2369 ff        rst     38h
236a ff        rst     38h
236b ff        rst     38h
236c ff        rst     38h
236d ff        rst     38h
236e ff        rst     38h
236f ff        rst     38h
2370 ff        rst     38h
2371 ff        rst     38h
2372 ff        rst     38h
2373 ff        rst     38h
2374 ff        rst     38h
2375 ff        rst     38h
2376 ff        rst     38h
2377 ff        rst     38h
2378 ff        rst     38h
2379 ff        rst     38h
237a ff        rst     38h
237b ff        rst     38h
237c ff        rst     38h
237d ff        rst     38h
237e ff        rst     38h
237f ff        rst     38h
2380 ff        rst     38h
2381 ff        rst     38h
2382 ff        rst     38h
2383 ff        rst     38h
2384 ff        rst     38h
2385 ff        rst     38h
2386 ff        rst     38h
2387 ff        rst     38h
2388 ff        rst     38h
2389 ff        rst     38h
238a ff        rst     38h
238b ff        rst     38h
238c ff        rst     38h
238d ff        rst     38h
238e ff        rst     38h
238f ff        rst     38h
2390 ff        rst     38h
2391 ff        rst     38h
2392 ff        rst     38h
2393 ff        rst     38h
2394 ff        rst     38h
2395 ff        rst     38h
2396 ff        rst     38h
2397 ff        rst     38h
2398 ff        rst     38h
2399 ff        rst     38h
239a ff        rst     38h
239b ff        rst     38h
239c ff        rst     38h
239d ff        rst     38h
239e ff        rst     38h
239f ff        rst     38h
23a0 ff        rst     38h
23a1 ff        rst     38h
23a2 ff        rst     38h
23a3 ff        rst     38h
23a4 ff        rst     38h
23a5 ff        rst     38h
23a6 ff        rst     38h
23a7 ff        rst     38h
23a8 ff        rst     38h
23a9 ff        rst     38h
23aa ff        rst     38h
23ab ff        rst     38h
23ac ff        rst     38h
23ad ff        rst     38h
23ae ff        rst     38h
23af ff        rst     38h
23b0 ff        rst     38h
23b1 ff        rst     38h
23b2 ff        rst     38h
23b3 ff        rst     38h
23b4 ff        rst     38h
23b5 ff        rst     38h
23b6 ff        rst     38h
23b7 ff        rst     38h
23b8 ff        rst     38h
23b9 ff        rst     38h
23ba ff        rst     38h
23bb ff        rst     38h
23bc ff        rst     38h
23bd ff        rst     38h
23be ff        rst     38h
23bf ff        rst     38h
23c0 ff        rst     38h
23c1 ff        rst     38h
23c2 ff        rst     38h
23c3 ff        rst     38h
23c4 ff        rst     38h
23c5 ff        rst     38h
23c6 ff        rst     38h
23c7 ff        rst     38h
23c8 ff        rst     38h
23c9 ff        rst     38h
23ca ff        rst     38h
23cb ff        rst     38h
23cc ff        rst     38h
23cd ff        rst     38h
23ce ff        rst     38h
23cf ff        rst     38h
23d0 ff        rst     38h
23d1 ff        rst     38h
23d2 ff        rst     38h
23d3 ff        rst     38h
23d4 ff        rst     38h
23d5 ff        rst     38h
23d6 ff        rst     38h
23d7 ff        rst     38h
23d8 ff        rst     38h
23d9 ff        rst     38h
23da ff        rst     38h
23db ff        rst     38h
23dc ff        rst     38h
23dd ff        rst     38h
23de ff        rst     38h
23df ff        rst     38h
23e0 ff        rst     38h
23e1 ff        rst     38h
23e2 ff        rst     38h
23e3 ff        rst     38h
23e4 ff        rst     38h
23e5 ff        rst     38h
23e6 ff        rst     38h
23e7 ff        rst     38h
23e8 ff        rst     38h
23e9 ff        rst     38h
23ea ff        rst     38h
23eb ff        rst     38h
23ec ff        rst     38h
23ed ff        rst     38h
23ee ff        rst     38h
23ef ff        rst     38h
23f0 ff        rst     38h
23f1 ff        rst     38h
23f2 ff        rst     38h
23f3 ff        rst     38h
23f4 ff        rst     38h
23f5 ff        rst     38h
23f6 ff        rst     38h
23f7 ff        rst     38h
23f8 ff        rst     38h
23f9 ff        rst     38h
23fa ff        rst     38h
23fb ff        rst     38h
23fc ff        rst     38h
23fd ff        rst     38h
23fe ff        rst     38h
23ff ff        rst     38h
2400 ff        rst     38h
2401 ff        rst     38h
2402 ff        rst     38h
2403 ff        rst     38h
2404 ff        rst     38h
2405 ff        rst     38h
2406 ff        rst     38h
2407 ff        rst     38h
2408 ff        rst     38h
2409 ff        rst     38h
240a ff        rst     38h
240b ff        rst     38h
240c ff        rst     38h
240d ff        rst     38h
240e ff        rst     38h
240f ff        rst     38h
2410 ff        rst     38h
2411 ff        rst     38h
2412 ff        rst     38h
2413 ff        rst     38h
2414 ff        rst     38h
2415 ff        rst     38h
2416 ff        rst     38h
2417 ff        rst     38h
2418 ff        rst     38h
2419 ff        rst     38h
241a ff        rst     38h
241b ff        rst     38h
241c ff        rst     38h
241d ff        rst     38h
241e ff        rst     38h
241f ff        rst     38h
2420 ff        rst     38h
2421 ff        rst     38h
2422 ff        rst     38h
2423 ff        rst     38h
2424 ff        rst     38h
2425 ff        rst     38h
2426 ff        rst     38h
2427 ff        rst     38h
2428 ff        rst     38h
2429 ff        rst     38h
242a ff        rst     38h
242b ff        rst     38h
242c ff        rst     38h
242d ff        rst     38h
242e ff        rst     38h
242f ff        rst     38h
2430 ff        rst     38h
2431 ff        rst     38h
2432 ff        rst     38h
2433 ff        rst     38h
2434 ff        rst     38h
2435 ff        rst     38h
2436 ff        rst     38h
2437 ff        rst     38h
2438 ff        rst     38h
2439 ff        rst     38h
243a ff        rst     38h
243b ff        rst     38h
243c ff        rst     38h
243d ff        rst     38h
243e ff        rst     38h
243f ff        rst     38h
2440 ff        rst     38h
2441 ff        rst     38h
2442 ff        rst     38h
2443 ff        rst     38h
2444 ff        rst     38h
2445 ff        rst     38h
2446 ff        rst     38h
2447 ff        rst     38h
2448 ff        rst     38h
2449 ff        rst     38h
244a ff        rst     38h
244b ff        rst     38h
244c ff        rst     38h
244d ff        rst     38h
244e ff        rst     38h
244f ff        rst     38h
2450 ff        rst     38h
2451 ff        rst     38h
2452 ff        rst     38h
2453 ff        rst     38h
2454 ff        rst     38h
2455 ff        rst     38h
2456 ff        rst     38h
2457 ff        rst     38h
2458 ff        rst     38h
2459 ff        rst     38h
245a ff        rst     38h
245b ff        rst     38h
245c ff        rst     38h
245d ff        rst     38h
245e ff        rst     38h
245f ff        rst     38h
2460 ff        rst     38h
2461 ff        rst     38h
2462 ff        rst     38h
2463 ff        rst     38h
2464 ff        rst     38h
2465 ff        rst     38h
2466 ff        rst     38h
2467 ff        rst     38h
2468 ff        rst     38h
2469 ff        rst     38h
246a ff        rst     38h
246b ff        rst     38h
246c ff        rst     38h
246d ff        rst     38h
246e ff        rst     38h
246f ff        rst     38h
2470 ff        rst     38h
2471 ff        rst     38h
2472 ff        rst     38h
2473 ff        rst     38h
2474 ff        rst     38h
2475 ff        rst     38h
2476 ff        rst     38h
2477 ff        rst     38h
2478 ff        rst     38h
2479 ff        rst     38h
247a ff        rst     38h
247b ff        rst     38h
247c ff        rst     38h
247d ff        rst     38h
247e ff        rst     38h
247f ff        rst     38h
2480 ff        rst     38h
2481 ff        rst     38h
2482 ff        rst     38h
2483 ff        rst     38h
2484 ff        rst     38h
2485 ff        rst     38h
2486 ff        rst     38h
2487 ff        rst     38h
2488 ff        rst     38h
2489 ff        rst     38h
248a ff        rst     38h
248b ff        rst     38h
248c ff        rst     38h
248d ff        rst     38h
248e ff        rst     38h
248f ff        rst     38h
2490 ff        rst     38h
2491 ff        rst     38h
2492 ff        rst     38h
2493 ff        rst     38h
2494 ff        rst     38h
2495 ff        rst     38h
2496 ff        rst     38h
2497 ff        rst     38h
2498 ff        rst     38h
2499 ff        rst     38h
249a ff        rst     38h
249b ff        rst     38h
249c ff        rst     38h
249d ff        rst     38h
249e ff        rst     38h
249f ff        rst     38h
24a0 ff        rst     38h
24a1 ff        rst     38h
24a2 ff        rst     38h
24a3 ff        rst     38h
24a4 ff        rst     38h
24a5 ff        rst     38h
24a6 ff        rst     38h
24a7 ff        rst     38h
24a8 ff        rst     38h
24a9 ff        rst     38h
24aa ff        rst     38h
24ab ff        rst     38h
24ac ff        rst     38h
24ad ff        rst     38h
24ae ff        rst     38h
24af ff        rst     38h
24b0 ff        rst     38h
24b1 ff        rst     38h
24b2 ff        rst     38h
24b3 ff        rst     38h
24b4 ff        rst     38h
24b5 ff        rst     38h
24b6 ff        rst     38h
24b7 ff        rst     38h
24b8 ff        rst     38h
24b9 ff        rst     38h
24ba ff        rst     38h
24bb ff        rst     38h
24bc ff        rst     38h
24bd ff        rst     38h
24be ff        rst     38h
24bf ff        rst     38h
24c0 ff        rst     38h
24c1 ff        rst     38h
24c2 ff        rst     38h
24c3 ff        rst     38h
24c4 ff        rst     38h
24c5 ff        rst     38h
24c6 ff        rst     38h
24c7 ff        rst     38h
24c8 ff        rst     38h
24c9 ff        rst     38h
24ca ff        rst     38h
24cb ff        rst     38h
24cc ff        rst     38h
24cd ff        rst     38h
24ce ff        rst     38h
24cf ff        rst     38h
24d0 ff        rst     38h
24d1 ff        rst     38h
24d2 ff        rst     38h
24d3 ff        rst     38h
24d4 ff        rst     38h
24d5 ff        rst     38h
24d6 ff        rst     38h
24d7 ff        rst     38h
24d8 ff        rst     38h
24d9 ff        rst     38h
24da ff        rst     38h
24db ff        rst     38h
24dc ff        rst     38h
24dd ff        rst     38h
24de ff        rst     38h
24df ff        rst     38h
24e0 ff        rst     38h
24e1 ff        rst     38h
24e2 ff        rst     38h
24e3 ff        rst     38h
24e4 ff        rst     38h
24e5 ff        rst     38h
24e6 ff        rst     38h
24e7 ff        rst     38h
24e8 ff        rst     38h
24e9 ff        rst     38h
24ea ff        rst     38h
24eb ff        rst     38h
24ec ff        rst     38h
24ed ff        rst     38h
24ee ff        rst     38h
24ef ff        rst     38h
24f0 ff        rst     38h
24f1 ff        rst     38h
24f2 ff        rst     38h
24f3 ff        rst     38h
24f4 ff        rst     38h
24f5 ff        rst     38h
24f6 ff        rst     38h
24f7 ff        rst     38h
24f8 ff        rst     38h
24f9 ff        rst     38h
24fa ff        rst     38h
24fb ff        rst     38h
24fc ff        rst     38h
24fd ff        rst     38h
24fe ff        rst     38h
24ff ff        rst     38h
2500 ff        rst     38h
2501 ff        rst     38h
2502 ff        rst     38h
2503 ff        rst     38h
2504 ff        rst     38h
2505 ff        rst     38h
2506 ff        rst     38h
2507 ff        rst     38h
2508 ff        rst     38h
2509 ff        rst     38h
250a ff        rst     38h
250b ff        rst     38h
250c ff        rst     38h
250d ff        rst     38h
250e ff        rst     38h
250f ff        rst     38h
2510 ff        rst     38h
2511 ff        rst     38h
2512 ff        rst     38h
2513 ff        rst     38h
2514 ff        rst     38h
2515 ff        rst     38h
2516 ff        rst     38h
2517 ff        rst     38h
2518 ff        rst     38h
2519 ff        rst     38h
251a ff        rst     38h
251b ff        rst     38h
251c ff        rst     38h
251d ff        rst     38h
251e ff        rst     38h
251f ff        rst     38h
2520 ff        rst     38h
2521 ff        rst     38h
2522 ff        rst     38h
2523 ff        rst     38h
2524 ff        rst     38h
2525 ff        rst     38h
2526 ff        rst     38h
2527 ff        rst     38h
2528 ff        rst     38h
2529 ff        rst     38h
252a ff        rst     38h
252b ff        rst     38h
252c ff        rst     38h
252d ff        rst     38h
252e ff        rst     38h
252f ff        rst     38h
2530 ff        rst     38h
2531 ff        rst     38h
2532 ff        rst     38h
2533 ff        rst     38h
2534 ff        rst     38h
2535 ff        rst     38h
2536 ff        rst     38h
2537 ff        rst     38h
2538 ff        rst     38h
2539 ff        rst     38h
253a ff        rst     38h
253b ff        rst     38h
253c ff        rst     38h
253d ff        rst     38h
253e ff        rst     38h
253f ff        rst     38h
2540 ff        rst     38h
2541 ff        rst     38h
2542 ff        rst     38h
2543 ff        rst     38h
2544 ff        rst     38h
2545 ff        rst     38h
2546 ff        rst     38h
2547 ff        rst     38h
2548 ff        rst     38h
2549 ff        rst     38h
254a ff        rst     38h
254b ff        rst     38h
254c ff        rst     38h
254d ff        rst     38h
254e ff        rst     38h
254f ff        rst     38h
2550 ff        rst     38h
2551 ff        rst     38h
2552 ff        rst     38h
2553 ff        rst     38h
2554 ff        rst     38h
2555 ff        rst     38h
2556 ff        rst     38h
2557 ff        rst     38h
2558 ff        rst     38h
2559 ff        rst     38h
255a ff        rst     38h
255b ff        rst     38h
255c ff        rst     38h
255d ff        rst     38h
255e ff        rst     38h
255f ff        rst     38h
2560 ff        rst     38h
2561 ff        rst     38h
2562 ff        rst     38h
2563 ff        rst     38h
2564 ff        rst     38h
2565 ff        rst     38h
2566 ff        rst     38h
2567 ff        rst     38h
2568 ff        rst     38h
2569 ff        rst     38h
256a ff        rst     38h
256b ff        rst     38h
256c ff        rst     38h
256d ff        rst     38h
256e ff        rst     38h
256f ff        rst     38h
2570 ff        rst     38h
2571 ff        rst     38h
2572 ff        rst     38h
2573 ff        rst     38h
2574 ff        rst     38h
2575 ff        rst     38h
2576 ff        rst     38h
2577 ff        rst     38h
2578 ff        rst     38h
2579 ff        rst     38h
257a ff        rst     38h
257b ff        rst     38h
257c ff        rst     38h
257d ff        rst     38h
257e ff        rst     38h
257f ff        rst     38h
2580 ff        rst     38h
2581 ff        rst     38h
2582 ff        rst     38h
2583 ff        rst     38h
2584 ff        rst     38h
2585 ff        rst     38h
2586 ff        rst     38h
2587 ff        rst     38h
2588 ff        rst     38h
2589 ff        rst     38h
258a ff        rst     38h
258b ff        rst     38h
258c ff        rst     38h
258d ff        rst     38h
258e ff        rst     38h
258f ff        rst     38h
2590 ff        rst     38h
2591 ff        rst     38h
2592 ff        rst     38h
2593 ff        rst     38h
2594 ff        rst     38h
2595 ff        rst     38h
2596 ff        rst     38h
2597 ff        rst     38h
2598 ff        rst     38h
2599 ff        rst     38h
259a ff        rst     38h
259b ff        rst     38h
259c ff        rst     38h
259d ff        rst     38h
259e ff        rst     38h
259f ff        rst     38h
25a0 ff        rst     38h
25a1 ff        rst     38h
25a2 ff        rst     38h
25a3 ff        rst     38h
25a4 ff        rst     38h
25a5 ff        rst     38h
25a6 ff        rst     38h
25a7 ff        rst     38h
25a8 ff        rst     38h
25a9 ff        rst     38h
25aa ff        rst     38h
25ab ff        rst     38h
25ac ff        rst     38h
25ad ff        rst     38h
25ae ff        rst     38h
25af ff        rst     38h
25b0 ff        rst     38h
25b1 ff        rst     38h
25b2 ff        rst     38h
25b3 ff        rst     38h
25b4 ff        rst     38h
25b5 ff        rst     38h
25b6 ff        rst     38h
25b7 ff        rst     38h
25b8 ff        rst     38h
25b9 ff        rst     38h
25ba ff        rst     38h
25bb ff        rst     38h
25bc ff        rst     38h
25bd ff        rst     38h
25be ff        rst     38h
25bf ff        rst     38h
25c0 ff        rst     38h
25c1 ff        rst     38h
25c2 ff        rst     38h
25c3 ff        rst     38h
25c4 ff        rst     38h
25c5 ff        rst     38h
25c6 ff        rst     38h
25c7 ff        rst     38h
25c8 ff        rst     38h
25c9 ff        rst     38h
25ca ff        rst     38h
25cb ff        rst     38h
25cc ff        rst     38h
25cd ff        rst     38h
25ce ff        rst     38h
25cf ff        rst     38h
25d0 ff        rst     38h
25d1 ff        rst     38h
25d2 ff        rst     38h
25d3 ff        rst     38h
25d4 ff        rst     38h
25d5 ff        rst     38h
25d6 ff        rst     38h
25d7 ff        rst     38h
25d8 ff        rst     38h
25d9 ff        rst     38h
25da ff        rst     38h
25db ff        rst     38h
25dc ff        rst     38h
25dd ff        rst     38h
25de ff        rst     38h
25df ff        rst     38h
25e0 ff        rst     38h
25e1 ff        rst     38h
25e2 ff        rst     38h
25e3 ff        rst     38h
25e4 ff        rst     38h
25e5 ff        rst     38h
25e6 ff        rst     38h
25e7 ff        rst     38h
25e8 ff        rst     38h
25e9 ff        rst     38h
25ea ff        rst     38h
25eb ff        rst     38h
25ec ff        rst     38h
25ed ff        rst     38h
25ee ff        rst     38h
25ef ff        rst     38h
25f0 ff        rst     38h
25f1 ff        rst     38h
25f2 ff        rst     38h
25f3 ff        rst     38h
25f4 ff        rst     38h
25f5 ff        rst     38h
25f6 ff        rst     38h
25f7 ff        rst     38h
25f8 ff        rst     38h
25f9 ff        rst     38h
25fa ff        rst     38h
25fb ff        rst     38h
25fc ff        rst     38h
25fd ff        rst     38h
25fe ff        rst     38h
25ff ff        rst     38h
2600 ff        rst     38h
2601 ff        rst     38h
2602 ff        rst     38h
2603 ff        rst     38h
2604 ff        rst     38h
2605 ff        rst     38h
2606 ff        rst     38h
2607 ff        rst     38h
2608 ff        rst     38h
2609 ff        rst     38h
260a ff        rst     38h
260b ff        rst     38h
260c ff        rst     38h
260d ff        rst     38h
260e ff        rst     38h
260f ff        rst     38h
2610 ff        rst     38h
2611 ff        rst     38h
2612 ff        rst     38h
2613 ff        rst     38h
2614 ff        rst     38h
2615 ff        rst     38h
2616 ff        rst     38h
2617 ff        rst     38h
2618 ff        rst     38h
2619 ff        rst     38h
261a ff        rst     38h
261b ff        rst     38h
261c ff        rst     38h
261d ff        rst     38h
261e ff        rst     38h
261f ff        rst     38h
2620 ff        rst     38h
2621 ff        rst     38h
2622 ff        rst     38h
2623 ff        rst     38h
2624 ff        rst     38h
2625 ff        rst     38h
2626 ff        rst     38h
2627 ff        rst     38h
2628 ff        rst     38h
2629 ff        rst     38h
262a ff        rst     38h
262b ff        rst     38h
262c ff        rst     38h
262d ff        rst     38h
262e ff        rst     38h
262f ff        rst     38h
2630 ff        rst     38h
2631 ff        rst     38h
2632 ff        rst     38h
2633 ff        rst     38h
2634 ff        rst     38h
2635 ff        rst     38h
2636 ff        rst     38h
2637 ff        rst     38h
2638 ff        rst     38h
2639 ff        rst     38h
263a ff        rst     38h
263b ff        rst     38h
263c ff        rst     38h
263d ff        rst     38h
263e ff        rst     38h
263f ff        rst     38h
2640 ff        rst     38h
2641 ff        rst     38h
2642 ff        rst     38h
2643 ff        rst     38h
2644 ff        rst     38h
2645 ff        rst     38h
2646 ff        rst     38h
2647 ff        rst     38h
2648 ff        rst     38h
2649 ff        rst     38h
264a ff        rst     38h
264b ff        rst     38h
264c ff        rst     38h
264d ff        rst     38h
264e ff        rst     38h
264f ff        rst     38h
2650 ff        rst     38h
2651 ff        rst     38h
2652 ff        rst     38h
2653 ff        rst     38h
2654 ff        rst     38h
2655 ff        rst     38h
2656 ff        rst     38h
2657 ff        rst     38h
2658 ff        rst     38h
2659 ff        rst     38h
265a ff        rst     38h
265b ff        rst     38h
265c ff        rst     38h
265d ff        rst     38h
265e ff        rst     38h
265f ff        rst     38h
2660 ff        rst     38h
2661 ff        rst     38h
2662 ff        rst     38h
2663 ff        rst     38h
2664 ff        rst     38h
2665 ff        rst     38h
2666 ff        rst     38h
2667 ff        rst     38h
2668 ff        rst     38h
2669 ff        rst     38h
266a ff        rst     38h
266b ff        rst     38h
266c ff        rst     38h
266d ff        rst     38h
266e ff        rst     38h
266f ff        rst     38h
2670 ff        rst     38h
2671 ff        rst     38h
2672 ff        rst     38h
2673 ff        rst     38h
2674 ff        rst     38h
2675 ff        rst     38h
2676 ff        rst     38h
2677 ff        rst     38h
2678 ff        rst     38h
2679 ff        rst     38h
267a ff        rst     38h
267b ff        rst     38h
267c ff        rst     38h
267d ff        rst     38h
267e ff        rst     38h
267f ff        rst     38h
2680 ff        rst     38h
2681 ff        rst     38h
2682 ff        rst     38h
2683 ff        rst     38h
2684 ff        rst     38h
2685 ff        rst     38h
2686 ff        rst     38h
2687 ff        rst     38h
2688 ff        rst     38h
2689 ff        rst     38h
268a ff        rst     38h
268b ff        rst     38h
268c ff        rst     38h
268d ff        rst     38h
268e ff        rst     38h
268f ff        rst     38h
2690 ff        rst     38h
2691 ff        rst     38h
2692 ff        rst     38h
2693 ff        rst     38h
2694 ff        rst     38h
2695 ff        rst     38h
2696 ff        rst     38h
2697 ff        rst     38h
2698 ff        rst     38h
2699 ff        rst     38h
269a ff        rst     38h
269b ff        rst     38h
269c ff        rst     38h
269d ff        rst     38h
269e ff        rst     38h
269f ff        rst     38h
26a0 ff        rst     38h
26a1 ff        rst     38h
26a2 ff        rst     38h
26a3 ff        rst     38h
26a4 ff        rst     38h
26a5 ff        rst     38h
26a6 ff        rst     38h
26a7 ff        rst     38h
26a8 ff        rst     38h
26a9 ff        rst     38h
26aa ff        rst     38h
26ab ff        rst     38h
26ac ff        rst     38h
26ad ff        rst     38h
26ae ff        rst     38h
26af ff        rst     38h
26b0 ff        rst     38h
26b1 ff        rst     38h
26b2 ff        rst     38h
26b3 ff        rst     38h
26b4 ff        rst     38h
26b5 ff        rst     38h
26b6 ff        rst     38h
26b7 ff        rst     38h
26b8 ff        rst     38h
26b9 ff        rst     38h
26ba ff        rst     38h
26bb ff        rst     38h
26bc ff        rst     38h
26bd ff        rst     38h
26be ff        rst     38h
26bf ff        rst     38h
26c0 ff        rst     38h
26c1 ff        rst     38h
26c2 ff        rst     38h
26c3 ff        rst     38h
26c4 ff        rst     38h
26c5 ff        rst     38h
26c6 ff        rst     38h
26c7 ff        rst     38h
26c8 ff        rst     38h
26c9 ff        rst     38h
26ca ff        rst     38h
26cb ff        rst     38h
26cc ff        rst     38h
26cd ff        rst     38h
26ce ff        rst     38h
26cf ff        rst     38h
26d0 ff        rst     38h
26d1 ff        rst     38h
26d2 ff        rst     38h
26d3 ff        rst     38h
26d4 ff        rst     38h
26d5 ff        rst     38h
26d6 ff        rst     38h
26d7 ff        rst     38h
26d8 ff        rst     38h
26d9 ff        rst     38h
26da ff        rst     38h
26db ff        rst     38h
26dc ff        rst     38h
26dd ff        rst     38h
26de ff        rst     38h
26df ff        rst     38h
26e0 ff        rst     38h
26e1 ff        rst     38h
26e2 ff        rst     38h
26e3 ff        rst     38h
26e4 ff        rst     38h
26e5 ff        rst     38h
26e6 ff        rst     38h
26e7 ff        rst     38h
26e8 ff        rst     38h
26e9 ff        rst     38h
26ea ff        rst     38h
26eb ff        rst     38h
26ec ff        rst     38h
26ed ff        rst     38h
26ee ff        rst     38h
26ef ff        rst     38h
26f0 ff        rst     38h
26f1 ff        rst     38h
26f2 ff        rst     38h
26f3 ff        rst     38h
26f4 ff        rst     38h
26f5 ff        rst     38h
26f6 ff        rst     38h
26f7 ff        rst     38h
26f8 ff        rst     38h
26f9 ff        rst     38h
26fa ff        rst     38h
26fb ff        rst     38h
26fc ff        rst     38h
26fd ff        rst     38h
26fe ff        rst     38h
26ff ff        rst     38h
2700 ff        rst     38h
2701 ff        rst     38h
2702 ff        rst     38h
2703 ff        rst     38h
2704 ff        rst     38h
2705 ff        rst     38h
2706 ff        rst     38h
2707 ff        rst     38h
2708 ff        rst     38h
2709 ff        rst     38h
270a ff        rst     38h
270b ff        rst     38h
270c ff        rst     38h
270d ff        rst     38h
270e ff        rst     38h
270f ff        rst     38h
2710 ff        rst     38h
2711 ff        rst     38h
2712 ff        rst     38h
2713 ff        rst     38h
2714 ff        rst     38h
2715 ff        rst     38h
2716 ff        rst     38h
2717 ff        rst     38h
2718 ff        rst     38h
2719 ff        rst     38h
271a ff        rst     38h
271b ff        rst     38h
271c ff        rst     38h
271d ff        rst     38h
271e ff        rst     38h
271f ff        rst     38h
2720 ff        rst     38h
2721 ff        rst     38h
2722 ff        rst     38h
2723 ff        rst     38h
2724 ff        rst     38h
2725 ff        rst     38h
2726 ff        rst     38h
2727 ff        rst     38h
2728 ff        rst     38h
2729 ff        rst     38h
272a ff        rst     38h
272b ff        rst     38h
272c ff        rst     38h
272d ff        rst     38h
272e ff        rst     38h
272f ff        rst     38h
2730 ff        rst     38h
2731 ff        rst     38h
2732 ff        rst     38h
2733 ff        rst     38h
2734 ff        rst     38h
2735 ff        rst     38h
2736 ff        rst     38h
2737 ff        rst     38h
2738 ff        rst     38h
2739 ff        rst     38h
273a ff        rst     38h
273b ff        rst     38h
273c ff        rst     38h
273d ff        rst     38h
273e ff        rst     38h
273f ff        rst     38h
2740 ff        rst     38h
2741 ff        rst     38h
2742 ff        rst     38h
2743 ff        rst     38h
2744 ff        rst     38h
2745 ff        rst     38h
2746 ff        rst     38h
2747 ff        rst     38h
2748 ff        rst     38h
2749 ff        rst     38h
274a ff        rst     38h
274b ff        rst     38h
274c ff        rst     38h
274d ff        rst     38h
274e ff        rst     38h
274f ff        rst     38h
2750 ff        rst     38h
2751 ff        rst     38h
2752 ff        rst     38h
2753 ff        rst     38h
2754 ff        rst     38h
2755 ff        rst     38h
2756 ff        rst     38h
2757 ff        rst     38h
2758 ff        rst     38h
2759 ff        rst     38h
275a ff        rst     38h
275b ff        rst     38h
275c ff        rst     38h
275d ff        rst     38h
275e ff        rst     38h
275f ff        rst     38h
2760 ff        rst     38h
2761 ff        rst     38h
2762 ff        rst     38h
2763 ff        rst     38h
2764 ff        rst     38h
2765 ff        rst     38h
2766 ff        rst     38h
2767 ff        rst     38h
2768 ff        rst     38h
2769 ff        rst     38h
276a ff        rst     38h
276b ff        rst     38h
276c ff        rst     38h
276d ff        rst     38h
276e ff        rst     38h
276f ff        rst     38h
2770 ff        rst     38h
2771 ff        rst     38h
2772 ff        rst     38h
2773 ff        rst     38h
2774 ff        rst     38h
2775 ff        rst     38h
2776 ff        rst     38h
2777 ff        rst     38h
2778 ff        rst     38h
2779 ff        rst     38h
277a ff        rst     38h
277b ff        rst     38h
277c ff        rst     38h
277d ff        rst     38h
277e ff        rst     38h
277f ff        rst     38h
2780 ff        rst     38h
2781 ff        rst     38h
2782 ff        rst     38h
2783 ff        rst     38h
2784 ff        rst     38h
2785 ff        rst     38h
2786 ff        rst     38h
2787 ff        rst     38h
2788 ff        rst     38h
2789 ff        rst     38h
278a ff        rst     38h
278b ff        rst     38h
278c ff        rst     38h
278d ff        rst     38h
278e ff        rst     38h
278f ff        rst     38h
2790 ff        rst     38h
2791 ff        rst     38h
2792 ff        rst     38h
2793 ff        rst     38h
2794 ff        rst     38h
2795 ff        rst     38h
2796 ff        rst     38h
2797 ff        rst     38h
2798 ff        rst     38h
2799 ff        rst     38h
279a ff        rst     38h
279b ff        rst     38h
279c ff        rst     38h
279d ff        rst     38h
279e ff        rst     38h
279f ff        rst     38h
27a0 ff        rst     38h
27a1 ff        rst     38h
27a2 ff        rst     38h
27a3 ff        rst     38h
27a4 ff        rst     38h
27a5 ff        rst     38h
27a6 ff        rst     38h
27a7 ff        rst     38h
27a8 ff        rst     38h
27a9 ff        rst     38h
27aa ff        rst     38h
27ab ff        rst     38h
27ac ff        rst     38h
27ad ff        rst     38h
27ae ff        rst     38h
27af ff        rst     38h
27b0 ff        rst     38h
27b1 ff        rst     38h
27b2 ff        rst     38h
27b3 ff        rst     38h
27b4 ff        rst     38h
27b5 ff        rst     38h
27b6 ff        rst     38h
27b7 ff        rst     38h
27b8 ff        rst     38h
27b9 ff        rst     38h
27ba ff        rst     38h
27bb ff        rst     38h
27bc ff        rst     38h
27bd ff        rst     38h
27be ff        rst     38h
27bf ff        rst     38h
27c0 ff        rst     38h
27c1 ff        rst     38h
27c2 ff        rst     38h
27c3 ff        rst     38h
27c4 ff        rst     38h
27c5 ff        rst     38h
27c6 ff        rst     38h
27c7 ff        rst     38h
27c8 ff        rst     38h
27c9 ff        rst     38h
27ca ff        rst     38h
27cb ff        rst     38h
27cc ff        rst     38h
27cd ff        rst     38h
27ce ff        rst     38h
27cf ff        rst     38h
27d0 ff        rst     38h
27d1 ff        rst     38h
27d2 ff        rst     38h
27d3 ff        rst     38h
27d4 ff        rst     38h
27d5 ff        rst     38h
27d6 ff        rst     38h
27d7 ff        rst     38h
27d8 ff        rst     38h
27d9 ff        rst     38h
27da ff        rst     38h
27db ff        rst     38h
27dc ff        rst     38h
27dd ff        rst     38h
27de ff        rst     38h
27df ff        rst     38h
27e0 ff        rst     38h
27e1 ff        rst     38h
27e2 ff        rst     38h
27e3 ff        rst     38h
27e4 ff        rst     38h
27e5 ff        rst     38h
27e6 ff        rst     38h
27e7 ff        rst     38h
27e8 ff        rst     38h
27e9 ff        rst     38h
27ea ff        rst     38h
27eb ff        rst     38h
27ec ff        rst     38h
27ed ff        rst     38h
27ee ff        rst     38h
27ef ff        rst     38h
27f0 ff        rst     38h
27f1 ff        rst     38h
27f2 ff        rst     38h
27f3 ff        rst     38h
27f4 ff        rst     38h
27f5 ff        rst     38h
27f6 ff        rst     38h
27f7 ff        rst     38h
27f8 ff        rst     38h
27f9 ff        rst     38h
27fa ff        rst     38h
27fb ff        rst     38h
27fc ff        rst     38h
27fd ff        rst     38h
27fe ff        rst     38h
27ff ff        rst     38h
2800 ff        rst     38h
2801 ff        rst     38h
2802 ff        rst     38h
2803 ff        rst     38h
2804 ff        rst     38h
2805 ff        rst     38h
2806 ff        rst     38h
2807 ff        rst     38h
2808 ff        rst     38h
2809 ff        rst     38h
280a ff        rst     38h
280b ff        rst     38h
280c ff        rst     38h
280d ff        rst     38h
280e ff        rst     38h
280f ff        rst     38h
2810 ff        rst     38h
2811 ff        rst     38h
2812 ff        rst     38h
2813 ff        rst     38h
2814 ff        rst     38h
2815 ff        rst     38h
2816 ff        rst     38h
2817 ff        rst     38h
2818 ff        rst     38h
2819 ff        rst     38h
281a ff        rst     38h
281b ff        rst     38h
281c ff        rst     38h
281d ff        rst     38h
281e ff        rst     38h
281f ff        rst     38h
2820 ff        rst     38h
2821 ff        rst     38h
2822 ff        rst     38h
2823 ff        rst     38h
2824 ff        rst     38h
2825 ff        rst     38h
2826 ff        rst     38h
2827 ff        rst     38h
2828 ff        rst     38h
2829 ff        rst     38h
282a ff        rst     38h
282b ff        rst     38h
282c ff        rst     38h
282d ff        rst     38h
282e ff        rst     38h
282f ff        rst     38h
2830 ff        rst     38h
2831 ff        rst     38h
2832 ff        rst     38h
2833 ff        rst     38h
2834 ff        rst     38h
2835 ff        rst     38h
2836 ff        rst     38h
2837 ff        rst     38h
2838 ff        rst     38h
2839 ff        rst     38h
283a ff        rst     38h
283b ff        rst     38h
283c ff        rst     38h
283d ff        rst     38h
283e ff        rst     38h
283f ff        rst     38h
2840 ff        rst     38h
2841 ff        rst     38h
2842 ff        rst     38h
2843 ff        rst     38h
2844 ff        rst     38h
2845 ff        rst     38h
2846 ff        rst     38h
2847 ff        rst     38h
2848 ff        rst     38h
2849 ff        rst     38h
284a ff        rst     38h
284b ff        rst     38h
284c ff        rst     38h
284d ff        rst     38h
284e ff        rst     38h
284f ff        rst     38h
2850 ff        rst     38h
2851 ff        rst     38h
2852 ff        rst     38h
2853 ff        rst     38h
2854 ff        rst     38h
2855 ff        rst     38h
2856 ff        rst     38h
2857 ff        rst     38h
2858 ff        rst     38h
2859 ff        rst     38h
285a ff        rst     38h
285b ff        rst     38h
285c ff        rst     38h
285d ff        rst     38h
285e ff        rst     38h
285f ff        rst     38h
2860 ff        rst     38h
2861 ff        rst     38h
2862 ff        rst     38h
2863 ff        rst     38h
2864 ff        rst     38h
2865 ff        rst     38h
2866 ff        rst     38h
2867 ff        rst     38h
2868 ff        rst     38h
2869 ff        rst     38h
286a ff        rst     38h
286b ff        rst     38h
286c ff        rst     38h
286d ff        rst     38h
286e ff        rst     38h
286f ff        rst     38h
2870 ff        rst     38h
2871 ff        rst     38h
2872 ff        rst     38h
2873 ff        rst     38h
2874 ff        rst     38h
2875 ff        rst     38h
2876 ff        rst     38h
2877 ff        rst     38h
2878 ff        rst     38h
2879 ff        rst     38h
287a ff        rst     38h
287b ff        rst     38h
287c ff        rst     38h
287d ff        rst     38h
287e ff        rst     38h
287f ff        rst     38h
2880 ff        rst     38h
2881 ff        rst     38h
2882 ff        rst     38h
2883 ff        rst     38h
2884 ff        rst     38h
2885 ff        rst     38h
2886 ff        rst     38h
2887 ff        rst     38h
2888 ff        rst     38h
2889 ff        rst     38h
288a ff        rst     38h
288b ff        rst     38h
288c ff        rst     38h
288d ff        rst     38h
288e ff        rst     38h
288f ff        rst     38h
2890 ff        rst     38h
2891 ff        rst     38h
2892 ff        rst     38h
2893 ff        rst     38h
2894 ff        rst     38h
2895 ff        rst     38h
2896 ff        rst     38h
2897 ff        rst     38h
2898 ff        rst     38h
2899 ff        rst     38h
289a ff        rst     38h
289b ff        rst     38h
289c ff        rst     38h
289d ff        rst     38h
289e ff        rst     38h
289f ff        rst     38h
28a0 ff        rst     38h
28a1 ff        rst     38h
28a2 ff        rst     38h
28a3 ff        rst     38h
28a4 ff        rst     38h
28a5 ff        rst     38h
28a6 ff        rst     38h
28a7 ff        rst     38h
28a8 ff        rst     38h
28a9 ff        rst     38h
28aa ff        rst     38h
28ab ff        rst     38h
28ac ff        rst     38h
28ad ff        rst     38h
28ae ff        rst     38h
28af ff        rst     38h
28b0 ff        rst     38h
28b1 ff        rst     38h
28b2 ff        rst     38h
28b3 ff        rst     38h
28b4 ff        rst     38h
28b5 ff        rst     38h
28b6 ff        rst     38h
28b7 ff        rst     38h
28b8 ff        rst     38h
28b9 ff        rst     38h
28ba ff        rst     38h
28bb ff        rst     38h
28bc ff        rst     38h
28bd ff        rst     38h
28be ff        rst     38h
28bf ff        rst     38h
28c0 ff        rst     38h
28c1 ff        rst     38h
28c2 ff        rst     38h
28c3 ff        rst     38h
28c4 ff        rst     38h
28c5 ff        rst     38h
28c6 ff        rst     38h
28c7 ff        rst     38h
28c8 ff        rst     38h
28c9 ff        rst     38h
28ca ff        rst     38h
28cb ff        rst     38h
28cc ff        rst     38h
28cd ff        rst     38h
28ce ff        rst     38h
28cf ff        rst     38h
28d0 ff        rst     38h
28d1 ff        rst     38h
28d2 ff        rst     38h
28d3 ff        rst     38h
28d4 ff        rst     38h
28d5 ff        rst     38h
28d6 ff        rst     38h
28d7 ff        rst     38h
28d8 ff        rst     38h
28d9 ff        rst     38h
28da ff        rst     38h
28db ff        rst     38h
28dc ff        rst     38h
28dd ff        rst     38h
28de ff        rst     38h
28df ff        rst     38h
28e0 ff        rst     38h
28e1 ff        rst     38h
28e2 ff        rst     38h
28e3 ff        rst     38h
28e4 ff        rst     38h
28e5 ff        rst     38h
28e6 ff        rst     38h
28e7 ff        rst     38h
28e8 ff        rst     38h
28e9 ff        rst     38h
28ea ff        rst     38h
28eb ff        rst     38h
28ec ff        rst     38h
28ed ff        rst     38h
28ee ff        rst     38h
28ef ff        rst     38h
28f0 ff        rst     38h
28f1 ff        rst     38h
28f2 ff        rst     38h
28f3 ff        rst     38h
28f4 ff        rst     38h
28f5 ff        rst     38h
28f6 ff        rst     38h
28f7 ff        rst     38h
28f8 ff        rst     38h
28f9 ff        rst     38h
28fa ff        rst     38h
28fb ff        rst     38h
28fc ff        rst     38h
28fd ff        rst     38h
28fe ff        rst     38h
28ff ff        rst     38h
2900 ff        rst     38h
2901 ff        rst     38h
2902 ff        rst     38h
2903 ff        rst     38h
2904 ff        rst     38h
2905 ff        rst     38h
2906 ff        rst     38h
2907 ff        rst     38h
2908 ff        rst     38h
2909 ff        rst     38h
290a ff        rst     38h
290b ff        rst     38h
290c ff        rst     38h
290d ff        rst     38h
290e ff        rst     38h
290f ff        rst     38h
2910 ff        rst     38h
2911 ff        rst     38h
2912 ff        rst     38h
2913 ff        rst     38h
2914 ff        rst     38h
2915 ff        rst     38h
2916 ff        rst     38h
2917 ff        rst     38h
2918 ff        rst     38h
2919 ff        rst     38h
291a ff        rst     38h
291b ff        rst     38h
291c ff        rst     38h
291d ff        rst     38h
291e ff        rst     38h
291f ff        rst     38h
2920 ff        rst     38h
2921 ff        rst     38h
2922 ff        rst     38h
2923 ff        rst     38h
2924 ff        rst     38h
2925 ff        rst     38h
2926 ff        rst     38h
2927 ff        rst     38h
2928 ff        rst     38h
2929 ff        rst     38h
292a ff        rst     38h
292b ff        rst     38h
292c ff        rst     38h
292d ff        rst     38h
292e ff        rst     38h
292f ff        rst     38h
2930 ff        rst     38h
2931 ff        rst     38h
2932 ff        rst     38h
2933 ff        rst     38h
2934 ff        rst     38h
2935 ff        rst     38h
2936 ff        rst     38h
2937 ff        rst     38h
2938 ff        rst     38h
2939 ff        rst     38h
293a ff        rst     38h
293b ff        rst     38h
293c ff        rst     38h
293d ff        rst     38h
293e ff        rst     38h
293f ff        rst     38h
2940 ff        rst     38h
2941 ff        rst     38h
2942 ff        rst     38h
2943 ff        rst     38h
2944 ff        rst     38h
2945 ff        rst     38h
2946 ff        rst     38h
2947 ff        rst     38h
2948 ff        rst     38h
2949 ff        rst     38h
294a ff        rst     38h
294b ff        rst     38h
294c ff        rst     38h
294d ff        rst     38h
294e ff        rst     38h
294f ff        rst     38h
2950 ff        rst     38h
2951 ff        rst     38h
2952 ff        rst     38h
2953 ff        rst     38h
2954 ff        rst     38h
2955 ff        rst     38h
2956 ff        rst     38h
2957 ff        rst     38h
2958 ff        rst     38h
2959 ff        rst     38h
295a ff        rst     38h
295b ff        rst     38h
295c ff        rst     38h
295d ff        rst     38h
295e ff        rst     38h
295f ff        rst     38h
2960 ff        rst     38h
2961 ff        rst     38h
2962 ff        rst     38h
2963 ff        rst     38h
2964 ff        rst     38h
2965 ff        rst     38h
2966 ff        rst     38h
2967 ff        rst     38h
2968 ff        rst     38h
2969 ff        rst     38h
296a ff        rst     38h
296b ff        rst     38h
296c ff        rst     38h
296d ff        rst     38h
296e ff        rst     38h
296f ff        rst     38h
2970 ff        rst     38h
2971 ff        rst     38h
2972 ff        rst     38h
2973 ff        rst     38h
2974 ff        rst     38h
2975 ff        rst     38h
2976 ff        rst     38h
2977 ff        rst     38h
2978 ff        rst     38h
2979 ff        rst     38h
297a ff        rst     38h
297b ff        rst     38h
297c ff        rst     38h
297d ff        rst     38h
297e ff        rst     38h
297f ff        rst     38h
2980 ff        rst     38h
2981 ff        rst     38h
2982 ff        rst     38h
2983 ff        rst     38h
2984 ff        rst     38h
2985 ff        rst     38h
2986 ff        rst     38h
2987 ff        rst     38h
2988 ff        rst     38h
2989 ff        rst     38h
298a ff        rst     38h
298b ff        rst     38h
298c ff        rst     38h
298d ff        rst     38h
298e ff        rst     38h
298f ff        rst     38h
2990 ff        rst     38h
2991 ff        rst     38h
2992 ff        rst     38h
2993 ff        rst     38h
2994 ff        rst     38h
2995 ff        rst     38h
2996 ff        rst     38h
2997 ff        rst     38h
2998 ff        rst     38h
2999 ff        rst     38h
299a ff        rst     38h
299b ff        rst     38h
299c ff        rst     38h
299d ff        rst     38h
299e ff        rst     38h
299f ff        rst     38h
29a0 ff        rst     38h
29a1 ff        rst     38h
29a2 ff        rst     38h
29a3 ff        rst     38h
29a4 ff        rst     38h
29a5 ff        rst     38h
29a6 ff        rst     38h
29a7 ff        rst     38h
29a8 ff        rst     38h
29a9 ff        rst     38h
29aa ff        rst     38h
29ab ff        rst     38h
29ac ff        rst     38h
29ad ff        rst     38h
29ae ff        rst     38h
29af ff        rst     38h
29b0 ff        rst     38h
29b1 ff        rst     38h
29b2 ff        rst     38h
29b3 ff        rst     38h
29b4 ff        rst     38h
29b5 ff        rst     38h
29b6 ff        rst     38h
29b7 ff        rst     38h
29b8 ff        rst     38h
29b9 ff        rst     38h
29ba ff        rst     38h
29bb ff        rst     38h
29bc ff        rst     38h
29bd ff        rst     38h
29be ff        rst     38h
29bf ff        rst     38h
29c0 ff        rst     38h
29c1 ff        rst     38h
29c2 ff        rst     38h
29c3 ff        rst     38h
29c4 ff        rst     38h
29c5 ff        rst     38h
29c6 ff        rst     38h
29c7 ff        rst     38h
29c8 ff        rst     38h
29c9 ff        rst     38h
29ca ff        rst     38h
29cb ff        rst     38h
29cc ff        rst     38h
29cd ff        rst     38h
29ce ff        rst     38h
29cf ff        rst     38h
29d0 ff        rst     38h
29d1 ff        rst     38h
29d2 ff        rst     38h
29d3 ff        rst     38h
29d4 ff        rst     38h
29d5 ff        rst     38h
29d6 ff        rst     38h
29d7 ff        rst     38h
29d8 ff        rst     38h
29d9 ff        rst     38h
29da ff        rst     38h
29db ff        rst     38h
29dc ff        rst     38h
29dd ff        rst     38h
29de ff        rst     38h
29df ff        rst     38h
29e0 ff        rst     38h
29e1 ff        rst     38h
29e2 ff        rst     38h
29e3 ff        rst     38h
29e4 ff        rst     38h
29e5 ff        rst     38h
29e6 ff        rst     38h
29e7 ff        rst     38h
29e8 ff        rst     38h
29e9 ff        rst     38h
29ea ff        rst     38h
29eb ff        rst     38h
29ec ff        rst     38h
29ed ff        rst     38h
29ee ff        rst     38h
29ef ff        rst     38h
29f0 ff        rst     38h
29f1 ff        rst     38h
29f2 ff        rst     38h
29f3 ff        rst     38h
29f4 ff        rst     38h
29f5 ff        rst     38h
29f6 ff        rst     38h
29f7 ff        rst     38h
29f8 ff        rst     38h
29f9 ff        rst     38h
29fa ff        rst     38h
29fb ff        rst     38h
29fc ff        rst     38h
29fd ff        rst     38h
29fe ff        rst     38h
29ff ff        rst     38h
2a00 ff        rst     38h
2a01 ff        rst     38h
2a02 ff        rst     38h
2a03 ff        rst     38h
2a04 ff        rst     38h
2a05 ff        rst     38h
2a06 ff        rst     38h
2a07 ff        rst     38h
2a08 ff        rst     38h
2a09 ff        rst     38h
2a0a ff        rst     38h
2a0b ff        rst     38h
2a0c ff        rst     38h
2a0d ff        rst     38h
2a0e ff        rst     38h
2a0f ff        rst     38h
2a10 ff        rst     38h
2a11 ff        rst     38h
2a12 ff        rst     38h
2a13 ff        rst     38h
2a14 ff        rst     38h
2a15 ff        rst     38h
2a16 ff        rst     38h
2a17 ff        rst     38h
2a18 ff        rst     38h
2a19 ff        rst     38h
2a1a ff        rst     38h
2a1b ff        rst     38h
2a1c ff        rst     38h
2a1d ff        rst     38h
2a1e ff        rst     38h
2a1f ff        rst     38h
2a20 ff        rst     38h
2a21 ff        rst     38h
2a22 ff        rst     38h
2a23 ff        rst     38h
2a24 ff        rst     38h
2a25 ff        rst     38h
2a26 ff        rst     38h
2a27 ff        rst     38h
2a28 ff        rst     38h
2a29 ff        rst     38h
2a2a ff        rst     38h
2a2b ff        rst     38h
2a2c ff        rst     38h
2a2d ff        rst     38h
2a2e ff        rst     38h
2a2f ff        rst     38h
2a30 ff        rst     38h
2a31 ff        rst     38h
2a32 ff        rst     38h
2a33 ff        rst     38h
2a34 ff        rst     38h
2a35 ff        rst     38h
2a36 ff        rst     38h
2a37 ff        rst     38h
2a38 ff        rst     38h
2a39 ff        rst     38h
2a3a ff        rst     38h
2a3b ff        rst     38h
2a3c ff        rst     38h
2a3d ff        rst     38h
2a3e ff        rst     38h
2a3f ff        rst     38h
2a40 ff        rst     38h
2a41 ff        rst     38h
2a42 ff        rst     38h
2a43 ff        rst     38h
2a44 ff        rst     38h
2a45 ff        rst     38h
2a46 ff        rst     38h
2a47 ff        rst     38h
2a48 ff        rst     38h
2a49 ff        rst     38h
2a4a ff        rst     38h
2a4b ff        rst     38h
2a4c ff        rst     38h
2a4d ff        rst     38h
2a4e ff        rst     38h
2a4f ff        rst     38h
2a50 ff        rst     38h
2a51 ff        rst     38h
2a52 ff        rst     38h
2a53 ff        rst     38h
2a54 ff        rst     38h
2a55 ff        rst     38h
2a56 ff        rst     38h
2a57 ff        rst     38h
2a58 ff        rst     38h
2a59 ff        rst     38h
2a5a ff        rst     38h
2a5b ff        rst     38h
2a5c ff        rst     38h
2a5d ff        rst     38h
2a5e ff        rst     38h
2a5f ff        rst     38h
2a60 ff        rst     38h
2a61 ff        rst     38h
2a62 ff        rst     38h
2a63 ff        rst     38h
2a64 ff        rst     38h
2a65 ff        rst     38h
2a66 ff        rst     38h
2a67 ff        rst     38h
2a68 ff        rst     38h
2a69 ff        rst     38h
2a6a ff        rst     38h
2a6b ff        rst     38h
2a6c ff        rst     38h
2a6d ff        rst     38h
2a6e ff        rst     38h
2a6f ff        rst     38h
2a70 ff        rst     38h
2a71 ff        rst     38h
2a72 ff        rst     38h
2a73 ff        rst     38h
2a74 ff        rst     38h
2a75 ff        rst     38h
2a76 ff        rst     38h
2a77 ff        rst     38h
2a78 ff        rst     38h
2a79 ff        rst     38h
2a7a ff        rst     38h
2a7b ff        rst     38h
2a7c ff        rst     38h
2a7d ff        rst     38h
2a7e ff        rst     38h
2a7f ff        rst     38h
2a80 ff        rst     38h
2a81 ff        rst     38h
2a82 ff        rst     38h
2a83 ff        rst     38h
2a84 ff        rst     38h
2a85 ff        rst     38h
2a86 ff        rst     38h
2a87 ff        rst     38h
2a88 ff        rst     38h
2a89 ff        rst     38h
2a8a ff        rst     38h
2a8b ff        rst     38h
2a8c ff        rst     38h
2a8d ff        rst     38h
2a8e ff        rst     38h
2a8f ff        rst     38h
2a90 ff        rst     38h
2a91 ff        rst     38h
2a92 ff        rst     38h
2a93 ff        rst     38h
2a94 ff        rst     38h
2a95 ff        rst     38h
2a96 ff        rst     38h
2a97 ff        rst     38h
2a98 ff        rst     38h
2a99 ff        rst     38h
2a9a ff        rst     38h
2a9b ff        rst     38h
2a9c ff        rst     38h
2a9d ff        rst     38h
2a9e ff        rst     38h
2a9f ff        rst     38h
2aa0 ff        rst     38h
2aa1 ff        rst     38h
2aa2 ff        rst     38h
2aa3 ff        rst     38h
2aa4 ff        rst     38h
2aa5 ff        rst     38h
2aa6 ff        rst     38h
2aa7 ff        rst     38h
2aa8 ff        rst     38h
2aa9 ff        rst     38h
2aaa ff        rst     38h
2aab ff        rst     38h
2aac ff        rst     38h
2aad ff        rst     38h
2aae ff        rst     38h
2aaf ff        rst     38h
2ab0 ff        rst     38h
2ab1 ff        rst     38h
2ab2 ff        rst     38h
2ab3 ff        rst     38h
2ab4 ff        rst     38h
2ab5 ff        rst     38h
2ab6 ff        rst     38h
2ab7 ff        rst     38h
2ab8 ff        rst     38h
2ab9 ff        rst     38h
2aba ff        rst     38h
2abb ff        rst     38h
2abc ff        rst     38h
2abd ff        rst     38h
2abe ff        rst     38h
2abf ff        rst     38h
2ac0 ff        rst     38h
2ac1 ff        rst     38h
2ac2 ff        rst     38h
2ac3 ff        rst     38h
2ac4 ff        rst     38h
2ac5 ff        rst     38h
2ac6 ff        rst     38h
2ac7 ff        rst     38h
2ac8 ff        rst     38h
2ac9 ff        rst     38h
2aca ff        rst     38h
2acb ff        rst     38h
2acc ff        rst     38h
2acd ff        rst     38h
2ace ff        rst     38h
2acf ff        rst     38h
2ad0 ff        rst     38h
2ad1 ff        rst     38h
2ad2 ff        rst     38h
2ad3 ff        rst     38h
2ad4 ff        rst     38h
2ad5 ff        rst     38h
2ad6 ff        rst     38h
2ad7 ff        rst     38h
2ad8 ff        rst     38h
2ad9 ff        rst     38h
2ada ff        rst     38h
2adb ff        rst     38h
2adc ff        rst     38h
2add ff        rst     38h
2ade ff        rst     38h
2adf ff        rst     38h
2ae0 ff        rst     38h
2ae1 ff        rst     38h
2ae2 ff        rst     38h
2ae3 ff        rst     38h
2ae4 ff        rst     38h
2ae5 ff        rst     38h
2ae6 ff        rst     38h
2ae7 ff        rst     38h
2ae8 ff        rst     38h
2ae9 ff        rst     38h
2aea ff        rst     38h
2aeb ff        rst     38h
2aec ff        rst     38h
2aed ff        rst     38h
2aee ff        rst     38h
2aef ff        rst     38h
2af0 ff        rst     38h
2af1 ff        rst     38h
2af2 ff        rst     38h
2af3 ff        rst     38h
2af4 ff        rst     38h
2af5 ff        rst     38h
2af6 ff        rst     38h
2af7 ff        rst     38h
2af8 ff        rst     38h
2af9 ff        rst     38h
2afa ff        rst     38h
2afb ff        rst     38h
2afc ff        rst     38h
2afd ff        rst     38h
2afe ff        rst     38h
2aff ff        rst     38h
2b00 ff        rst     38h
2b01 ff        rst     38h
2b02 ff        rst     38h
2b03 ff        rst     38h
2b04 ff        rst     38h
2b05 ff        rst     38h
2b06 ff        rst     38h
2b07 ff        rst     38h
2b08 ff        rst     38h
2b09 ff        rst     38h
2b0a ff        rst     38h
2b0b ff        rst     38h
2b0c ff        rst     38h
2b0d ff        rst     38h
2b0e ff        rst     38h
2b0f ff        rst     38h
2b10 ff        rst     38h
2b11 ff        rst     38h
2b12 ff        rst     38h
2b13 ff        rst     38h
2b14 ff        rst     38h
2b15 ff        rst     38h
2b16 ff        rst     38h
2b17 ff        rst     38h
2b18 ff        rst     38h
2b19 ff        rst     38h
2b1a ff        rst     38h
2b1b ff        rst     38h
2b1c ff        rst     38h
2b1d ff        rst     38h
2b1e ff        rst     38h
2b1f ff        rst     38h
2b20 ff        rst     38h
2b21 ff        rst     38h
2b22 ff        rst     38h
2b23 ff        rst     38h
2b24 ff        rst     38h
2b25 ff        rst     38h
2b26 ff        rst     38h
2b27 ff        rst     38h
2b28 ff        rst     38h
2b29 ff        rst     38h
2b2a ff        rst     38h
2b2b ff        rst     38h
2b2c ff        rst     38h
2b2d ff        rst     38h
2b2e ff        rst     38h
2b2f ff        rst     38h
2b30 ff        rst     38h
2b31 ff        rst     38h
2b32 ff        rst     38h
2b33 ff        rst     38h
2b34 ff        rst     38h
2b35 ff        rst     38h
2b36 ff        rst     38h
2b37 ff        rst     38h
2b38 ff        rst     38h
2b39 ff        rst     38h
2b3a ff        rst     38h
2b3b ff        rst     38h
2b3c ff        rst     38h
2b3d ff        rst     38h
2b3e ff        rst     38h
2b3f ff        rst     38h
2b40 ff        rst     38h
2b41 ff        rst     38h
2b42 ff        rst     38h
2b43 ff        rst     38h
2b44 ff        rst     38h
2b45 ff        rst     38h
2b46 ff        rst     38h
2b47 ff        rst     38h
2b48 ff        rst     38h
2b49 ff        rst     38h
2b4a ff        rst     38h
2b4b ff        rst     38h
2b4c ff        rst     38h
2b4d ff        rst     38h
2b4e ff        rst     38h
2b4f ff        rst     38h
2b50 ff        rst     38h
2b51 ff        rst     38h
2b52 ff        rst     38h
2b53 ff        rst     38h
2b54 ff        rst     38h
2b55 ff        rst     38h
2b56 ff        rst     38h
2b57 ff        rst     38h
2b58 ff        rst     38h
2b59 ff        rst     38h
2b5a ff        rst     38h
2b5b ff        rst     38h
2b5c ff        rst     38h
2b5d ff        rst     38h
2b5e ff        rst     38h
2b5f ff        rst     38h
2b60 ff        rst     38h
2b61 ff        rst     38h
2b62 ff        rst     38h
2b63 ff        rst     38h
2b64 ff        rst     38h
2b65 ff        rst     38h
2b66 ff        rst     38h
2b67 ff        rst     38h
2b68 ff        rst     38h
2b69 ff        rst     38h
2b6a ff        rst     38h
2b6b ff        rst     38h
2b6c ff        rst     38h
2b6d ff        rst     38h
2b6e ff        rst     38h
2b6f ff        rst     38h
2b70 ff        rst     38h
2b71 ff        rst     38h
2b72 ff        rst     38h
2b73 ff        rst     38h
2b74 ff        rst     38h
2b75 ff        rst     38h
2b76 ff        rst     38h
2b77 ff        rst     38h
2b78 ff        rst     38h
2b79 ff        rst     38h
2b7a ff        rst     38h
2b7b ff        rst     38h
2b7c ff        rst     38h
2b7d ff        rst     38h
2b7e ff        rst     38h
2b7f ff        rst     38h
2b80 ff        rst     38h
2b81 ff        rst     38h
2b82 ff        rst     38h
2b83 ff        rst     38h
2b84 ff        rst     38h
2b85 ff        rst     38h
2b86 ff        rst     38h
2b87 ff        rst     38h
2b88 ff        rst     38h
2b89 ff        rst     38h
2b8a ff        rst     38h
2b8b ff        rst     38h
2b8c ff        rst     38h
2b8d ff        rst     38h
2b8e ff        rst     38h
2b8f ff        rst     38h
2b90 ff        rst     38h
2b91 ff        rst     38h
2b92 ff        rst     38h
2b93 ff        rst     38h
2b94 ff        rst     38h
2b95 ff        rst     38h
2b96 ff        rst     38h
2b97 ff        rst     38h
2b98 ff        rst     38h
2b99 ff        rst     38h
2b9a ff        rst     38h
2b9b ff        rst     38h
2b9c ff        rst     38h
2b9d ff        rst     38h
2b9e ff        rst     38h
2b9f ff        rst     38h
2ba0 ff        rst     38h
2ba1 ff        rst     38h
2ba2 ff        rst     38h
2ba3 ff        rst     38h
2ba4 ff        rst     38h
2ba5 ff        rst     38h
2ba6 ff        rst     38h
2ba7 ff        rst     38h
2ba8 ff        rst     38h
2ba9 ff        rst     38h
2baa ff        rst     38h
2bab ff        rst     38h
2bac ff        rst     38h
2bad ff        rst     38h
2bae ff        rst     38h
2baf ff        rst     38h
2bb0 ff        rst     38h
2bb1 ff        rst     38h
2bb2 ff        rst     38h
2bb3 ff        rst     38h
2bb4 ff        rst     38h
2bb5 ff        rst     38h
2bb6 ff        rst     38h
2bb7 ff        rst     38h
2bb8 ff        rst     38h
2bb9 ff        rst     38h
2bba ff        rst     38h
2bbb ff        rst     38h
2bbc ff        rst     38h
2bbd ff        rst     38h
2bbe ff        rst     38h
2bbf ff        rst     38h
2bc0 ff        rst     38h
2bc1 ff        rst     38h
2bc2 ff        rst     38h
2bc3 ff        rst     38h
2bc4 ff        rst     38h
2bc5 ff        rst     38h
2bc6 ff        rst     38h
2bc7 ff        rst     38h
2bc8 ff        rst     38h
2bc9 ff        rst     38h
2bca ff        rst     38h
2bcb ff        rst     38h
2bcc ff        rst     38h
2bcd ff        rst     38h
2bce ff        rst     38h
2bcf ff        rst     38h
2bd0 ff        rst     38h
2bd1 ff        rst     38h
2bd2 ff        rst     38h
2bd3 ff        rst     38h
2bd4 ff        rst     38h
2bd5 ff        rst     38h
2bd6 ff        rst     38h
2bd7 ff        rst     38h
2bd8 ff        rst     38h
2bd9 ff        rst     38h
2bda ff        rst     38h
2bdb ff        rst     38h
2bdc ff        rst     38h
2bdd ff        rst     38h
2bde ff        rst     38h
2bdf ff        rst     38h
2be0 ff        rst     38h
2be1 ff        rst     38h
2be2 ff        rst     38h
2be3 ff        rst     38h
2be4 ff        rst     38h
2be5 ff        rst     38h
2be6 ff        rst     38h
2be7 ff        rst     38h
2be8 ff        rst     38h
2be9 ff        rst     38h
2bea ff        rst     38h
2beb ff        rst     38h
2bec ff        rst     38h
2bed ff        rst     38h
2bee ff        rst     38h
2bef ff        rst     38h
2bf0 ff        rst     38h
2bf1 ff        rst     38h
2bf2 ff        rst     38h
2bf3 ff        rst     38h
2bf4 ff        rst     38h
2bf5 ff        rst     38h
2bf6 ff        rst     38h
2bf7 ff        rst     38h
2bf8 ff        rst     38h
2bf9 ff        rst     38h
2bfa ff        rst     38h
2bfb ff        rst     38h
2bfc ff        rst     38h
2bfd ff        rst     38h
2bfe ff        rst     38h
2bff ff        rst     38h
2c00 ff        rst     38h
2c01 ff        rst     38h
2c02 ff        rst     38h
2c03 ff        rst     38h
2c04 ff        rst     38h
2c05 ff        rst     38h
2c06 ff        rst     38h
2c07 ff        rst     38h
2c08 ff        rst     38h
2c09 ff        rst     38h
2c0a ff        rst     38h
2c0b ff        rst     38h
2c0c ff        rst     38h
2c0d ff        rst     38h
2c0e ff        rst     38h
2c0f ff        rst     38h
2c10 ff        rst     38h
2c11 ff        rst     38h
2c12 ff        rst     38h
2c13 ff        rst     38h
2c14 ff        rst     38h
2c15 ff        rst     38h
2c16 ff        rst     38h
2c17 ff        rst     38h
2c18 ff        rst     38h
2c19 ff        rst     38h
2c1a ff        rst     38h
2c1b ff        rst     38h
2c1c ff        rst     38h
2c1d ff        rst     38h
2c1e ff        rst     38h
2c1f ff        rst     38h
2c20 ff        rst     38h
2c21 ff        rst     38h
2c22 ff        rst     38h
2c23 ff        rst     38h
2c24 ff        rst     38h
2c25 ff        rst     38h
2c26 ff        rst     38h
2c27 ff        rst     38h
2c28 ff        rst     38h
2c29 ff        rst     38h
2c2a ff        rst     38h
2c2b ff        rst     38h
2c2c ff        rst     38h
2c2d ff        rst     38h
2c2e ff        rst     38h
2c2f ff        rst     38h
2c30 ff        rst     38h
2c31 ff        rst     38h
2c32 ff        rst     38h
2c33 ff        rst     38h
2c34 ff        rst     38h
2c35 ff        rst     38h
2c36 ff        rst     38h
2c37 ff        rst     38h
2c38 ff        rst     38h
2c39 ff        rst     38h
2c3a ff        rst     38h
2c3b ff        rst     38h
2c3c ff        rst     38h
2c3d ff        rst     38h
2c3e ff        rst     38h
2c3f ff        rst     38h
2c40 ff        rst     38h
2c41 ff        rst     38h
2c42 ff        rst     38h
2c43 ff        rst     38h
2c44 ff        rst     38h
2c45 ff        rst     38h
2c46 ff        rst     38h
2c47 ff        rst     38h
2c48 ff        rst     38h
2c49 ff        rst     38h
2c4a ff        rst     38h
2c4b ff        rst     38h
2c4c ff        rst     38h
2c4d ff        rst     38h
2c4e ff        rst     38h
2c4f ff        rst     38h
2c50 ff        rst     38h
2c51 ff        rst     38h
2c52 ff        rst     38h
2c53 ff        rst     38h
2c54 ff        rst     38h
2c55 ff        rst     38h
2c56 ff        rst     38h
2c57 ff        rst     38h
2c58 ff        rst     38h
2c59 ff        rst     38h
2c5a ff        rst     38h
2c5b ff        rst     38h
2c5c ff        rst     38h
2c5d ff        rst     38h
2c5e ff        rst     38h
2c5f ff        rst     38h
2c60 ff        rst     38h
2c61 ff        rst     38h
2c62 ff        rst     38h
2c63 ff        rst     38h
2c64 ff        rst     38h
2c65 ff        rst     38h
2c66 ff        rst     38h
2c67 ff        rst     38h
2c68 ff        rst     38h
2c69 ff        rst     38h
2c6a ff        rst     38h
2c6b ff        rst     38h
2c6c ff        rst     38h
2c6d ff        rst     38h
2c6e ff        rst     38h
2c6f ff        rst     38h
2c70 ff        rst     38h
2c71 ff        rst     38h
2c72 ff        rst     38h
2c73 ff        rst     38h
2c74 ff        rst     38h
2c75 ff        rst     38h
2c76 ff        rst     38h
2c77 ff        rst     38h
2c78 ff        rst     38h
2c79 ff        rst     38h
2c7a ff        rst     38h
2c7b ff        rst     38h
2c7c ff        rst     38h
2c7d ff        rst     38h
2c7e ff        rst     38h
2c7f ff        rst     38h
2c80 ff        rst     38h
2c81 ff        rst     38h
2c82 ff        rst     38h
2c83 ff        rst     38h
2c84 ff        rst     38h
2c85 ff        rst     38h
2c86 ff        rst     38h
2c87 ff        rst     38h
2c88 ff        rst     38h
2c89 ff        rst     38h
2c8a ff        rst     38h
2c8b ff        rst     38h
2c8c ff        rst     38h
2c8d ff        rst     38h
2c8e ff        rst     38h
2c8f ff        rst     38h
2c90 ff        rst     38h
2c91 ff        rst     38h
2c92 ff        rst     38h
2c93 ff        rst     38h
2c94 ff        rst     38h
2c95 ff        rst     38h
2c96 ff        rst     38h
2c97 ff        rst     38h
2c98 ff        rst     38h
2c99 ff        rst     38h
2c9a ff        rst     38h
2c9b ff        rst     38h
2c9c ff        rst     38h
2c9d ff        rst     38h
2c9e ff        rst     38h
2c9f ff        rst     38h
2ca0 ff        rst     38h
2ca1 ff        rst     38h
2ca2 ff        rst     38h
2ca3 ff        rst     38h
2ca4 ff        rst     38h
2ca5 ff        rst     38h
2ca6 ff        rst     38h
2ca7 ff        rst     38h
2ca8 ff        rst     38h
2ca9 ff        rst     38h
2caa ff        rst     38h
2cab ff        rst     38h
2cac ff        rst     38h
2cad ff        rst     38h
2cae ff        rst     38h
2caf ff        rst     38h
2cb0 ff        rst     38h
2cb1 ff        rst     38h
2cb2 ff        rst     38h
2cb3 ff        rst     38h
2cb4 ff        rst     38h
2cb5 ff        rst     38h
2cb6 ff        rst     38h
2cb7 ff        rst     38h
2cb8 ff        rst     38h
2cb9 ff        rst     38h
2cba ff        rst     38h
2cbb ff        rst     38h
2cbc ff        rst     38h
2cbd ff        rst     38h
2cbe ff        rst     38h
2cbf ff        rst     38h
2cc0 ff        rst     38h
2cc1 ff        rst     38h
2cc2 ff        rst     38h
2cc3 ff        rst     38h
2cc4 ff        rst     38h
2cc5 ff        rst     38h
2cc6 ff        rst     38h
2cc7 ff        rst     38h
2cc8 ff        rst     38h
2cc9 ff        rst     38h
2cca ff        rst     38h
2ccb ff        rst     38h
2ccc ff        rst     38h
2ccd ff        rst     38h
2cce ff        rst     38h
2ccf ff        rst     38h
2cd0 ff        rst     38h
2cd1 ff        rst     38h
2cd2 ff        rst     38h
2cd3 ff        rst     38h
2cd4 ff        rst     38h
2cd5 ff        rst     38h
2cd6 ff        rst     38h
2cd7 ff        rst     38h
2cd8 ff        rst     38h
2cd9 ff        rst     38h
2cda ff        rst     38h
2cdb ff        rst     38h
2cdc ff        rst     38h
2cdd ff        rst     38h
2cde ff        rst     38h
2cdf ff        rst     38h
2ce0 ff        rst     38h
2ce1 ff        rst     38h
2ce2 ff        rst     38h
2ce3 ff        rst     38h
2ce4 ff        rst     38h
2ce5 ff        rst     38h
2ce6 ff        rst     38h
2ce7 ff        rst     38h
2ce8 ff        rst     38h
2ce9 ff        rst     38h
2cea ff        rst     38h
2ceb ff        rst     38h
2cec ff        rst     38h
2ced ff        rst     38h
2cee ff        rst     38h
2cef ff        rst     38h
2cf0 ff        rst     38h
2cf1 ff        rst     38h
2cf2 ff        rst     38h
2cf3 ff        rst     38h
2cf4 ff        rst     38h
2cf5 ff        rst     38h
2cf6 ff        rst     38h
2cf7 ff        rst     38h
2cf8 ff        rst     38h
2cf9 ff        rst     38h
2cfa ff        rst     38h
2cfb ff        rst     38h
2cfc ff        rst     38h
2cfd ff        rst     38h
2cfe ff        rst     38h
2cff ff        rst     38h
2d00 ff        rst     38h
2d01 ff        rst     38h
2d02 ff        rst     38h
2d03 ff        rst     38h
2d04 ff        rst     38h
2d05 ff        rst     38h
2d06 ff        rst     38h
2d07 ff        rst     38h
2d08 ff        rst     38h
2d09 ff        rst     38h
2d0a ff        rst     38h
2d0b ff        rst     38h
2d0c ff        rst     38h
2d0d ff        rst     38h
2d0e ff        rst     38h
2d0f ff        rst     38h
2d10 ff        rst     38h
2d11 ff        rst     38h
2d12 ff        rst     38h
2d13 ff        rst     38h
2d14 ff        rst     38h
2d15 ff        rst     38h
2d16 ff        rst     38h
2d17 ff        rst     38h
2d18 ff        rst     38h
2d19 ff        rst     38h
2d1a ff        rst     38h
2d1b ff        rst     38h
2d1c ff        rst     38h
2d1d ff        rst     38h
2d1e ff        rst     38h
2d1f ff        rst     38h
2d20 ff        rst     38h
2d21 ff        rst     38h
2d22 ff        rst     38h
2d23 ff        rst     38h
2d24 ff        rst     38h
2d25 ff        rst     38h
2d26 ff        rst     38h
2d27 ff        rst     38h
2d28 ff        rst     38h
2d29 ff        rst     38h
2d2a ff        rst     38h
2d2b ff        rst     38h
2d2c ff        rst     38h
2d2d ff        rst     38h
2d2e ff        rst     38h
2d2f ff        rst     38h
2d30 ff        rst     38h
2d31 ff        rst     38h
2d32 ff        rst     38h
2d33 ff        rst     38h
2d34 ff        rst     38h
2d35 ff        rst     38h
2d36 ff        rst     38h
2d37 ff        rst     38h
2d38 ff        rst     38h
2d39 ff        rst     38h
2d3a ff        rst     38h
2d3b ff        rst     38h
2d3c ff        rst     38h
2d3d ff        rst     38h
2d3e ff        rst     38h
2d3f ff        rst     38h
2d40 ff        rst     38h
2d41 ff        rst     38h
2d42 ff        rst     38h
2d43 ff        rst     38h
2d44 ff        rst     38h
2d45 ff        rst     38h
2d46 ff        rst     38h
2d47 ff        rst     38h
2d48 ff        rst     38h
2d49 ff        rst     38h
2d4a ff        rst     38h
2d4b ff        rst     38h
2d4c ff        rst     38h
2d4d ff        rst     38h
2d4e ff        rst     38h
2d4f ff        rst     38h
2d50 ff        rst     38h
2d51 ff        rst     38h
2d52 ff        rst     38h
2d53 ff        rst     38h
2d54 ff        rst     38h
2d55 ff        rst     38h
2d56 ff        rst     38h
2d57 ff        rst     38h
2d58 ff        rst     38h
2d59 ff        rst     38h
2d5a ff        rst     38h
2d5b ff        rst     38h
2d5c ff        rst     38h
2d5d ff        rst     38h
2d5e ff        rst     38h
2d5f ff        rst     38h
2d60 ff        rst     38h
2d61 ff        rst     38h
2d62 ff        rst     38h
2d63 ff        rst     38h
2d64 ff        rst     38h
2d65 ff        rst     38h
2d66 ff        rst     38h
2d67 ff        rst     38h
2d68 ff        rst     38h
2d69 ff        rst     38h
2d6a ff        rst     38h
2d6b ff        rst     38h
2d6c ff        rst     38h
2d6d ff        rst     38h
2d6e ff        rst     38h
2d6f ff        rst     38h
2d70 ff        rst     38h
2d71 ff        rst     38h
2d72 ff        rst     38h
2d73 ff        rst     38h
2d74 ff        rst     38h
2d75 ff        rst     38h
2d76 ff        rst     38h
2d77 ff        rst     38h
2d78 ff        rst     38h
2d79 ff        rst     38h
2d7a ff        rst     38h
2d7b ff        rst     38h
2d7c ff        rst     38h
2d7d ff        rst     38h
2d7e ff        rst     38h
2d7f ff        rst     38h
2d80 ff        rst     38h
2d81 ff        rst     38h
2d82 ff        rst     38h
2d83 ff        rst     38h
2d84 ff        rst     38h
2d85 ff        rst     38h
2d86 ff        rst     38h
2d87 ff        rst     38h
2d88 ff        rst     38h
2d89 ff        rst     38h
2d8a ff        rst     38h
2d8b ff        rst     38h
2d8c ff        rst     38h
2d8d ff        rst     38h
2d8e ff        rst     38h
2d8f ff        rst     38h
2d90 ff        rst     38h
2d91 ff        rst     38h
2d92 ff        rst     38h
2d93 ff        rst     38h
2d94 ff        rst     38h
2d95 ff        rst     38h
2d96 ff        rst     38h
2d97 ff        rst     38h
2d98 ff        rst     38h
2d99 ff        rst     38h
2d9a ff        rst     38h
2d9b ff        rst     38h
2d9c ff        rst     38h
2d9d ff        rst     38h
2d9e ff        rst     38h
2d9f ff        rst     38h
2da0 ff        rst     38h
2da1 ff        rst     38h
2da2 ff        rst     38h
2da3 ff        rst     38h
2da4 ff        rst     38h
2da5 ff        rst     38h
2da6 ff        rst     38h
2da7 ff        rst     38h
2da8 ff        rst     38h
2da9 ff        rst     38h
2daa ff        rst     38h
2dab ff        rst     38h
2dac ff        rst     38h
2dad ff        rst     38h
2dae ff        rst     38h
2daf ff        rst     38h
2db0 ff        rst     38h
2db1 ff        rst     38h
2db2 ff        rst     38h
2db3 ff        rst     38h
2db4 ff        rst     38h
2db5 ff        rst     38h
2db6 ff        rst     38h
2db7 ff        rst     38h
2db8 ff        rst     38h
2db9 ff        rst     38h
2dba ff        rst     38h
2dbb ff        rst     38h
2dbc ff        rst     38h
2dbd ff        rst     38h
2dbe ff        rst     38h
2dbf ff        rst     38h
2dc0 ff        rst     38h
2dc1 ff        rst     38h
2dc2 ff        rst     38h
2dc3 ff        rst     38h
2dc4 ff        rst     38h
2dc5 ff        rst     38h
2dc6 ff        rst     38h
2dc7 ff        rst     38h
2dc8 ff        rst     38h
2dc9 ff        rst     38h
2dca ff        rst     38h
2dcb ff        rst     38h
2dcc ff        rst     38h
2dcd ff        rst     38h
2dce ff        rst     38h
2dcf ff        rst     38h
2dd0 ff        rst     38h
2dd1 ff        rst     38h
2dd2 ff        rst     38h
2dd3 ff        rst     38h
2dd4 ff        rst     38h
2dd5 ff        rst     38h
2dd6 ff        rst     38h
2dd7 ff        rst     38h
2dd8 ff        rst     38h
2dd9 ff        rst     38h
2dda ff        rst     38h
2ddb ff        rst     38h
2ddc ff        rst     38h
2ddd ff        rst     38h
2dde ff        rst     38h
2ddf ff        rst     38h
2de0 ff        rst     38h
2de1 ff        rst     38h
2de2 ff        rst     38h
2de3 ff        rst     38h
2de4 ff        rst     38h
2de5 ff        rst     38h
2de6 ff        rst     38h
2de7 ff        rst     38h
2de8 ff        rst     38h
2de9 ff        rst     38h
2dea ff        rst     38h
2deb ff        rst     38h
2dec ff        rst     38h
2ded ff        rst     38h
2dee ff        rst     38h
2def ff        rst     38h
2df0 ff        rst     38h
2df1 ff        rst     38h
2df2 ff        rst     38h
2df3 ff        rst     38h
2df4 ff        rst     38h
2df5 ff        rst     38h
2df6 ff        rst     38h
2df7 ff        rst     38h
2df8 ff        rst     38h
2df9 ff        rst     38h
2dfa ff        rst     38h
2dfb ff        rst     38h
2dfc ff        rst     38h
2dfd ff        rst     38h
2dfe ff        rst     38h
2dff ff        rst     38h
2e00 ff        rst     38h
2e01 ff        rst     38h
2e02 ff        rst     38h
2e03 ff        rst     38h
2e04 ff        rst     38h
2e05 ff        rst     38h
2e06 ff        rst     38h
2e07 ff        rst     38h
2e08 ff        rst     38h
2e09 ff        rst     38h
2e0a ff        rst     38h
2e0b ff        rst     38h
2e0c ff        rst     38h
2e0d ff        rst     38h
2e0e ff        rst     38h
2e0f ff        rst     38h
2e10 ff        rst     38h
2e11 ff        rst     38h
2e12 ff        rst     38h
2e13 ff        rst     38h
2e14 ff        rst     38h
2e15 ff        rst     38h
2e16 ff        rst     38h
2e17 ff        rst     38h
2e18 ff        rst     38h
2e19 ff        rst     38h
2e1a ff        rst     38h
2e1b ff        rst     38h
2e1c ff        rst     38h
2e1d ff        rst     38h
2e1e ff        rst     38h
2e1f ff        rst     38h
2e20 ff        rst     38h
2e21 ff        rst     38h
2e22 ff        rst     38h
2e23 ff        rst     38h
2e24 ff        rst     38h
2e25 ff        rst     38h
2e26 ff        rst     38h
2e27 ff        rst     38h
2e28 ff        rst     38h
2e29 ff        rst     38h
2e2a ff        rst     38h
2e2b ff        rst     38h
2e2c ff        rst     38h
2e2d ff        rst     38h
2e2e ff        rst     38h
2e2f ff        rst     38h
2e30 ff        rst     38h
2e31 ff        rst     38h
2e32 ff        rst     38h
2e33 ff        rst     38h
2e34 ff        rst     38h
2e35 ff        rst     38h
2e36 ff        rst     38h
2e37 ff        rst     38h
2e38 ff        rst     38h
2e39 ff        rst     38h
2e3a ff        rst     38h
2e3b ff        rst     38h
2e3c ff        rst     38h
2e3d ff        rst     38h
2e3e ff        rst     38h
2e3f ff        rst     38h
2e40 ff        rst     38h
2e41 ff        rst     38h
2e42 ff        rst     38h
2e43 ff        rst     38h
2e44 ff        rst     38h
2e45 ff        rst     38h
2e46 ff        rst     38h
2e47 ff        rst     38h
2e48 ff        rst     38h
2e49 ff        rst     38h
2e4a ff        rst     38h
2e4b ff        rst     38h
2e4c ff        rst     38h
2e4d ff        rst     38h
2e4e ff        rst     38h
2e4f ff        rst     38h
2e50 ff        rst     38h
2e51 ff        rst     38h
2e52 ff        rst     38h
2e53 ff        rst     38h
2e54 ff        rst     38h
2e55 ff        rst     38h
2e56 ff        rst     38h
2e57 ff        rst     38h
2e58 ff        rst     38h
2e59 ff        rst     38h
2e5a ff        rst     38h
2e5b ff        rst     38h
2e5c ff        rst     38h
2e5d ff        rst     38h
2e5e ff        rst     38h
2e5f ff        rst     38h
2e60 ff        rst     38h
2e61 ff        rst     38h
2e62 ff        rst     38h
2e63 ff        rst     38h
2e64 ff        rst     38h
2e65 ff        rst     38h
2e66 ff        rst     38h
2e67 ff        rst     38h
2e68 ff        rst     38h
2e69 ff        rst     38h
2e6a ff        rst     38h
2e6b ff        rst     38h
2e6c ff        rst     38h
2e6d ff        rst     38h
2e6e ff        rst     38h
2e6f ff        rst     38h
2e70 ff        rst     38h
2e71 ff        rst     38h
2e72 ff        rst     38h
2e73 ff        rst     38h
2e74 ff        rst     38h
2e75 ff        rst     38h
2e76 ff        rst     38h
2e77 ff        rst     38h
2e78 ff        rst     38h
2e79 ff        rst     38h
2e7a ff        rst     38h
2e7b ff        rst     38h
2e7c ff        rst     38h
2e7d ff        rst     38h
2e7e ff        rst     38h
2e7f ff        rst     38h
2e80 ff        rst     38h
2e81 ff        rst     38h
2e82 ff        rst     38h
2e83 ff        rst     38h
2e84 ff        rst     38h
2e85 ff        rst     38h
2e86 ff        rst     38h
2e87 ff        rst     38h
2e88 ff        rst     38h
2e89 ff        rst     38h
2e8a ff        rst     38h
2e8b ff        rst     38h
2e8c ff        rst     38h
2e8d ff        rst     38h
2e8e ff        rst     38h
2e8f ff        rst     38h
2e90 ff        rst     38h
2e91 ff        rst     38h
2e92 ff        rst     38h
2e93 ff        rst     38h
2e94 ff        rst     38h
2e95 ff        rst     38h
2e96 ff        rst     38h
2e97 ff        rst     38h
2e98 ff        rst     38h
2e99 ff        rst     38h
2e9a ff        rst     38h
2e9b ff        rst     38h
2e9c ff        rst     38h
2e9d ff        rst     38h
2e9e ff        rst     38h
2e9f ff        rst     38h
2ea0 ff        rst     38h
2ea1 ff        rst     38h
2ea2 ff        rst     38h
2ea3 ff        rst     38h
2ea4 ff        rst     38h
2ea5 ff        rst     38h
2ea6 ff        rst     38h
2ea7 ff        rst     38h
2ea8 ff        rst     38h
2ea9 ff        rst     38h
2eaa ff        rst     38h
2eab ff        rst     38h
2eac ff        rst     38h
2ead ff        rst     38h
2eae ff        rst     38h
2eaf ff        rst     38h
2eb0 ff        rst     38h
2eb1 ff        rst     38h
2eb2 ff        rst     38h
2eb3 ff        rst     38h
2eb4 ff        rst     38h
2eb5 ff        rst     38h
2eb6 ff        rst     38h
2eb7 ff        rst     38h
2eb8 ff        rst     38h
2eb9 ff        rst     38h
2eba ff        rst     38h
2ebb ff        rst     38h
2ebc ff        rst     38h
2ebd ff        rst     38h
2ebe ff        rst     38h
2ebf ff        rst     38h
2ec0 ff        rst     38h
2ec1 ff        rst     38h
2ec2 ff        rst     38h
2ec3 ff        rst     38h
2ec4 ff        rst     38h
2ec5 ff        rst     38h
2ec6 ff        rst     38h
2ec7 ff        rst     38h
2ec8 ff        rst     38h
2ec9 ff        rst     38h
2eca ff        rst     38h
2ecb ff        rst     38h
2ecc ff        rst     38h
2ecd ff        rst     38h
2ece ff        rst     38h
2ecf ff        rst     38h
2ed0 ff        rst     38h
2ed1 ff        rst     38h
2ed2 ff        rst     38h
2ed3 ff        rst     38h
2ed4 ff        rst     38h
2ed5 ff        rst     38h
2ed6 ff        rst     38h
2ed7 ff        rst     38h
2ed8 ff        rst     38h
2ed9 ff        rst     38h
2eda ff        rst     38h
2edb ff        rst     38h
2edc ff        rst     38h
2edd ff        rst     38h
2ede ff        rst     38h
2edf ff        rst     38h
2ee0 ff        rst     38h
2ee1 ff        rst     38h
2ee2 ff        rst     38h
2ee3 ff        rst     38h
2ee4 ff        rst     38h
2ee5 ff        rst     38h
2ee6 ff        rst     38h
2ee7 ff        rst     38h
2ee8 ff        rst     38h
2ee9 ff        rst     38h
2eea ff        rst     38h
2eeb ff        rst     38h
2eec ff        rst     38h
2eed ff        rst     38h
2eee ff        rst     38h
2eef ff        rst     38h
2ef0 ff        rst     38h
2ef1 ff        rst     38h
2ef2 ff        rst     38h
2ef3 ff        rst     38h
2ef4 ff        rst     38h
2ef5 ff        rst     38h
2ef6 ff        rst     38h
2ef7 ff        rst     38h
2ef8 ff        rst     38h
2ef9 ff        rst     38h
2efa ff        rst     38h
2efb ff        rst     38h
2efc ff        rst     38h
2efd ff        rst     38h
2efe ff        rst     38h
2eff ff        rst     38h
2f00 ff        rst     38h
2f01 ff        rst     38h
2f02 ff        rst     38h
2f03 ff        rst     38h
2f04 ff        rst     38h
2f05 ff        rst     38h
2f06 ff        rst     38h
2f07 ff        rst     38h
2f08 ff        rst     38h
2f09 ff        rst     38h
2f0a ff        rst     38h
2f0b ff        rst     38h
2f0c ff        rst     38h
2f0d ff        rst     38h
2f0e ff        rst     38h
2f0f ff        rst     38h
2f10 ff        rst     38h
2f11 ff        rst     38h
2f12 ff        rst     38h
2f13 ff        rst     38h
2f14 ff        rst     38h
2f15 ff        rst     38h
2f16 ff        rst     38h
2f17 ff        rst     38h
2f18 ff        rst     38h
2f19 ff        rst     38h
2f1a ff        rst     38h
2f1b ff        rst     38h
2f1c ff        rst     38h
2f1d ff        rst     38h
2f1e ff        rst     38h
2f1f ff        rst     38h
2f20 ff        rst     38h
2f21 ff        rst     38h
2f22 ff        rst     38h
2f23 ff        rst     38h
2f24 ff        rst     38h
2f25 ff        rst     38h
2f26 ff        rst     38h
2f27 ff        rst     38h
2f28 ff        rst     38h
2f29 ff        rst     38h
2f2a ff        rst     38h
2f2b ff        rst     38h
2f2c ff        rst     38h
2f2d ff        rst     38h
2f2e ff        rst     38h
2f2f ff        rst     38h
2f30 ff        rst     38h
2f31 ff        rst     38h
2f32 ff        rst     38h
2f33 ff        rst     38h
2f34 ff        rst     38h
2f35 ff        rst     38h
2f36 ff        rst     38h
2f37 ff        rst     38h
2f38 ff        rst     38h
2f39 ff        rst     38h
2f3a ff        rst     38h
2f3b ff        rst     38h
2f3c ff        rst     38h
2f3d ff        rst     38h
2f3e ff        rst     38h
2f3f ff        rst     38h
2f40 ff        rst     38h
2f41 ff        rst     38h
2f42 ff        rst     38h
2f43 ff        rst     38h
2f44 ff        rst     38h
2f45 ff        rst     38h
2f46 ff        rst     38h
2f47 ff        rst     38h
2f48 ff        rst     38h
2f49 ff        rst     38h
2f4a ff        rst     38h
2f4b ff        rst     38h
2f4c ff        rst     38h
2f4d ff        rst     38h
2f4e ff        rst     38h
2f4f ff        rst     38h
2f50 ff        rst     38h
2f51 ff        rst     38h
2f52 ff        rst     38h
2f53 ff        rst     38h
2f54 ff        rst     38h
2f55 ff        rst     38h
2f56 ff        rst     38h
2f57 ff        rst     38h
2f58 ff        rst     38h
2f59 ff        rst     38h
2f5a ff        rst     38h
2f5b ff        rst     38h
2f5c ff        rst     38h
2f5d ff        rst     38h
2f5e ff        rst     38h
2f5f ff        rst     38h
2f60 ff        rst     38h
2f61 ff        rst     38h
2f62 ff        rst     38h
2f63 ff        rst     38h
2f64 ff        rst     38h
2f65 ff        rst     38h
2f66 ff        rst     38h
2f67 ff        rst     38h
2f68 ff        rst     38h
2f69 ff        rst     38h
2f6a ff        rst     38h
2f6b ff        rst     38h
2f6c ff        rst     38h
2f6d ff        rst     38h
2f6e ff        rst     38h
2f6f ff        rst     38h
2f70 ff        rst     38h
2f71 ff        rst     38h
2f72 ff        rst     38h
2f73 ff        rst     38h
2f74 ff        rst     38h
2f75 ff        rst     38h
2f76 ff        rst     38h
2f77 ff        rst     38h
2f78 ff        rst     38h
2f79 ff        rst     38h
2f7a ff        rst     38h
2f7b ff        rst     38h
2f7c ff        rst     38h
2f7d ff        rst     38h
2f7e ff        rst     38h
2f7f ff        rst     38h
2f80 ff        rst     38h
2f81 ff        rst     38h
2f82 ff        rst     38h
2f83 ff        rst     38h
2f84 ff        rst     38h
2f85 ff        rst     38h
2f86 ff        rst     38h
2f87 ff        rst     38h
2f88 ff        rst     38h
2f89 ff        rst     38h
2f8a ff        rst     38h
2f8b ff        rst     38h
2f8c ff        rst     38h
2f8d ff        rst     38h
2f8e ff        rst     38h
2f8f ff        rst     38h
2f90 ff        rst     38h
2f91 ff        rst     38h
2f92 ff        rst     38h
2f93 ff        rst     38h
2f94 ff        rst     38h
2f95 ff        rst     38h
2f96 ff        rst     38h
2f97 ff        rst     38h
2f98 ff        rst     38h
2f99 ff        rst     38h
2f9a ff        rst     38h
2f9b ff        rst     38h
2f9c ff        rst     38h
2f9d ff        rst     38h
2f9e ff        rst     38h
2f9f ff        rst     38h
2fa0 ff        rst     38h
2fa1 ff        rst     38h
2fa2 ff        rst     38h
2fa3 ff        rst     38h
2fa4 ff        rst     38h
2fa5 ff        rst     38h
2fa6 ff        rst     38h
2fa7 ff        rst     38h
2fa8 ff        rst     38h
2fa9 ff        rst     38h
2faa ff        rst     38h
2fab ff        rst     38h
2fac ff        rst     38h
2fad ff        rst     38h
2fae ff        rst     38h
2faf ff        rst     38h
2fb0 ff        rst     38h
2fb1 ff        rst     38h
2fb2 ff        rst     38h
2fb3 ff        rst     38h
2fb4 ff        rst     38h
2fb5 ff        rst     38h
2fb6 ff        rst     38h
2fb7 ff        rst     38h
2fb8 ff        rst     38h
2fb9 ff        rst     38h
2fba ff        rst     38h
2fbb ff        rst     38h
2fbc ff        rst     38h
2fbd ff        rst     38h
2fbe ff        rst     38h
2fbf ff        rst     38h
2fc0 ff        rst     38h
2fc1 ff        rst     38h
2fc2 ff        rst     38h
2fc3 ff        rst     38h
2fc4 ff        rst     38h
2fc5 ff        rst     38h
2fc6 ff        rst     38h
2fc7 ff        rst     38h
2fc8 ff        rst     38h
2fc9 ff        rst     38h
2fca ff        rst     38h
2fcb ff        rst     38h
2fcc ff        rst     38h
2fcd ff        rst     38h
2fce ff        rst     38h
2fcf ff        rst     38h
2fd0 ff        rst     38h
2fd1 ff        rst     38h
2fd2 ff        rst     38h
2fd3 ff        rst     38h
2fd4 ff        rst     38h
2fd5 ff        rst     38h
2fd6 ff        rst     38h
2fd7 ff        rst     38h
2fd8 ff        rst     38h
2fd9 ff        rst     38h
2fda ff        rst     38h
2fdb ff        rst     38h
2fdc ff        rst     38h
2fdd ff        rst     38h
2fde ff        rst     38h
2fdf ff        rst     38h
2fe0 ff        rst     38h
2fe1 ff        rst     38h
2fe2 ff        rst     38h
2fe3 ff        rst     38h
2fe4 ff        rst     38h
2fe5 ff        rst     38h
2fe6 ff        rst     38h
2fe7 ff        rst     38h
2fe8 ff        rst     38h
2fe9 ff        rst     38h
2fea ff        rst     38h
2feb ff        rst     38h
2fec ff        rst     38h
2fed ff        rst     38h
2fee ff        rst     38h
2fef ff        rst     38h
2ff0 ff        rst     38h
2ff1 ff        rst     38h
2ff2 ff        rst     38h
2ff3 ff        rst     38h
2ff4 ff        rst     38h
2ff5 ff        rst     38h
2ff6 ff        rst     38h
2ff7 ff        rst     38h
2ff8 ff        rst     38h
2ff9 ff        rst     38h
2ffa ff        rst     38h
2ffb ff        rst     38h
2ffc ff        rst     38h
2ffd ff        rst     38h
2ffe ff        rst     38h
2fff ff        rst     38h
3000 ff        rst     38h
3001 ff        rst     38h
3002 ff        rst     38h
3003 ff        rst     38h
3004 ff        rst     38h
3005 ff        rst     38h
3006 ff        rst     38h
3007 ff        rst     38h
3008 ff        rst     38h
3009 ff        rst     38h
300a ff        rst     38h
300b ff        rst     38h
300c ff        rst     38h
300d ff        rst     38h
300e ff        rst     38h
300f ff        rst     38h
3010 ff        rst     38h
3011 ff        rst     38h
3012 ff        rst     38h
3013 ff        rst     38h
3014 ff        rst     38h
3015 ff        rst     38h
3016 ff        rst     38h
3017 ff        rst     38h
3018 ff        rst     38h
3019 ff        rst     38h
301a ff        rst     38h
301b ff        rst     38h
301c ff        rst     38h
301d ff        rst     38h
301e ff        rst     38h
301f ff        rst     38h
3020 ff        rst     38h
3021 ff        rst     38h
3022 ff        rst     38h
3023 ff        rst     38h
3024 ff        rst     38h
3025 ff        rst     38h
3026 ff        rst     38h
3027 ff        rst     38h
3028 ff        rst     38h
3029 ff        rst     38h
302a ff        rst     38h
302b ff        rst     38h
302c ff        rst     38h
302d ff        rst     38h
302e ff        rst     38h
302f ff        rst     38h
3030 ff        rst     38h
3031 ff        rst     38h
3032 ff        rst     38h
3033 ff        rst     38h
3034 ff        rst     38h
3035 ff        rst     38h
3036 ff        rst     38h
3037 ff        rst     38h
3038 ff        rst     38h
3039 ff        rst     38h
303a ff        rst     38h
303b ff        rst     38h
303c ff        rst     38h
303d ff        rst     38h
303e ff        rst     38h
303f ff        rst     38h
3040 ff        rst     38h
3041 ff        rst     38h
3042 ff        rst     38h
3043 ff        rst     38h
3044 ff        rst     38h
3045 ff        rst     38h
3046 ff        rst     38h
3047 ff        rst     38h
3048 ff        rst     38h
3049 ff        rst     38h
304a ff        rst     38h
304b ff        rst     38h
304c ff        rst     38h
304d ff        rst     38h
304e ff        rst     38h
304f ff        rst     38h
3050 ff        rst     38h
3051 ff        rst     38h
3052 ff        rst     38h
3053 ff        rst     38h
3054 ff        rst     38h
3055 ff        rst     38h
3056 ff        rst     38h
3057 ff        rst     38h
3058 ff        rst     38h
3059 ff        rst     38h
305a ff        rst     38h
305b ff        rst     38h
305c ff        rst     38h
305d ff        rst     38h
305e ff        rst     38h
305f ff        rst     38h
3060 ff        rst     38h
3061 ff        rst     38h
3062 ff        rst     38h
3063 ff        rst     38h
3064 ff        rst     38h
3065 ff        rst     38h
3066 ff        rst     38h
3067 ff        rst     38h
3068 ff        rst     38h
3069 ff        rst     38h
306a ff        rst     38h
306b ff        rst     38h
306c ff        rst     38h
306d ff        rst     38h
306e ff        rst     38h
306f ff        rst     38h
3070 ff        rst     38h
3071 ff        rst     38h
3072 ff        rst     38h
3073 ff        rst     38h
3074 ff        rst     38h
3075 ff        rst     38h
3076 ff        rst     38h
3077 ff        rst     38h
3078 ff        rst     38h
3079 ff        rst     38h
307a ff        rst     38h
307b ff        rst     38h
307c ff        rst     38h
307d ff        rst     38h
307e ff        rst     38h
307f ff        rst     38h
3080 ff        rst     38h
3081 ff        rst     38h
3082 ff        rst     38h
3083 ff        rst     38h
3084 ff        rst     38h
3085 ff        rst     38h
3086 ff        rst     38h
3087 ff        rst     38h
3088 ff        rst     38h
3089 ff        rst     38h
308a ff        rst     38h
308b ff        rst     38h
308c ff        rst     38h
308d ff        rst     38h
308e ff        rst     38h
308f ff        rst     38h
3090 ff        rst     38h
3091 ff        rst     38h
3092 ff        rst     38h
3093 ff        rst     38h
3094 ff        rst     38h
3095 ff        rst     38h
3096 ff        rst     38h
3097 ff        rst     38h
3098 ff        rst     38h
3099 ff        rst     38h
309a ff        rst     38h
309b ff        rst     38h
309c ff        rst     38h
309d ff        rst     38h
309e ff        rst     38h
309f ff        rst     38h
30a0 ff        rst     38h
30a1 ff        rst     38h
30a2 ff        rst     38h
30a3 ff        rst     38h
30a4 ff        rst     38h
30a5 ff        rst     38h
30a6 ff        rst     38h
30a7 ff        rst     38h
30a8 ff        rst     38h
30a9 ff        rst     38h
30aa ff        rst     38h
30ab ff        rst     38h
30ac ff        rst     38h
30ad ff        rst     38h
30ae ff        rst     38h
30af ff        rst     38h
30b0 ff        rst     38h
30b1 ff        rst     38h
30b2 ff        rst     38h
30b3 ff        rst     38h
30b4 ff        rst     38h
30b5 ff        rst     38h
30b6 ff        rst     38h
30b7 ff        rst     38h
30b8 ff        rst     38h
30b9 ff        rst     38h
30ba ff        rst     38h
30bb ff        rst     38h
30bc ff        rst     38h
30bd ff        rst     38h
30be ff        rst     38h
30bf ff        rst     38h
30c0 ff        rst     38h
30c1 ff        rst     38h
30c2 ff        rst     38h
30c3 ff        rst     38h
30c4 ff        rst     38h
30c5 ff        rst     38h
30c6 ff        rst     38h
30c7 ff        rst     38h
30c8 ff        rst     38h
30c9 ff        rst     38h
30ca ff        rst     38h
30cb ff        rst     38h
30cc ff        rst     38h
30cd ff        rst     38h
30ce ff        rst     38h
30cf ff        rst     38h
30d0 ff        rst     38h
30d1 ff        rst     38h
30d2 ff        rst     38h
30d3 ff        rst     38h
30d4 ff        rst     38h
30d5 ff        rst     38h
30d6 ff        rst     38h
30d7 ff        rst     38h
30d8 ff        rst     38h
30d9 ff        rst     38h
30da ff        rst     38h
30db ff        rst     38h
30dc ff        rst     38h
30dd ff        rst     38h
30de ff        rst     38h
30df ff        rst     38h
30e0 ff        rst     38h
30e1 ff        rst     38h
30e2 ff        rst     38h
30e3 ff        rst     38h
30e4 ff        rst     38h
30e5 ff        rst     38h
30e6 ff        rst     38h
30e7 ff        rst     38h
30e8 ff        rst     38h
30e9 ff        rst     38h
30ea ff        rst     38h
30eb ff        rst     38h
30ec ff        rst     38h
30ed ff        rst     38h
30ee ff        rst     38h
30ef ff        rst     38h
30f0 ff        rst     38h
30f1 ff        rst     38h
30f2 ff        rst     38h
30f3 ff        rst     38h
30f4 ff        rst     38h
30f5 ff        rst     38h
30f6 ff        rst     38h
30f7 ff        rst     38h
30f8 ff        rst     38h
30f9 ff        rst     38h
30fa ff        rst     38h
30fb ff        rst     38h
30fc ff        rst     38h
30fd ff        rst     38h
30fe ff        rst     38h
30ff ff        rst     38h
3100 ff        rst     38h
3101 ff        rst     38h
3102 ff        rst     38h
3103 ff        rst     38h
3104 ff        rst     38h
3105 ff        rst     38h
3106 ff        rst     38h
3107 ff        rst     38h
3108 ff        rst     38h
3109 ff        rst     38h
310a ff        rst     38h
310b ff        rst     38h
310c ff        rst     38h
310d ff        rst     38h
310e ff        rst     38h
310f ff        rst     38h
3110 ff        rst     38h
3111 ff        rst     38h
3112 ff        rst     38h
3113 ff        rst     38h
3114 ff        rst     38h
3115 ff        rst     38h
3116 ff        rst     38h
3117 ff        rst     38h
3118 ff        rst     38h
3119 ff        rst     38h
311a ff        rst     38h
311b ff        rst     38h
311c ff        rst     38h
311d ff        rst     38h
311e ff        rst     38h
311f ff        rst     38h
3120 ff        rst     38h
3121 ff        rst     38h
3122 ff        rst     38h
3123 ff        rst     38h
3124 ff        rst     38h
3125 ff        rst     38h
3126 ff        rst     38h
3127 ff        rst     38h
3128 ff        rst     38h
3129 ff        rst     38h
312a ff        rst     38h
312b ff        rst     38h
312c ff        rst     38h
312d ff        rst     38h
312e ff        rst     38h
312f ff        rst     38h
3130 ff        rst     38h
3131 ff        rst     38h
3132 ff        rst     38h
3133 ff        rst     38h
3134 ff        rst     38h
3135 ff        rst     38h
3136 ff        rst     38h
3137 ff        rst     38h
3138 ff        rst     38h
3139 ff        rst     38h
313a ff        rst     38h
313b ff        rst     38h
313c ff        rst     38h
313d ff        rst     38h
313e ff        rst     38h
313f ff        rst     38h
3140 ff        rst     38h
3141 ff        rst     38h
3142 ff        rst     38h
3143 ff        rst     38h
3144 ff        rst     38h
3145 ff        rst     38h
3146 ff        rst     38h
3147 ff        rst     38h
3148 ff        rst     38h
3149 ff        rst     38h
314a ff        rst     38h
314b ff        rst     38h
314c ff        rst     38h
314d ff        rst     38h
314e ff        rst     38h
314f ff        rst     38h
3150 ff        rst     38h
3151 ff        rst     38h
3152 ff        rst     38h
3153 ff        rst     38h
3154 ff        rst     38h
3155 ff        rst     38h
3156 ff        rst     38h
3157 ff        rst     38h
3158 ff        rst     38h
3159 ff        rst     38h
315a ff        rst     38h
315b ff        rst     38h
315c ff        rst     38h
315d ff        rst     38h
315e ff        rst     38h
315f ff        rst     38h
3160 ff        rst     38h
3161 ff        rst     38h
3162 ff        rst     38h
3163 ff        rst     38h
3164 ff        rst     38h
3165 ff        rst     38h
3166 ff        rst     38h
3167 ff        rst     38h
3168 ff        rst     38h
3169 ff        rst     38h
316a ff        rst     38h
316b ff        rst     38h
316c ff        rst     38h
316d ff        rst     38h
316e ff        rst     38h
316f ff        rst     38h
3170 ff        rst     38h
3171 ff        rst     38h
3172 ff        rst     38h
3173 ff        rst     38h
3174 ff        rst     38h
3175 ff        rst     38h
3176 ff        rst     38h
3177 ff        rst     38h
3178 ff        rst     38h
3179 ff        rst     38h
317a ff        rst     38h
317b ff        rst     38h
317c ff        rst     38h
317d ff        rst     38h
317e ff        rst     38h
317f ff        rst     38h
3180 ff        rst     38h
3181 ff        rst     38h
3182 ff        rst     38h
3183 ff        rst     38h
3184 ff        rst     38h
3185 ff        rst     38h
3186 ff        rst     38h
3187 ff        rst     38h
3188 ff        rst     38h
3189 ff        rst     38h
318a ff        rst     38h
318b ff        rst     38h
318c ff        rst     38h
318d ff        rst     38h
318e ff        rst     38h
318f ff        rst     38h
3190 ff        rst     38h
3191 ff        rst     38h
3192 ff        rst     38h
3193 ff        rst     38h
3194 ff        rst     38h
3195 ff        rst     38h
3196 ff        rst     38h
3197 ff        rst     38h
3198 ff        rst     38h
3199 ff        rst     38h
319a ff        rst     38h
319b ff        rst     38h
319c ff        rst     38h
319d ff        rst     38h
319e ff        rst     38h
319f ff        rst     38h
31a0 ff        rst     38h
31a1 ff        rst     38h
31a2 ff        rst     38h
31a3 ff        rst     38h
31a4 ff        rst     38h
31a5 ff        rst     38h
31a6 ff        rst     38h
31a7 ff        rst     38h
31a8 ff        rst     38h
31a9 ff        rst     38h
31aa ff        rst     38h
31ab ff        rst     38h
31ac ff        rst     38h
31ad ff        rst     38h
31ae ff        rst     38h
31af ff        rst     38h
31b0 ff        rst     38h
31b1 ff        rst     38h
31b2 ff        rst     38h
31b3 ff        rst     38h
31b4 ff        rst     38h
31b5 ff        rst     38h
31b6 ff        rst     38h
31b7 ff        rst     38h
31b8 ff        rst     38h
31b9 ff        rst     38h
31ba ff        rst     38h
31bb ff        rst     38h
31bc ff        rst     38h
31bd ff        rst     38h
31be ff        rst     38h
31bf ff        rst     38h
31c0 ff        rst     38h
31c1 ff        rst     38h
31c2 ff        rst     38h
31c3 ff        rst     38h
31c4 ff        rst     38h
31c5 ff        rst     38h
31c6 ff        rst     38h
31c7 ff        rst     38h
31c8 ff        rst     38h
31c9 ff        rst     38h
31ca ff        rst     38h
31cb ff        rst     38h
31cc ff        rst     38h
31cd ff        rst     38h
31ce ff        rst     38h
31cf ff        rst     38h
31d0 ff        rst     38h
31d1 ff        rst     38h
31d2 ff        rst     38h
31d3 ff        rst     38h
31d4 ff        rst     38h
31d5 ff        rst     38h
31d6 ff        rst     38h
31d7 ff        rst     38h
31d8 ff        rst     38h
31d9 ff        rst     38h
31da ff        rst     38h
31db ff        rst     38h
31dc ff        rst     38h
31dd ff        rst     38h
31de ff        rst     38h
31df ff        rst     38h
31e0 ff        rst     38h
31e1 ff        rst     38h
31e2 ff        rst     38h
31e3 ff        rst     38h
31e4 ff        rst     38h
31e5 ff        rst     38h
31e6 ff        rst     38h
31e7 ff        rst     38h
31e8 ff        rst     38h
31e9 ff        rst     38h
31ea ff        rst     38h
31eb ff        rst     38h
31ec ff        rst     38h
31ed ff        rst     38h
31ee ff        rst     38h
31ef ff        rst     38h
31f0 ff        rst     38h
31f1 ff        rst     38h
31f2 ff        rst     38h
31f3 ff        rst     38h
31f4 ff        rst     38h
31f5 ff        rst     38h
31f6 ff        rst     38h
31f7 ff        rst     38h
31f8 ff        rst     38h
31f9 ff        rst     38h
31fa ff        rst     38h
31fb ff        rst     38h
31fc ff        rst     38h
31fd ff        rst     38h
31fe ff        rst     38h
31ff ff        rst     38h
3200 ff        rst     38h
3201 ff        rst     38h
3202 ff        rst     38h
3203 ff        rst     38h
3204 ff        rst     38h
3205 ff        rst     38h
3206 ff        rst     38h
3207 ff        rst     38h
3208 ff        rst     38h
3209 ff        rst     38h
320a ff        rst     38h
320b ff        rst     38h
320c ff        rst     38h
320d ff        rst     38h
320e ff        rst     38h
320f ff        rst     38h
3210 ff        rst     38h
3211 ff        rst     38h
3212 ff        rst     38h
3213 ff        rst     38h
3214 ff        rst     38h
3215 ff        rst     38h
3216 ff        rst     38h
3217 ff        rst     38h
3218 ff        rst     38h
3219 ff        rst     38h
321a ff        rst     38h
321b ff        rst     38h
321c ff        rst     38h
321d ff        rst     38h
321e ff        rst     38h
321f ff        rst     38h
3220 ff        rst     38h
3221 ff        rst     38h
3222 ff        rst     38h
3223 ff        rst     38h
3224 ff        rst     38h
3225 ff        rst     38h
3226 ff        rst     38h
3227 ff        rst     38h
3228 ff        rst     38h
3229 ff        rst     38h
322a ff        rst     38h
322b ff        rst     38h
322c ff        rst     38h
322d ff        rst     38h
322e ff        rst     38h
322f ff        rst     38h
3230 ff        rst     38h
3231 ff        rst     38h
3232 ff        rst     38h
3233 ff        rst     38h
3234 ff        rst     38h
3235 ff        rst     38h
3236 ff        rst     38h
3237 ff        rst     38h
3238 ff        rst     38h
3239 ff        rst     38h
323a ff        rst     38h
323b ff        rst     38h
323c ff        rst     38h
323d ff        rst     38h
323e ff        rst     38h
323f ff        rst     38h
3240 ff        rst     38h
3241 ff        rst     38h
3242 ff        rst     38h
3243 ff        rst     38h
3244 ff        rst     38h
3245 ff        rst     38h
3246 ff        rst     38h
3247 ff        rst     38h
3248 ff        rst     38h
3249 ff        rst     38h
324a ff        rst     38h
324b ff        rst     38h
324c ff        rst     38h
324d ff        rst     38h
324e ff        rst     38h
324f ff        rst     38h
3250 ff        rst     38h
3251 ff        rst     38h
3252 ff        rst     38h
3253 ff        rst     38h
3254 ff        rst     38h
3255 ff        rst     38h
3256 ff        rst     38h
3257 ff        rst     38h
3258 ff        rst     38h
3259 ff        rst     38h
325a ff        rst     38h
325b ff        rst     38h
325c ff        rst     38h
325d ff        rst     38h
325e ff        rst     38h
325f ff        rst     38h
3260 ff        rst     38h
3261 ff        rst     38h
3262 ff        rst     38h
3263 ff        rst     38h
3264 ff        rst     38h
3265 ff        rst     38h
3266 ff        rst     38h
3267 ff        rst     38h
3268 ff        rst     38h
3269 ff        rst     38h
326a ff        rst     38h
326b ff        rst     38h
326c ff        rst     38h
326d ff        rst     38h
326e ff        rst     38h
326f ff        rst     38h
3270 ff        rst     38h
3271 ff        rst     38h
3272 ff        rst     38h
3273 ff        rst     38h
3274 ff        rst     38h
3275 ff        rst     38h
3276 ff        rst     38h
3277 ff        rst     38h
3278 ff        rst     38h
3279 ff        rst     38h
327a ff        rst     38h
327b ff        rst     38h
327c ff        rst     38h
327d ff        rst     38h
327e ff        rst     38h
327f ff        rst     38h
3280 ff        rst     38h
3281 ff        rst     38h
3282 ff        rst     38h
3283 ff        rst     38h
3284 ff        rst     38h
3285 ff        rst     38h
3286 ff        rst     38h
3287 ff        rst     38h
3288 ff        rst     38h
3289 ff        rst     38h
328a ff        rst     38h
328b ff        rst     38h
328c ff        rst     38h
328d ff        rst     38h
328e ff        rst     38h
328f ff        rst     38h
3290 ff        rst     38h
3291 ff        rst     38h
3292 ff        rst     38h
3293 ff        rst     38h
3294 ff        rst     38h
3295 ff        rst     38h
3296 ff        rst     38h
3297 ff        rst     38h
3298 ff        rst     38h
3299 ff        rst     38h
329a ff        rst     38h
329b ff        rst     38h
329c ff        rst     38h
329d ff        rst     38h
329e ff        rst     38h
329f ff        rst     38h
32a0 ff        rst     38h
32a1 ff        rst     38h
32a2 ff        rst     38h
32a3 ff        rst     38h
32a4 ff        rst     38h
32a5 ff        rst     38h
32a6 ff        rst     38h
32a7 ff        rst     38h
32a8 ff        rst     38h
32a9 ff        rst     38h
32aa ff        rst     38h
32ab ff        rst     38h
32ac ff        rst     38h
32ad ff        rst     38h
32ae ff        rst     38h
32af ff        rst     38h
32b0 ff        rst     38h
32b1 ff        rst     38h
32b2 ff        rst     38h
32b3 ff        rst     38h
32b4 ff        rst     38h
32b5 ff        rst     38h
32b6 ff        rst     38h
32b7 ff        rst     38h
32b8 ff        rst     38h
32b9 ff        rst     38h
32ba ff        rst     38h
32bb ff        rst     38h
32bc ff        rst     38h
32bd ff        rst     38h
32be ff        rst     38h
32bf ff        rst     38h
32c0 ff        rst     38h
32c1 ff        rst     38h
32c2 ff        rst     38h
32c3 ff        rst     38h
32c4 ff        rst     38h
32c5 ff        rst     38h
32c6 ff        rst     38h
32c7 ff        rst     38h
32c8 ff        rst     38h
32c9 ff        rst     38h
32ca ff        rst     38h
32cb ff        rst     38h
32cc ff        rst     38h
32cd ff        rst     38h
32ce ff        rst     38h
32cf ff        rst     38h
32d0 ff        rst     38h
32d1 ff        rst     38h
32d2 ff        rst     38h
32d3 ff        rst     38h
32d4 ff        rst     38h
32d5 ff        rst     38h
32d6 ff        rst     38h
32d7 ff        rst     38h
32d8 ff        rst     38h
32d9 ff        rst     38h
32da ff        rst     38h
32db ff        rst     38h
32dc ff        rst     38h
32dd ff        rst     38h
32de ff        rst     38h
32df ff        rst     38h
32e0 ff        rst     38h
32e1 ff        rst     38h
32e2 ff        rst     38h
32e3 ff        rst     38h
32e4 ff        rst     38h
32e5 ff        rst     38h
32e6 ff        rst     38h
32e7 ff        rst     38h
32e8 ff        rst     38h
32e9 ff        rst     38h
32ea ff        rst     38h
32eb ff        rst     38h
32ec ff        rst     38h
32ed ff        rst     38h
32ee ff        rst     38h
32ef ff        rst     38h
32f0 ff        rst     38h
32f1 ff        rst     38h
32f2 ff        rst     38h
32f3 ff        rst     38h
32f4 ff        rst     38h
32f5 ff        rst     38h
32f6 ff        rst     38h
32f7 ff        rst     38h
32f8 ff        rst     38h
32f9 ff        rst     38h
32fa ff        rst     38h
32fb ff        rst     38h
32fc ff        rst     38h
32fd ff        rst     38h
32fe ff        rst     38h
32ff ff        rst     38h
3300 ff        rst     38h
3301 ff        rst     38h
3302 ff        rst     38h
3303 ff        rst     38h
3304 ff        rst     38h
3305 ff        rst     38h
3306 ff        rst     38h
3307 ff        rst     38h
3308 ff        rst     38h
3309 ff        rst     38h
330a ff        rst     38h
330b ff        rst     38h
330c ff        rst     38h
330d ff        rst     38h
330e ff        rst     38h
330f ff        rst     38h
3310 ff        rst     38h
3311 ff        rst     38h
3312 ff        rst     38h
3313 ff        rst     38h
3314 ff        rst     38h
3315 ff        rst     38h
3316 ff        rst     38h
3317 ff        rst     38h
3318 ff        rst     38h
3319 ff        rst     38h
331a ff        rst     38h
331b ff        rst     38h
331c ff        rst     38h
331d ff        rst     38h
331e ff        rst     38h
331f ff        rst     38h
3320 ff        rst     38h
3321 ff        rst     38h
3322 ff        rst     38h
3323 ff        rst     38h
3324 ff        rst     38h
3325 ff        rst     38h
3326 ff        rst     38h
3327 ff        rst     38h
3328 ff        rst     38h
3329 ff        rst     38h
332a ff        rst     38h
332b ff        rst     38h
332c ff        rst     38h
332d ff        rst     38h
332e ff        rst     38h
332f ff        rst     38h
3330 ff        rst     38h
3331 ff        rst     38h
3332 ff        rst     38h
3333 ff        rst     38h
3334 ff        rst     38h
3335 ff        rst     38h
3336 ff        rst     38h
3337 ff        rst     38h
3338 ff        rst     38h
3339 ff        rst     38h
333a ff        rst     38h
333b ff        rst     38h
333c ff        rst     38h
333d ff        rst     38h
333e ff        rst     38h
333f ff        rst     38h
3340 ff        rst     38h
3341 ff        rst     38h
3342 ff        rst     38h
3343 ff        rst     38h
3344 ff        rst     38h
3345 ff        rst     38h
3346 ff        rst     38h
3347 ff        rst     38h
3348 ff        rst     38h
3349 ff        rst     38h
334a ff        rst     38h
334b ff        rst     38h
334c ff        rst     38h
334d ff        rst     38h
334e ff        rst     38h
334f ff        rst     38h
3350 ff        rst     38h
3351 ff        rst     38h
3352 ff        rst     38h
3353 ff        rst     38h
3354 ff        rst     38h
3355 ff        rst     38h
3356 ff        rst     38h
3357 ff        rst     38h
3358 ff        rst     38h
3359 ff        rst     38h
335a ff        rst     38h
335b ff        rst     38h
335c ff        rst     38h
335d ff        rst     38h
335e ff        rst     38h
335f ff        rst     38h
3360 ff        rst     38h
3361 ff        rst     38h
3362 ff        rst     38h
3363 ff        rst     38h
3364 ff        rst     38h
3365 ff        rst     38h
3366 ff        rst     38h
3367 ff        rst     38h
3368 ff        rst     38h
3369 ff        rst     38h
336a ff        rst     38h
336b ff        rst     38h
336c ff        rst     38h
336d ff        rst     38h
336e ff        rst     38h
336f ff        rst     38h
3370 ff        rst     38h
3371 ff        rst     38h
3372 ff        rst     38h
3373 ff        rst     38h
3374 ff        rst     38h
3375 ff        rst     38h
3376 ff        rst     38h
3377 ff        rst     38h
3378 ff        rst     38h
3379 ff        rst     38h
337a ff        rst     38h
337b ff        rst     38h
337c ff        rst     38h
337d ff        rst     38h
337e ff        rst     38h
337f ff        rst     38h
3380 ff        rst     38h
3381 ff        rst     38h
3382 ff        rst     38h
3383 ff        rst     38h
3384 ff        rst     38h
3385 ff        rst     38h
3386 ff        rst     38h
3387 ff        rst     38h
3388 ff        rst     38h
3389 ff        rst     38h
338a ff        rst     38h
338b ff        rst     38h
338c ff        rst     38h
338d ff        rst     38h
338e ff        rst     38h
338f ff        rst     38h
3390 ff        rst     38h
3391 ff        rst     38h
3392 ff        rst     38h
3393 ff        rst     38h
3394 ff        rst     38h
3395 ff        rst     38h
3396 ff        rst     38h
3397 ff        rst     38h
3398 ff        rst     38h
3399 ff        rst     38h
339a ff        rst     38h
339b ff        rst     38h
339c ff        rst     38h
339d ff        rst     38h
339e ff        rst     38h
339f ff        rst     38h
33a0 ff        rst     38h
33a1 ff        rst     38h
33a2 ff        rst     38h
33a3 ff        rst     38h
33a4 ff        rst     38h
33a5 ff        rst     38h
33a6 ff        rst     38h
33a7 ff        rst     38h
33a8 ff        rst     38h
33a9 ff        rst     38h
33aa ff        rst     38h
33ab ff        rst     38h
33ac ff        rst     38h
33ad ff        rst     38h
33ae ff        rst     38h
33af ff        rst     38h
33b0 ff        rst     38h
33b1 ff        rst     38h
33b2 ff        rst     38h
33b3 ff        rst     38h
33b4 ff        rst     38h
33b5 ff        rst     38h
33b6 ff        rst     38h
33b7 ff        rst     38h
33b8 ff        rst     38h
33b9 ff        rst     38h
33ba ff        rst     38h
33bb ff        rst     38h
33bc ff        rst     38h
33bd ff        rst     38h
33be ff        rst     38h
33bf ff        rst     38h
33c0 ff        rst     38h
33c1 ff        rst     38h
33c2 ff        rst     38h
33c3 ff        rst     38h
33c4 ff        rst     38h
33c5 ff        rst     38h
33c6 ff        rst     38h
33c7 ff        rst     38h
33c8 ff        rst     38h
33c9 ff        rst     38h
33ca ff        rst     38h
33cb ff        rst     38h
33cc ff        rst     38h
33cd ff        rst     38h
33ce ff        rst     38h
33cf ff        rst     38h
33d0 ff        rst     38h
33d1 ff        rst     38h
33d2 ff        rst     38h
33d3 ff        rst     38h
33d4 ff        rst     38h
33d5 ff        rst     38h
33d6 ff        rst     38h
33d7 ff        rst     38h
33d8 ff        rst     38h
33d9 ff        rst     38h
33da ff        rst     38h
33db ff        rst     38h
33dc ff        rst     38h
33dd ff        rst     38h
33de ff        rst     38h
33df ff        rst     38h
33e0 ff        rst     38h
33e1 ff        rst     38h
33e2 ff        rst     38h
33e3 ff        rst     38h
33e4 ff        rst     38h
33e5 ff        rst     38h
33e6 ff        rst     38h
33e7 ff        rst     38h
33e8 ff        rst     38h
33e9 ff        rst     38h
33ea ff        rst     38h
33eb ff        rst     38h
33ec ff        rst     38h
33ed ff        rst     38h
33ee ff        rst     38h
33ef ff        rst     38h
33f0 ff        rst     38h
33f1 ff        rst     38h
33f2 ff        rst     38h
33f3 ff        rst     38h
33f4 ff        rst     38h
33f5 ff        rst     38h
33f6 ff        rst     38h
33f7 ff        rst     38h
33f8 ff        rst     38h
33f9 ff        rst     38h
33fa ff        rst     38h
33fb ff        rst     38h
33fc ff        rst     38h
33fd ff        rst     38h
33fe ff        rst     38h
33ff ff        rst     38h
3400 ff        rst     38h
3401 ff        rst     38h
3402 ff        rst     38h
3403 ff        rst     38h
3404 ff        rst     38h
3405 ff        rst     38h
3406 ff        rst     38h
3407 ff        rst     38h
3408 ff        rst     38h
3409 ff        rst     38h
340a ff        rst     38h
340b ff        rst     38h
340c ff        rst     38h
340d ff        rst     38h
340e ff        rst     38h
340f ff        rst     38h
3410 ff        rst     38h
3411 ff        rst     38h
3412 ff        rst     38h
3413 ff        rst     38h
3414 ff        rst     38h
3415 ff        rst     38h
3416 ff        rst     38h
3417 ff        rst     38h
3418 ff        rst     38h
3419 ff        rst     38h
341a ff        rst     38h
341b ff        rst     38h
341c ff        rst     38h
341d ff        rst     38h
341e ff        rst     38h
341f ff        rst     38h
3420 ff        rst     38h
3421 ff        rst     38h
3422 ff        rst     38h
3423 ff        rst     38h
3424 ff        rst     38h
3425 ff        rst     38h
3426 ff        rst     38h
3427 ff        rst     38h
3428 ff        rst     38h
3429 ff        rst     38h
342a ff        rst     38h
342b ff        rst     38h
342c ff        rst     38h
342d ff        rst     38h
342e ff        rst     38h
342f ff        rst     38h
3430 ff        rst     38h
3431 ff        rst     38h
3432 ff        rst     38h
3433 ff        rst     38h
3434 ff        rst     38h
3435 ff        rst     38h
3436 ff        rst     38h
3437 ff        rst     38h
3438 ff        rst     38h
3439 ff        rst     38h
343a ff        rst     38h
343b ff        rst     38h
343c ff        rst     38h
343d ff        rst     38h
343e ff        rst     38h
343f ff        rst     38h
3440 ff        rst     38h
3441 ff        rst     38h
3442 ff        rst     38h
3443 ff        rst     38h
3444 ff        rst     38h
3445 ff        rst     38h
3446 ff        rst     38h
3447 ff        rst     38h
3448 ff        rst     38h
3449 ff        rst     38h
344a ff        rst     38h
344b ff        rst     38h
344c ff        rst     38h
344d ff        rst     38h
344e ff        rst     38h
344f ff        rst     38h
3450 ff        rst     38h
3451 ff        rst     38h
3452 ff        rst     38h
3453 ff        rst     38h
3454 ff        rst     38h
3455 ff        rst     38h
3456 ff        rst     38h
3457 ff        rst     38h
3458 ff        rst     38h
3459 ff        rst     38h
345a ff        rst     38h
345b ff        rst     38h
345c ff        rst     38h
345d ff        rst     38h
345e ff        rst     38h
345f ff        rst     38h
3460 ff        rst     38h
3461 ff        rst     38h
3462 ff        rst     38h
3463 ff        rst     38h
3464 ff        rst     38h
3465 ff        rst     38h
3466 ff        rst     38h
3467 ff        rst     38h
3468 ff        rst     38h
3469 ff        rst     38h
346a ff        rst     38h
346b ff        rst     38h
346c ff        rst     38h
346d ff        rst     38h
346e ff        rst     38h
346f ff        rst     38h
3470 ff        rst     38h
3471 ff        rst     38h
3472 ff        rst     38h
3473 ff        rst     38h
3474 ff        rst     38h
3475 ff        rst     38h
3476 ff        rst     38h
3477 ff        rst     38h
3478 ff        rst     38h
3479 ff        rst     38h
347a ff        rst     38h
347b ff        rst     38h
347c ff        rst     38h
347d ff        rst     38h
347e ff        rst     38h
347f ff        rst     38h
3480 ff        rst     38h
3481 ff        rst     38h
3482 ff        rst     38h
3483 ff        rst     38h
3484 ff        rst     38h
3485 ff        rst     38h
3486 ff        rst     38h
3487 ff        rst     38h
3488 ff        rst     38h
3489 ff        rst     38h
348a ff        rst     38h
348b ff        rst     38h
348c ff        rst     38h
348d ff        rst     38h
348e ff        rst     38h
348f ff        rst     38h
3490 ff        rst     38h
3491 ff        rst     38h
3492 ff        rst     38h
3493 ff        rst     38h
3494 ff        rst     38h
3495 ff        rst     38h
3496 ff        rst     38h
3497 ff        rst     38h
3498 ff        rst     38h
3499 ff        rst     38h
349a ff        rst     38h
349b ff        rst     38h
349c ff        rst     38h
349d ff        rst     38h
349e ff        rst     38h
349f ff        rst     38h
34a0 ff        rst     38h
34a1 ff        rst     38h
34a2 ff        rst     38h
34a3 ff        rst     38h
34a4 ff        rst     38h
34a5 ff        rst     38h
34a6 ff        rst     38h
34a7 ff        rst     38h
34a8 ff        rst     38h
34a9 ff        rst     38h
34aa ff        rst     38h
34ab ff        rst     38h
34ac ff        rst     38h
34ad ff        rst     38h
34ae ff        rst     38h
34af ff        rst     38h
34b0 ff        rst     38h
34b1 ff        rst     38h
34b2 ff        rst     38h
34b3 ff        rst     38h
34b4 ff        rst     38h
34b5 ff        rst     38h
34b6 ff        rst     38h
34b7 ff        rst     38h
34b8 ff        rst     38h
34b9 ff        rst     38h
34ba ff        rst     38h
34bb ff        rst     38h
34bc ff        rst     38h
34bd ff        rst     38h
34be ff        rst     38h
34bf ff        rst     38h
34c0 ff        rst     38h
34c1 ff        rst     38h
34c2 ff        rst     38h
34c3 ff        rst     38h
34c4 ff        rst     38h
34c5 ff        rst     38h
34c6 ff        rst     38h
34c7 ff        rst     38h
34c8 ff        rst     38h
34c9 ff        rst     38h
34ca ff        rst     38h
34cb ff        rst     38h
34cc ff        rst     38h
34cd ff        rst     38h
34ce ff        rst     38h
34cf ff        rst     38h
34d0 ff        rst     38h
34d1 ff        rst     38h
34d2 ff        rst     38h
34d3 ff        rst     38h
34d4 ff        rst     38h
34d5 ff        rst     38h
34d6 ff        rst     38h
34d7 ff        rst     38h
34d8 ff        rst     38h
34d9 ff        rst     38h
34da ff        rst     38h
34db ff        rst     38h
34dc ff        rst     38h
34dd ff        rst     38h
34de ff        rst     38h
34df ff        rst     38h
34e0 ff        rst     38h
34e1 ff        rst     38h
34e2 ff        rst     38h
34e3 ff        rst     38h
34e4 ff        rst     38h
34e5 ff        rst     38h
34e6 ff        rst     38h
34e7 ff        rst     38h
34e8 ff        rst     38h
34e9 ff        rst     38h
34ea ff        rst     38h
34eb ff        rst     38h
34ec ff        rst     38h
34ed ff        rst     38h
34ee ff        rst     38h
34ef ff        rst     38h
34f0 ff        rst     38h
34f1 ff        rst     38h
34f2 ff        rst     38h
34f3 ff        rst     38h
34f4 ff        rst     38h
34f5 ff        rst     38h
34f6 ff        rst     38h
34f7 ff        rst     38h
34f8 ff        rst     38h
34f9 ff        rst     38h
34fa ff        rst     38h
34fb ff        rst     38h
34fc ff        rst     38h
34fd ff        rst     38h
34fe ff        rst     38h
34ff ff        rst     38h
3500 ff        rst     38h
3501 ff        rst     38h
3502 ff        rst     38h
3503 ff        rst     38h
3504 ff        rst     38h
3505 ff        rst     38h
3506 ff        rst     38h
3507 ff        rst     38h
3508 ff        rst     38h
3509 ff        rst     38h
350a ff        rst     38h
350b ff        rst     38h
350c ff        rst     38h
350d ff        rst     38h
350e ff        rst     38h
350f ff        rst     38h
3510 ff        rst     38h
3511 ff        rst     38h
3512 ff        rst     38h
3513 ff        rst     38h
3514 ff        rst     38h
3515 ff        rst     38h
3516 ff        rst     38h
3517 ff        rst     38h
3518 ff        rst     38h
3519 ff        rst     38h
351a ff        rst     38h
351b ff        rst     38h
351c ff        rst     38h
351d ff        rst     38h
351e ff        rst     38h
351f ff        rst     38h
3520 ff        rst     38h
3521 ff        rst     38h
3522 ff        rst     38h
3523 ff        rst     38h
3524 ff        rst     38h
3525 ff        rst     38h
3526 ff        rst     38h
3527 ff        rst     38h
3528 ff        rst     38h
3529 ff        rst     38h
352a ff        rst     38h
352b ff        rst     38h
352c ff        rst     38h
352d ff        rst     38h
352e ff        rst     38h
352f ff        rst     38h
3530 ff        rst     38h
3531 ff        rst     38h
3532 ff        rst     38h
3533 ff        rst     38h
3534 ff        rst     38h
3535 ff        rst     38h
3536 ff        rst     38h
3537 ff        rst     38h
3538 ff        rst     38h
3539 ff        rst     38h
353a ff        rst     38h
353b ff        rst     38h
353c ff        rst     38h
353d ff        rst     38h
353e ff        rst     38h
353f ff        rst     38h
3540 ff        rst     38h
3541 ff        rst     38h
3542 ff        rst     38h
3543 ff        rst     38h
3544 ff        rst     38h
3545 ff        rst     38h
3546 ff        rst     38h
3547 ff        rst     38h
3548 ff        rst     38h
3549 ff        rst     38h
354a ff        rst     38h
354b ff        rst     38h
354c ff        rst     38h
354d ff        rst     38h
354e ff        rst     38h
354f ff        rst     38h
3550 ff        rst     38h
3551 ff        rst     38h
3552 ff        rst     38h
3553 ff        rst     38h
3554 ff        rst     38h
3555 ff        rst     38h
3556 ff        rst     38h
3557 ff        rst     38h
3558 ff        rst     38h
3559 ff        rst     38h
355a ff        rst     38h
355b ff        rst     38h
355c ff        rst     38h
355d ff        rst     38h
355e ff        rst     38h
355f ff        rst     38h
3560 ff        rst     38h
3561 ff        rst     38h
3562 ff        rst     38h
3563 ff        rst     38h
3564 ff        rst     38h
3565 ff        rst     38h
3566 ff        rst     38h
3567 ff        rst     38h
3568 ff        rst     38h
3569 ff        rst     38h
356a ff        rst     38h
356b ff        rst     38h
356c ff        rst     38h
356d ff        rst     38h
356e ff        rst     38h
356f ff        rst     38h
3570 ff        rst     38h
3571 ff        rst     38h
3572 ff        rst     38h
3573 ff        rst     38h
3574 ff        rst     38h
3575 ff        rst     38h
3576 ff        rst     38h
3577 ff        rst     38h
3578 ff        rst     38h
3579 ff        rst     38h
357a ff        rst     38h
357b ff        rst     38h
357c ff        rst     38h
357d ff        rst     38h
357e ff        rst     38h
357f ff        rst     38h
3580 ff        rst     38h
3581 ff        rst     38h
3582 ff        rst     38h
3583 ff        rst     38h
3584 ff        rst     38h
3585 ff        rst     38h
3586 ff        rst     38h
3587 ff        rst     38h
3588 ff        rst     38h
3589 ff        rst     38h
358a ff        rst     38h
358b ff        rst     38h
358c ff        rst     38h
358d ff        rst     38h
358e ff        rst     38h
358f ff        rst     38h
3590 ff        rst     38h
3591 ff        rst     38h
3592 ff        rst     38h
3593 ff        rst     38h
3594 ff        rst     38h
3595 ff        rst     38h
3596 ff        rst     38h
3597 ff        rst     38h
3598 ff        rst     38h
3599 ff        rst     38h
359a ff        rst     38h
359b ff        rst     38h
359c ff        rst     38h
359d ff        rst     38h
359e ff        rst     38h
359f ff        rst     38h
35a0 ff        rst     38h
35a1 ff        rst     38h
35a2 ff        rst     38h
35a3 ff        rst     38h
35a4 ff        rst     38h
35a5 ff        rst     38h
35a6 ff        rst     38h
35a7 ff        rst     38h
35a8 ff        rst     38h
35a9 ff        rst     38h
35aa ff        rst     38h
35ab ff        rst     38h
35ac ff        rst     38h
35ad ff        rst     38h
35ae ff        rst     38h
35af ff        rst     38h
35b0 ff        rst     38h
35b1 ff        rst     38h
35b2 ff        rst     38h
35b3 ff        rst     38h
35b4 ff        rst     38h
35b5 ff        rst     38h
35b6 ff        rst     38h
35b7 ff        rst     38h
35b8 ff        rst     38h
35b9 ff        rst     38h
35ba ff        rst     38h
35bb ff        rst     38h
35bc ff        rst     38h
35bd ff        rst     38h
35be ff        rst     38h
35bf ff        rst     38h
35c0 ff        rst     38h
35c1 ff        rst     38h
35c2 ff        rst     38h
35c3 ff        rst     38h
35c4 ff        rst     38h
35c5 ff        rst     38h
35c6 ff        rst     38h
35c7 ff        rst     38h
35c8 ff        rst     38h
35c9 ff        rst     38h
35ca ff        rst     38h
35cb ff        rst     38h
35cc ff        rst     38h
35cd ff        rst     38h
35ce ff        rst     38h
35cf ff        rst     38h
35d0 ff        rst     38h
35d1 ff        rst     38h
35d2 ff        rst     38h
35d3 ff        rst     38h
35d4 ff        rst     38h
35d5 ff        rst     38h
35d6 ff        rst     38h
35d7 ff        rst     38h
35d8 ff        rst     38h
35d9 ff        rst     38h
35da ff        rst     38h
35db ff        rst     38h
35dc ff        rst     38h
35dd ff        rst     38h
35de ff        rst     38h
35df ff        rst     38h
35e0 ff        rst     38h
35e1 ff        rst     38h
35e2 ff        rst     38h
35e3 ff        rst     38h
35e4 ff        rst     38h
35e5 ff        rst     38h
35e6 ff        rst     38h
35e7 ff        rst     38h
35e8 ff        rst     38h
35e9 ff        rst     38h
35ea ff        rst     38h
35eb ff        rst     38h
35ec ff        rst     38h
35ed ff        rst     38h
35ee ff        rst     38h
35ef ff        rst     38h
35f0 ff        rst     38h
35f1 ff        rst     38h
35f2 ff        rst     38h
35f3 ff        rst     38h
35f4 ff        rst     38h
35f5 ff        rst     38h
35f6 ff        rst     38h
35f7 ff        rst     38h
35f8 ff        rst     38h
35f9 ff        rst     38h
35fa ff        rst     38h
35fb ff        rst     38h
35fc ff        rst     38h
35fd ff        rst     38h
35fe ff        rst     38h
35ff ff        rst     38h
3600 ff        rst     38h
3601 ff        rst     38h
3602 ff        rst     38h
3603 ff        rst     38h
3604 ff        rst     38h
3605 ff        rst     38h
3606 ff        rst     38h
3607 ff        rst     38h
3608 ff        rst     38h
3609 ff        rst     38h
360a ff        rst     38h
360b ff        rst     38h
360c ff        rst     38h
360d ff        rst     38h
360e ff        rst     38h
360f ff        rst     38h
3610 ff        rst     38h
3611 ff        rst     38h
3612 ff        rst     38h
3613 ff        rst     38h
3614 ff        rst     38h
3615 ff        rst     38h
3616 ff        rst     38h
3617 ff        rst     38h
3618 ff        rst     38h
3619 ff        rst     38h
361a ff        rst     38h
361b ff        rst     38h
361c ff        rst     38h
361d ff        rst     38h
361e ff        rst     38h
361f ff        rst     38h
3620 ff        rst     38h
3621 ff        rst     38h
3622 ff        rst     38h
3623 ff        rst     38h
3624 ff        rst     38h
3625 ff        rst     38h
3626 ff        rst     38h
3627 ff        rst     38h
3628 ff        rst     38h
3629 ff        rst     38h
362a ff        rst     38h
362b ff        rst     38h
362c ff        rst     38h
362d ff        rst     38h
362e ff        rst     38h
362f ff        rst     38h
3630 ff        rst     38h
3631 ff        rst     38h
3632 ff        rst     38h
3633 ff        rst     38h
3634 ff        rst     38h
3635 ff        rst     38h
3636 ff        rst     38h
3637 ff        rst     38h
3638 ff        rst     38h
3639 ff        rst     38h
363a ff        rst     38h
363b ff        rst     38h
363c ff        rst     38h
363d ff        rst     38h
363e ff        rst     38h
363f ff        rst     38h
3640 ff        rst     38h
3641 ff        rst     38h
3642 ff        rst     38h
3643 ff        rst     38h
3644 ff        rst     38h
3645 ff        rst     38h
3646 ff        rst     38h
3647 ff        rst     38h
3648 ff        rst     38h
3649 ff        rst     38h
364a ff        rst     38h
364b ff        rst     38h
364c ff        rst     38h
364d ff        rst     38h
364e ff        rst     38h
364f ff        rst     38h
3650 ff        rst     38h
3651 ff        rst     38h
3652 ff        rst     38h
3653 ff        rst     38h
3654 ff        rst     38h
3655 ff        rst     38h
3656 ff        rst     38h
3657 ff        rst     38h
3658 ff        rst     38h
3659 ff        rst     38h
365a ff        rst     38h
365b ff        rst     38h
365c ff        rst     38h
365d ff        rst     38h
365e ff        rst     38h
365f ff        rst     38h
3660 ff        rst     38h
3661 ff        rst     38h
3662 ff        rst     38h
3663 ff        rst     38h
3664 ff        rst     38h
3665 ff        rst     38h
3666 ff        rst     38h
3667 ff        rst     38h
3668 ff        rst     38h
3669 ff        rst     38h
366a ff        rst     38h
366b ff        rst     38h
366c ff        rst     38h
366d ff        rst     38h
366e ff        rst     38h
366f ff        rst     38h
3670 ff        rst     38h
3671 ff        rst     38h
3672 ff        rst     38h
3673 ff        rst     38h
3674 ff        rst     38h
3675 ff        rst     38h
3676 ff        rst     38h
3677 ff        rst     38h
3678 ff        rst     38h
3679 ff        rst     38h
367a ff        rst     38h
367b ff        rst     38h
367c ff        rst     38h
367d ff        rst     38h
367e ff        rst     38h
367f ff        rst     38h
3680 ff        rst     38h
3681 ff        rst     38h
3682 ff        rst     38h
3683 ff        rst     38h
3684 ff        rst     38h
3685 ff        rst     38h
3686 ff        rst     38h
3687 ff        rst     38h
3688 ff        rst     38h
3689 ff        rst     38h
368a ff        rst     38h
368b ff        rst     38h
368c ff        rst     38h
368d ff        rst     38h
368e ff        rst     38h
368f ff        rst     38h
3690 ff        rst     38h
3691 ff        rst     38h
3692 ff        rst     38h
3693 ff        rst     38h
3694 ff        rst     38h
3695 ff        rst     38h
3696 ff        rst     38h
3697 ff        rst     38h
3698 ff        rst     38h
3699 ff        rst     38h
369a ff        rst     38h
369b ff        rst     38h
369c ff        rst     38h
369d ff        rst     38h
369e ff        rst     38h
369f ff        rst     38h
36a0 ff        rst     38h
36a1 ff        rst     38h
36a2 ff        rst     38h
36a3 ff        rst     38h
36a4 ff        rst     38h
36a5 ff        rst     38h
36a6 ff        rst     38h
36a7 ff        rst     38h
36a8 ff        rst     38h
36a9 ff        rst     38h
36aa ff        rst     38h
36ab ff        rst     38h
36ac ff        rst     38h
36ad ff        rst     38h
36ae ff        rst     38h
36af ff        rst     38h
36b0 ff        rst     38h
36b1 ff        rst     38h
36b2 ff        rst     38h
36b3 ff        rst     38h
36b4 ff        rst     38h
36b5 ff        rst     38h
36b6 ff        rst     38h
36b7 ff        rst     38h
36b8 ff        rst     38h
36b9 ff        rst     38h
36ba ff        rst     38h
36bb ff        rst     38h
36bc ff        rst     38h
36bd ff        rst     38h
36be ff        rst     38h
36bf ff        rst     38h
36c0 ff        rst     38h
36c1 ff        rst     38h
36c2 ff        rst     38h
36c3 ff        rst     38h
36c4 ff        rst     38h
36c5 ff        rst     38h
36c6 ff        rst     38h
36c7 ff        rst     38h
36c8 ff        rst     38h
36c9 ff        rst     38h
36ca ff        rst     38h
36cb ff        rst     38h
36cc ff        rst     38h
36cd ff        rst     38h
36ce ff        rst     38h
36cf ff        rst     38h
36d0 ff        rst     38h
36d1 ff        rst     38h
36d2 ff        rst     38h
36d3 ff        rst     38h
36d4 ff        rst     38h
36d5 ff        rst     38h
36d6 ff        rst     38h
36d7 ff        rst     38h
36d8 ff        rst     38h
36d9 ff        rst     38h
36da ff        rst     38h
36db ff        rst     38h
36dc ff        rst     38h
36dd ff        rst     38h
36de ff        rst     38h
36df ff        rst     38h
36e0 ff        rst     38h
36e1 ff        rst     38h
36e2 ff        rst     38h
36e3 ff        rst     38h
36e4 ff        rst     38h
36e5 ff        rst     38h
36e6 ff        rst     38h
36e7 ff        rst     38h
36e8 ff        rst     38h
36e9 ff        rst     38h
36ea ff        rst     38h
36eb ff        rst     38h
36ec ff        rst     38h
36ed ff        rst     38h
36ee ff        rst     38h
36ef ff        rst     38h
36f0 ff        rst     38h
36f1 ff        rst     38h
36f2 ff        rst     38h
36f3 ff        rst     38h
36f4 ff        rst     38h
36f5 ff        rst     38h
36f6 ff        rst     38h
36f7 ff        rst     38h
36f8 ff        rst     38h
36f9 ff        rst     38h
36fa ff        rst     38h
36fb ff        rst     38h
36fc ff        rst     38h
36fd ff        rst     38h
36fe ff        rst     38h
36ff ff        rst     38h
3700 ff        rst     38h
3701 ff        rst     38h
3702 ff        rst     38h
3703 ff        rst     38h
3704 ff        rst     38h
3705 ff        rst     38h
3706 ff        rst     38h
3707 ff        rst     38h
3708 ff        rst     38h
3709 ff        rst     38h
370a ff        rst     38h
370b ff        rst     38h
370c ff        rst     38h
370d ff        rst     38h
370e ff        rst     38h
370f ff        rst     38h
3710 ff        rst     38h
3711 ff        rst     38h
3712 ff        rst     38h
3713 ff        rst     38h
3714 ff        rst     38h
3715 ff        rst     38h
3716 ff        rst     38h
3717 ff        rst     38h
3718 ff        rst     38h
3719 ff        rst     38h
371a ff        rst     38h
371b ff        rst     38h
371c ff        rst     38h
371d ff        rst     38h
371e ff        rst     38h
371f ff        rst     38h
3720 ff        rst     38h
3721 ff        rst     38h
3722 ff        rst     38h
3723 ff        rst     38h
3724 ff        rst     38h
3725 ff        rst     38h
3726 ff        rst     38h
3727 ff        rst     38h
3728 ff        rst     38h
3729 ff        rst     38h
372a ff        rst     38h
372b ff        rst     38h
372c ff        rst     38h
372d ff        rst     38h
372e ff        rst     38h
372f ff        rst     38h
3730 ff        rst     38h
3731 ff        rst     38h
3732 ff        rst     38h
3733 ff        rst     38h
3734 ff        rst     38h
3735 ff        rst     38h
3736 ff        rst     38h
3737 ff        rst     38h
3738 ff        rst     38h
3739 ff        rst     38h
373a ff        rst     38h
373b ff        rst     38h
373c ff        rst     38h
373d ff        rst     38h
373e ff        rst     38h
373f ff        rst     38h
3740 ff        rst     38h
3741 ff        rst     38h
3742 ff        rst     38h
3743 ff        rst     38h
3744 ff        rst     38h
3745 ff        rst     38h
3746 ff        rst     38h
3747 ff        rst     38h
3748 ff        rst     38h
3749 ff        rst     38h
374a ff        rst     38h
374b ff        rst     38h
374c ff        rst     38h
374d ff        rst     38h
374e ff        rst     38h
374f ff        rst     38h
3750 ff        rst     38h
3751 ff        rst     38h
3752 ff        rst     38h
3753 ff        rst     38h
3754 ff        rst     38h
3755 ff        rst     38h
3756 ff        rst     38h
3757 ff        rst     38h
3758 ff        rst     38h
3759 ff        rst     38h
375a ff        rst     38h
375b ff        rst     38h
375c ff        rst     38h
375d ff        rst     38h
375e ff        rst     38h
375f ff        rst     38h
3760 ff        rst     38h
3761 ff        rst     38h
3762 ff        rst     38h
3763 ff        rst     38h
3764 ff        rst     38h
3765 ff        rst     38h
3766 ff        rst     38h
3767 ff        rst     38h
3768 ff        rst     38h
3769 ff        rst     38h
376a ff        rst     38h
376b ff        rst     38h
376c ff        rst     38h
376d ff        rst     38h
376e ff        rst     38h
376f ff        rst     38h
3770 ff        rst     38h
3771 ff        rst     38h
3772 ff        rst     38h
3773 ff        rst     38h
3774 ff        rst     38h
3775 ff        rst     38h
3776 ff        rst     38h
3777 ff        rst     38h
3778 ff        rst     38h
3779 ff        rst     38h
377a ff        rst     38h
377b ff        rst     38h
377c ff        rst     38h
377d ff        rst     38h
377e ff        rst     38h
377f ff        rst     38h
3780 ff        rst     38h
3781 ff        rst     38h
3782 ff        rst     38h
3783 ff        rst     38h
3784 ff        rst     38h
3785 ff        rst     38h
3786 ff        rst     38h
3787 ff        rst     38h
3788 ff        rst     38h
3789 ff        rst     38h
378a ff        rst     38h
378b ff        rst     38h
378c ff        rst     38h
378d ff        rst     38h
378e ff        rst     38h
378f ff        rst     38h
3790 ff        rst     38h
3791 ff        rst     38h
3792 ff        rst     38h
3793 ff        rst     38h
3794 ff        rst     38h
3795 ff        rst     38h
3796 ff        rst     38h
3797 ff        rst     38h
3798 ff        rst     38h
3799 ff        rst     38h
379a ff        rst     38h
379b ff        rst     38h
379c ff        rst     38h
379d ff        rst     38h
379e ff        rst     38h
379f ff        rst     38h
37a0 ff        rst     38h
37a1 ff        rst     38h
37a2 ff        rst     38h
37a3 ff        rst     38h
37a4 ff        rst     38h
37a5 ff        rst     38h
37a6 ff        rst     38h
37a7 ff        rst     38h
37a8 ff        rst     38h
37a9 ff        rst     38h
37aa ff        rst     38h
37ab ff        rst     38h
37ac ff        rst     38h
37ad ff        rst     38h
37ae ff        rst     38h
37af ff        rst     38h
37b0 ff        rst     38h
37b1 ff        rst     38h
37b2 ff        rst     38h
37b3 ff        rst     38h
37b4 ff        rst     38h
37b5 ff        rst     38h
37b6 ff        rst     38h
37b7 ff        rst     38h
37b8 ff        rst     38h
37b9 ff        rst     38h
37ba ff        rst     38h
37bb ff        rst     38h
37bc ff        rst     38h
37bd ff        rst     38h
37be ff        rst     38h
37bf ff        rst     38h
37c0 ff        rst     38h
37c1 ff        rst     38h
37c2 ff        rst     38h
37c3 ff        rst     38h
37c4 ff        rst     38h
37c5 ff        rst     38h
37c6 ff        rst     38h
37c7 ff        rst     38h
37c8 ff        rst     38h
37c9 ff        rst     38h
37ca ff        rst     38h
37cb ff        rst     38h
37cc ff        rst     38h
37cd ff        rst     38h
37ce ff        rst     38h
37cf ff        rst     38h
37d0 ff        rst     38h
37d1 ff        rst     38h
37d2 ff        rst     38h
37d3 ff        rst     38h
37d4 ff        rst     38h
37d5 ff        rst     38h
37d6 ff        rst     38h
37d7 ff        rst     38h
37d8 ff        rst     38h
37d9 ff        rst     38h
37da ff        rst     38h
37db ff        rst     38h
37dc ff        rst     38h
37dd ff        rst     38h
37de ff        rst     38h
37df ff        rst     38h
37e0 ff        rst     38h
37e1 ff        rst     38h
37e2 ff        rst     38h
37e3 ff        rst     38h
37e4 ff        rst     38h
37e5 ff        rst     38h
37e6 ff        rst     38h
37e7 ff        rst     38h
37e8 ff        rst     38h
37e9 ff        rst     38h
37ea ff        rst     38h
37eb ff        rst     38h
37ec ff        rst     38h
37ed ff        rst     38h
37ee ff        rst     38h
37ef ff        rst     38h
37f0 ff        rst     38h
37f1 ff        rst     38h
37f2 ff        rst     38h
37f3 ff        rst     38h
37f4 ff        rst     38h
37f5 ff        rst     38h
37f6 ff        rst     38h
37f7 ff        rst     38h
37f8 ff        rst     38h
37f9 ff        rst     38h
37fa ff        rst     38h
37fb ff        rst     38h
37fc ff        rst     38h
37fd ff        rst     38h
37fe ff        rst     38h
37ff ff        rst     38h
3800 ff        rst     38h
3801 ff        rst     38h
3802 ff        rst     38h
3803 ff        rst     38h
3804 ff        rst     38h
3805 ff        rst     38h
3806 ff        rst     38h
3807 ff        rst     38h
3808 ff        rst     38h
3809 ff        rst     38h
380a ff        rst     38h
380b ff        rst     38h
380c ff        rst     38h
380d ff        rst     38h
380e ff        rst     38h
380f ff        rst     38h
3810 ff        rst     38h
3811 ff        rst     38h
3812 ff        rst     38h
3813 ff        rst     38h
3814 ff        rst     38h
3815 ff        rst     38h
3816 ff        rst     38h
3817 ff        rst     38h
3818 ff        rst     38h
3819 ff        rst     38h
381a ff        rst     38h
381b ff        rst     38h
381c ff        rst     38h
381d ff        rst     38h
381e ff        rst     38h
381f ff        rst     38h
3820 ff        rst     38h
3821 ff        rst     38h
3822 ff        rst     38h
3823 ff        rst     38h
3824 ff        rst     38h
3825 ff        rst     38h
3826 ff        rst     38h
3827 ff        rst     38h
3828 ff        rst     38h
3829 ff        rst     38h
382a ff        rst     38h
382b ff        rst     38h
382c ff        rst     38h
382d ff        rst     38h
382e ff        rst     38h
382f ff        rst     38h
3830 ff        rst     38h
3831 ff        rst     38h
3832 ff        rst     38h
3833 ff        rst     38h
3834 ff        rst     38h
3835 ff        rst     38h
3836 ff        rst     38h
3837 ff        rst     38h
3838 ff        rst     38h
3839 ff        rst     38h
383a ff        rst     38h
383b ff        rst     38h
383c ff        rst     38h
383d ff        rst     38h
383e ff        rst     38h
383f ff        rst     38h
3840 ff        rst     38h
3841 ff        rst     38h
3842 ff        rst     38h
3843 ff        rst     38h
3844 ff        rst     38h
3845 ff        rst     38h
3846 ff        rst     38h
3847 ff        rst     38h
3848 ff        rst     38h
3849 ff        rst     38h
384a ff        rst     38h
384b ff        rst     38h
384c ff        rst     38h
384d ff        rst     38h
384e ff        rst     38h
384f ff        rst     38h
3850 ff        rst     38h
3851 ff        rst     38h
3852 ff        rst     38h
3853 ff        rst     38h
3854 ff        rst     38h
3855 ff        rst     38h
3856 ff        rst     38h
3857 ff        rst     38h
3858 ff        rst     38h
3859 ff        rst     38h
385a ff        rst     38h
385b ff        rst     38h
385c ff        rst     38h
385d ff        rst     38h
385e ff        rst     38h
385f ff        rst     38h
3860 ff        rst     38h
3861 ff        rst     38h
3862 ff        rst     38h
3863 ff        rst     38h
3864 ff        rst     38h
3865 ff        rst     38h
3866 ff        rst     38h
3867 ff        rst     38h
3868 ff        rst     38h
3869 ff        rst     38h
386a ff        rst     38h
386b ff        rst     38h
386c ff        rst     38h
386d ff        rst     38h
386e ff        rst     38h
386f ff        rst     38h
3870 ff        rst     38h
3871 ff        rst     38h
3872 ff        rst     38h
3873 ff        rst     38h
3874 ff        rst     38h
3875 ff        rst     38h
3876 ff        rst     38h
3877 ff        rst     38h
3878 ff        rst     38h
3879 ff        rst     38h
387a ff        rst     38h
387b ff        rst     38h
387c ff        rst     38h
387d ff        rst     38h
387e ff        rst     38h
387f ff        rst     38h
3880 ff        rst     38h
3881 ff        rst     38h
3882 ff        rst     38h
3883 ff        rst     38h
3884 ff        rst     38h
3885 ff        rst     38h
3886 ff        rst     38h
3887 ff        rst     38h
3888 ff        rst     38h
3889 ff        rst     38h
388a ff        rst     38h
388b ff        rst     38h
388c ff        rst     38h
388d ff        rst     38h
388e ff        rst     38h
388f ff        rst     38h
3890 ff        rst     38h
3891 ff        rst     38h
3892 ff        rst     38h
3893 ff        rst     38h
3894 ff        rst     38h
3895 ff        rst     38h
3896 ff        rst     38h
3897 ff        rst     38h
3898 ff        rst     38h
3899 ff        rst     38h
389a ff        rst     38h
389b ff        rst     38h
389c ff        rst     38h
389d ff        rst     38h
389e ff        rst     38h
389f ff        rst     38h
38a0 ff        rst     38h
38a1 ff        rst     38h
38a2 ff        rst     38h
38a3 ff        rst     38h
38a4 ff        rst     38h
38a5 ff        rst     38h
38a6 ff        rst     38h
38a7 ff        rst     38h
38a8 ff        rst     38h
38a9 ff        rst     38h
38aa ff        rst     38h
38ab ff        rst     38h
38ac ff        rst     38h
38ad ff        rst     38h
38ae ff        rst     38h
38af ff        rst     38h
38b0 ff        rst     38h
38b1 ff        rst     38h
38b2 ff        rst     38h
38b3 ff        rst     38h
38b4 ff        rst     38h
38b5 ff        rst     38h
38b6 ff        rst     38h
38b7 ff        rst     38h
38b8 ff        rst     38h
38b9 ff        rst     38h
38ba ff        rst     38h
38bb ff        rst     38h
38bc ff        rst     38h
38bd ff        rst     38h
38be ff        rst     38h
38bf ff        rst     38h
38c0 ff        rst     38h
38c1 ff        rst     38h
38c2 ff        rst     38h
38c3 ff        rst     38h
38c4 ff        rst     38h
38c5 ff        rst     38h
38c6 ff        rst     38h
38c7 ff        rst     38h
38c8 ff        rst     38h
38c9 ff        rst     38h
38ca ff        rst     38h
38cb ff        rst     38h
38cc ff        rst     38h
38cd ff        rst     38h
38ce ff        rst     38h
38cf ff        rst     38h
38d0 ff        rst     38h
38d1 ff        rst     38h
38d2 ff        rst     38h
38d3 ff        rst     38h
38d4 ff        rst     38h
38d5 ff        rst     38h
38d6 ff        rst     38h
38d7 ff        rst     38h
38d8 ff        rst     38h
38d9 ff        rst     38h
38da ff        rst     38h
38db ff        rst     38h
38dc ff        rst     38h
38dd ff        rst     38h
38de ff        rst     38h
38df ff        rst     38h
38e0 ff        rst     38h
38e1 ff        rst     38h
38e2 ff        rst     38h
38e3 ff        rst     38h
38e4 ff        rst     38h
38e5 ff        rst     38h
38e6 ff        rst     38h
38e7 ff        rst     38h
38e8 ff        rst     38h
38e9 ff        rst     38h
38ea ff        rst     38h
38eb ff        rst     38h
38ec ff        rst     38h
38ed ff        rst     38h
38ee ff        rst     38h
38ef ff        rst     38h
38f0 ff        rst     38h
38f1 ff        rst     38h
38f2 ff        rst     38h
38f3 ff        rst     38h
38f4 ff        rst     38h
38f5 ff        rst     38h
38f6 ff        rst     38h
38f7 ff        rst     38h
38f8 ff        rst     38h
38f9 ff        rst     38h
38fa ff        rst     38h
38fb ff        rst     38h
38fc ff        rst     38h
38fd ff        rst     38h
38fe ff        rst     38h
38ff ff        rst     38h
3900 ff        rst     38h
3901 ff        rst     38h
3902 ff        rst     38h
3903 ff        rst     38h
3904 ff        rst     38h
3905 ff        rst     38h
3906 ff        rst     38h
3907 ff        rst     38h
3908 ff        rst     38h
3909 ff        rst     38h
390a ff        rst     38h
390b ff        rst     38h
390c ff        rst     38h
390d ff        rst     38h
390e ff        rst     38h
390f ff        rst     38h
3910 ff        rst     38h
3911 ff        rst     38h
3912 ff        rst     38h
3913 ff        rst     38h
3914 ff        rst     38h
3915 ff        rst     38h
3916 ff        rst     38h
3917 ff        rst     38h
3918 ff        rst     38h
3919 ff        rst     38h
391a ff        rst     38h
391b ff        rst     38h
391c ff        rst     38h
391d ff        rst     38h
391e ff        rst     38h
391f ff        rst     38h
3920 ff        rst     38h
3921 ff        rst     38h
3922 ff        rst     38h
3923 ff        rst     38h
3924 ff        rst     38h
3925 ff        rst     38h
3926 ff        rst     38h
3927 ff        rst     38h
3928 ff        rst     38h
3929 ff        rst     38h
392a ff        rst     38h
392b ff        rst     38h
392c ff        rst     38h
392d ff        rst     38h
392e ff        rst     38h
392f ff        rst     38h
3930 ff        rst     38h
3931 ff        rst     38h
3932 ff        rst     38h
3933 ff        rst     38h
3934 ff        rst     38h
3935 ff        rst     38h
3936 ff        rst     38h
3937 ff        rst     38h
3938 ff        rst     38h
3939 ff        rst     38h
393a ff        rst     38h
393b ff        rst     38h
393c ff        rst     38h
393d ff        rst     38h
393e ff        rst     38h
393f ff        rst     38h
3940 ff        rst     38h
3941 ff        rst     38h
3942 ff        rst     38h
3943 ff        rst     38h
3944 ff        rst     38h
3945 ff        rst     38h
3946 ff        rst     38h
3947 ff        rst     38h
3948 ff        rst     38h
3949 ff        rst     38h
394a ff        rst     38h
394b ff        rst     38h
394c ff        rst     38h
394d ff        rst     38h
394e ff        rst     38h
394f ff        rst     38h
3950 ff        rst     38h
3951 ff        rst     38h
3952 ff        rst     38h
3953 ff        rst     38h
3954 ff        rst     38h
3955 ff        rst     38h
3956 ff        rst     38h
3957 ff        rst     38h
3958 ff        rst     38h
3959 ff        rst     38h
395a ff        rst     38h
395b ff        rst     38h
395c ff        rst     38h
395d ff        rst     38h
395e ff        rst     38h
395f ff        rst     38h
3960 ff        rst     38h
3961 ff        rst     38h
3962 ff        rst     38h
3963 ff        rst     38h
3964 ff        rst     38h
3965 ff        rst     38h
3966 ff        rst     38h
3967 ff        rst     38h
3968 ff        rst     38h
3969 ff        rst     38h
396a ff        rst     38h
396b ff        rst     38h
396c ff        rst     38h
396d ff        rst     38h
396e ff        rst     38h
396f ff        rst     38h
3970 ff        rst     38h
3971 ff        rst     38h
3972 ff        rst     38h
3973 ff        rst     38h
3974 ff        rst     38h
3975 ff        rst     38h
3976 ff        rst     38h
3977 ff        rst     38h
3978 ff        rst     38h
3979 ff        rst     38h
397a ff        rst     38h
397b ff        rst     38h
397c ff        rst     38h
397d ff        rst     38h
397e ff        rst     38h
397f ff        rst     38h
3980 ff        rst     38h
3981 ff        rst     38h
3982 ff        rst     38h
3983 ff        rst     38h
3984 ff        rst     38h
3985 ff        rst     38h
3986 ff        rst     38h
3987 ff        rst     38h
3988 ff        rst     38h
3989 ff        rst     38h
398a ff        rst     38h
398b ff        rst     38h
398c ff        rst     38h
398d ff        rst     38h
398e ff        rst     38h
398f ff        rst     38h
3990 ff        rst     38h
3991 ff        rst     38h
3992 ff        rst     38h
3993 ff        rst     38h
3994 ff        rst     38h
3995 ff        rst     38h
3996 ff        rst     38h
3997 ff        rst     38h
3998 ff        rst     38h
3999 ff        rst     38h
399a ff        rst     38h
399b ff        rst     38h
399c ff        rst     38h
399d ff        rst     38h
399e ff        rst     38h
399f ff        rst     38h
39a0 ff        rst     38h
39a1 ff        rst     38h
39a2 ff        rst     38h
39a3 ff        rst     38h
39a4 ff        rst     38h
39a5 ff        rst     38h
39a6 ff        rst     38h
39a7 ff        rst     38h
39a8 ff        rst     38h
39a9 ff        rst     38h
39aa ff        rst     38h
39ab ff        rst     38h
39ac ff        rst     38h
39ad ff        rst     38h
39ae ff        rst     38h
39af ff        rst     38h
39b0 ff        rst     38h
39b1 ff        rst     38h
39b2 ff        rst     38h
39b3 ff        rst     38h
39b4 ff        rst     38h
39b5 ff        rst     38h
39b6 ff        rst     38h
39b7 ff        rst     38h
39b8 ff        rst     38h
39b9 ff        rst     38h
39ba ff        rst     38h
39bb ff        rst     38h
39bc ff        rst     38h
39bd ff        rst     38h
39be ff        rst     38h
39bf ff        rst     38h
39c0 ff        rst     38h
39c1 ff        rst     38h
39c2 ff        rst     38h
39c3 ff        rst     38h
39c4 ff        rst     38h
39c5 ff        rst     38h
39c6 ff        rst     38h
39c7 ff        rst     38h
39c8 ff        rst     38h
39c9 ff        rst     38h
39ca ff        rst     38h
39cb ff        rst     38h
39cc ff        rst     38h
39cd ff        rst     38h
39ce ff        rst     38h
39cf ff        rst     38h
39d0 ff        rst     38h
39d1 ff        rst     38h
39d2 ff        rst     38h
39d3 ff        rst     38h
39d4 ff        rst     38h
39d5 ff        rst     38h
39d6 ff        rst     38h
39d7 ff        rst     38h
39d8 ff        rst     38h
39d9 ff        rst     38h
39da ff        rst     38h
39db ff        rst     38h
39dc ff        rst     38h
39dd ff        rst     38h
39de ff        rst     38h
39df ff        rst     38h
39e0 ff        rst     38h
39e1 ff        rst     38h
39e2 ff        rst     38h
39e3 ff        rst     38h
39e4 ff        rst     38h
39e5 ff        rst     38h
39e6 ff        rst     38h
39e7 ff        rst     38h
39e8 ff        rst     38h
39e9 ff        rst     38h
39ea ff        rst     38h
39eb ff        rst     38h
39ec ff        rst     38h
39ed ff        rst     38h
39ee ff        rst     38h
39ef ff        rst     38h
39f0 ff        rst     38h
39f1 ff        rst     38h
39f2 ff        rst     38h
39f3 ff        rst     38h
39f4 ff        rst     38h
39f5 ff        rst     38h
39f6 ff        rst     38h
39f7 ff        rst     38h
39f8 ff        rst     38h
39f9 ff        rst     38h
39fa ff        rst     38h
39fb ff        rst     38h
39fc ff        rst     38h
39fd ff        rst     38h
39fe ff        rst     38h
39ff ff        rst     38h
3a00 ff        rst     38h
3a01 ff        rst     38h
3a02 ff        rst     38h
3a03 ff        rst     38h
3a04 ff        rst     38h
3a05 ff        rst     38h
3a06 ff        rst     38h
3a07 ff        rst     38h
3a08 ff        rst     38h
3a09 ff        rst     38h
3a0a ff        rst     38h
3a0b ff        rst     38h
3a0c ff        rst     38h
3a0d ff        rst     38h
3a0e ff        rst     38h
3a0f ff        rst     38h
3a10 ff        rst     38h
3a11 ff        rst     38h
3a12 ff        rst     38h
3a13 ff        rst     38h
3a14 ff        rst     38h
3a15 ff        rst     38h
3a16 ff        rst     38h
3a17 ff        rst     38h
3a18 ff        rst     38h
3a19 ff        rst     38h
3a1a ff        rst     38h
3a1b ff        rst     38h
3a1c ff        rst     38h
3a1d ff        rst     38h
3a1e ff        rst     38h
3a1f ff        rst     38h
3a20 ff        rst     38h
3a21 ff        rst     38h
3a22 ff        rst     38h
3a23 ff        rst     38h
3a24 ff        rst     38h
3a25 ff        rst     38h
3a26 ff        rst     38h
3a27 ff        rst     38h
3a28 ff        rst     38h
3a29 ff        rst     38h
3a2a ff        rst     38h
3a2b ff        rst     38h
3a2c ff        rst     38h
3a2d ff        rst     38h
3a2e ff        rst     38h
3a2f ff        rst     38h
3a30 ff        rst     38h
3a31 ff        rst     38h
3a32 ff        rst     38h
3a33 ff        rst     38h
3a34 ff        rst     38h
3a35 ff        rst     38h
3a36 ff        rst     38h
3a37 ff        rst     38h
3a38 ff        rst     38h
3a39 ff        rst     38h
3a3a ff        rst     38h
3a3b ff        rst     38h
3a3c ff        rst     38h
3a3d ff        rst     38h
3a3e ff        rst     38h
3a3f ff        rst     38h
3a40 ff        rst     38h
3a41 ff        rst     38h
3a42 ff        rst     38h
3a43 ff        rst     38h
3a44 ff        rst     38h
3a45 ff        rst     38h
3a46 ff        rst     38h
3a47 ff        rst     38h
3a48 ff        rst     38h
3a49 ff        rst     38h
3a4a ff        rst     38h
3a4b ff        rst     38h
3a4c ff        rst     38h
3a4d ff        rst     38h
3a4e ff        rst     38h
3a4f ff        rst     38h
3a50 ff        rst     38h
3a51 ff        rst     38h
3a52 ff        rst     38h
3a53 ff        rst     38h
3a54 ff        rst     38h
3a55 ff        rst     38h
3a56 ff        rst     38h
3a57 ff        rst     38h
3a58 ff        rst     38h
3a59 ff        rst     38h
3a5a ff        rst     38h
3a5b ff        rst     38h
3a5c ff        rst     38h
3a5d ff        rst     38h
3a5e ff        rst     38h
3a5f ff        rst     38h
3a60 ff        rst     38h
3a61 ff        rst     38h
3a62 ff        rst     38h
3a63 ff        rst     38h
3a64 ff        rst     38h
3a65 ff        rst     38h
3a66 ff        rst     38h
3a67 ff        rst     38h
3a68 ff        rst     38h
3a69 ff        rst     38h
3a6a ff        rst     38h
3a6b ff        rst     38h
3a6c ff        rst     38h
3a6d ff        rst     38h
3a6e ff        rst     38h
3a6f ff        rst     38h
3a70 ff        rst     38h
3a71 ff        rst     38h
3a72 ff        rst     38h
3a73 ff        rst     38h
3a74 ff        rst     38h
3a75 ff        rst     38h
3a76 ff        rst     38h
3a77 ff        rst     38h
3a78 ff        rst     38h
3a79 ff        rst     38h
3a7a ff        rst     38h
3a7b ff        rst     38h
3a7c ff        rst     38h
3a7d ff        rst     38h
3a7e ff        rst     38h
3a7f ff        rst     38h
3a80 ff        rst     38h
3a81 ff        rst     38h
3a82 ff        rst     38h
3a83 ff        rst     38h
3a84 ff        rst     38h
3a85 ff        rst     38h
3a86 ff        rst     38h
3a87 ff        rst     38h
3a88 ff        rst     38h
3a89 ff        rst     38h
3a8a ff        rst     38h
3a8b ff        rst     38h
3a8c ff        rst     38h
3a8d ff        rst     38h
3a8e ff        rst     38h
3a8f ff        rst     38h
3a90 ff        rst     38h
3a91 ff        rst     38h
3a92 ff        rst     38h
3a93 ff        rst     38h
3a94 ff        rst     38h
3a95 ff        rst     38h
3a96 ff        rst     38h
3a97 ff        rst     38h
3a98 ff        rst     38h
3a99 ff        rst     38h
3a9a ff        rst     38h
3a9b ff        rst     38h
3a9c ff        rst     38h
3a9d ff        rst     38h
3a9e ff        rst     38h
3a9f ff        rst     38h
3aa0 ff        rst     38h
3aa1 ff        rst     38h
3aa2 ff        rst     38h
3aa3 ff        rst     38h
3aa4 ff        rst     38h
3aa5 ff        rst     38h
3aa6 ff        rst     38h
3aa7 ff        rst     38h
3aa8 ff        rst     38h
3aa9 ff        rst     38h
3aaa ff        rst     38h
3aab ff        rst     38h
3aac ff        rst     38h
3aad ff        rst     38h
3aae ff        rst     38h
3aaf ff        rst     38h
3ab0 ff        rst     38h
3ab1 ff        rst     38h
3ab2 ff        rst     38h
3ab3 ff        rst     38h
3ab4 ff        rst     38h
3ab5 ff        rst     38h
3ab6 ff        rst     38h
3ab7 ff        rst     38h
3ab8 ff        rst     38h
3ab9 ff        rst     38h
3aba ff        rst     38h
3abb ff        rst     38h
3abc ff        rst     38h
3abd ff        rst     38h
3abe ff        rst     38h
3abf ff        rst     38h
3ac0 ff        rst     38h
3ac1 ff        rst     38h
3ac2 ff        rst     38h
3ac3 ff        rst     38h
3ac4 ff        rst     38h
3ac5 ff        rst     38h
3ac6 ff        rst     38h
3ac7 ff        rst     38h
3ac8 ff        rst     38h
3ac9 ff        rst     38h
3aca ff        rst     38h
3acb ff        rst     38h
3acc ff        rst     38h
3acd ff        rst     38h
3ace ff        rst     38h
3acf ff        rst     38h
3ad0 ff        rst     38h
3ad1 ff        rst     38h
3ad2 ff        rst     38h
3ad3 ff        rst     38h
3ad4 ff        rst     38h
3ad5 ff        rst     38h
3ad6 ff        rst     38h
3ad7 ff        rst     38h
3ad8 ff        rst     38h
3ad9 ff        rst     38h
3ada ff        rst     38h
3adb ff        rst     38h
3adc ff        rst     38h
3add ff        rst     38h
3ade ff        rst     38h
3adf ff        rst     38h
3ae0 ff        rst     38h
3ae1 ff        rst     38h
3ae2 ff        rst     38h
3ae3 ff        rst     38h
3ae4 ff        rst     38h
3ae5 ff        rst     38h
3ae6 ff        rst     38h
3ae7 ff        rst     38h
3ae8 ff        rst     38h
3ae9 ff        rst     38h
3aea ff        rst     38h
3aeb ff        rst     38h
3aec ff        rst     38h
3aed ff        rst     38h
3aee ff        rst     38h
3aef ff        rst     38h
3af0 ff        rst     38h
3af1 ff        rst     38h
3af2 ff        rst     38h
3af3 ff        rst     38h
3af4 ff        rst     38h
3af5 ff        rst     38h
3af6 ff        rst     38h
3af7 ff        rst     38h
3af8 ff        rst     38h
3af9 ff        rst     38h
3afa ff        rst     38h
3afb ff        rst     38h
3afc ff        rst     38h
3afd ff        rst     38h
3afe ff        rst     38h
3aff ff        rst     38h
3b00 ff        rst     38h
3b01 ff        rst     38h
3b02 ff        rst     38h
3b03 ff        rst     38h
3b04 ff        rst     38h
3b05 ff        rst     38h
3b06 ff        rst     38h
3b07 ff        rst     38h
3b08 ff        rst     38h
3b09 ff        rst     38h
3b0a ff        rst     38h
3b0b ff        rst     38h
3b0c ff        rst     38h
3b0d ff        rst     38h
3b0e ff        rst     38h
3b0f ff        rst     38h
3b10 ff        rst     38h
3b11 ff        rst     38h
3b12 ff        rst     38h
3b13 ff        rst     38h
3b14 ff        rst     38h
3b15 ff        rst     38h
3b16 ff        rst     38h
3b17 ff        rst     38h
3b18 ff        rst     38h
3b19 ff        rst     38h
3b1a ff        rst     38h
3b1b ff        rst     38h
3b1c ff        rst     38h
3b1d ff        rst     38h
3b1e ff        rst     38h
3b1f ff        rst     38h
3b20 ff        rst     38h
3b21 ff        rst     38h
3b22 ff        rst     38h
3b23 ff        rst     38h
3b24 ff        rst     38h
3b25 ff        rst     38h
3b26 ff        rst     38h
3b27 ff        rst     38h
3b28 ff        rst     38h
3b29 ff        rst     38h
3b2a ff        rst     38h
3b2b ff        rst     38h
3b2c ff        rst     38h
3b2d ff        rst     38h
3b2e ff        rst     38h
3b2f ff        rst     38h
3b30 ff        rst     38h
3b31 ff        rst     38h
3b32 ff        rst     38h
3b33 ff        rst     38h
3b34 ff        rst     38h
3b35 ff        rst     38h
3b36 ff        rst     38h
3b37 ff        rst     38h
3b38 ff        rst     38h
3b39 ff        rst     38h
3b3a ff        rst     38h
3b3b ff        rst     38h
3b3c ff        rst     38h
3b3d ff        rst     38h
3b3e ff        rst     38h
3b3f ff        rst     38h
3b40 ff        rst     38h
3b41 ff        rst     38h
3b42 ff        rst     38h
3b43 ff        rst     38h
3b44 ff        rst     38h
3b45 ff        rst     38h
3b46 ff        rst     38h
3b47 ff        rst     38h
3b48 ff        rst     38h
3b49 ff        rst     38h
3b4a ff        rst     38h
3b4b ff        rst     38h
3b4c ff        rst     38h
3b4d ff        rst     38h
3b4e ff        rst     38h
3b4f ff        rst     38h
3b50 ff        rst     38h
3b51 ff        rst     38h
3b52 ff        rst     38h
3b53 ff        rst     38h
3b54 ff        rst     38h
3b55 ff        rst     38h
3b56 ff        rst     38h
3b57 ff        rst     38h
3b58 ff        rst     38h
3b59 ff        rst     38h
3b5a ff        rst     38h
3b5b ff        rst     38h
3b5c ff        rst     38h
3b5d ff        rst     38h
3b5e ff        rst     38h
3b5f ff        rst     38h
3b60 ff        rst     38h
3b61 ff        rst     38h
3b62 ff        rst     38h
3b63 ff        rst     38h
3b64 ff        rst     38h
3b65 ff        rst     38h
3b66 ff        rst     38h
3b67 ff        rst     38h
3b68 ff        rst     38h
3b69 ff        rst     38h
3b6a ff        rst     38h
3b6b ff        rst     38h
3b6c ff        rst     38h
3b6d ff        rst     38h
3b6e ff        rst     38h
3b6f ff        rst     38h
3b70 ff        rst     38h
3b71 ff        rst     38h
3b72 ff        rst     38h
3b73 ff        rst     38h
3b74 ff        rst     38h
3b75 ff        rst     38h
3b76 ff        rst     38h
3b77 ff        rst     38h
3b78 ff        rst     38h
3b79 ff        rst     38h
3b7a ff        rst     38h
3b7b ff        rst     38h
3b7c ff        rst     38h
3b7d ff        rst     38h
3b7e ff        rst     38h
3b7f ff        rst     38h
3b80 ff        rst     38h
3b81 ff        rst     38h
3b82 ff        rst     38h
3b83 ff        rst     38h
3b84 ff        rst     38h
3b85 ff        rst     38h
3b86 ff        rst     38h
3b87 ff        rst     38h
3b88 ff        rst     38h
3b89 ff        rst     38h
3b8a ff        rst     38h
3b8b ff        rst     38h
3b8c ff        rst     38h
3b8d ff        rst     38h
3b8e ff        rst     38h
3b8f ff        rst     38h
3b90 ff        rst     38h
3b91 ff        rst     38h
3b92 ff        rst     38h
3b93 ff        rst     38h
3b94 ff        rst     38h
3b95 ff        rst     38h
3b96 ff        rst     38h
3b97 ff        rst     38h
3b98 ff        rst     38h
3b99 ff        rst     38h
3b9a ff        rst     38h
3b9b ff        rst     38h
3b9c ff        rst     38h
3b9d ff        rst     38h
3b9e ff        rst     38h
3b9f ff        rst     38h
3ba0 ff        rst     38h
3ba1 ff        rst     38h
3ba2 ff        rst     38h
3ba3 ff        rst     38h
3ba4 ff        rst     38h
3ba5 ff        rst     38h
3ba6 ff        rst     38h
3ba7 ff        rst     38h
3ba8 ff        rst     38h
3ba9 ff        rst     38h
3baa ff        rst     38h
3bab ff        rst     38h
3bac ff        rst     38h
3bad ff        rst     38h
3bae ff        rst     38h
3baf ff        rst     38h
3bb0 ff        rst     38h
3bb1 ff        rst     38h
3bb2 ff        rst     38h
3bb3 ff        rst     38h
3bb4 ff        rst     38h
3bb5 ff        rst     38h
3bb6 ff        rst     38h
3bb7 ff        rst     38h
3bb8 ff        rst     38h
3bb9 ff        rst     38h
3bba ff        rst     38h
3bbb ff        rst     38h
3bbc ff        rst     38h
3bbd ff        rst     38h
3bbe ff        rst     38h
3bbf ff        rst     38h
3bc0 ff        rst     38h
3bc1 ff        rst     38h
3bc2 ff        rst     38h
3bc3 ff        rst     38h
3bc4 ff        rst     38h
3bc5 ff        rst     38h
3bc6 ff        rst     38h
3bc7 ff        rst     38h
3bc8 ff        rst     38h
3bc9 ff        rst     38h
3bca ff        rst     38h
3bcb ff        rst     38h
3bcc ff        rst     38h
3bcd ff        rst     38h
3bce ff        rst     38h
3bcf ff        rst     38h
3bd0 ff        rst     38h
3bd1 ff        rst     38h
3bd2 ff        rst     38h
3bd3 ff        rst     38h
3bd4 ff        rst     38h
3bd5 ff        rst     38h
3bd6 ff        rst     38h
3bd7 ff        rst     38h
3bd8 ff        rst     38h
3bd9 ff        rst     38h
3bda ff        rst     38h
3bdb ff        rst     38h
3bdc ff        rst     38h
3bdd ff        rst     38h
3bde ff        rst     38h
3bdf ff        rst     38h
3be0 ff        rst     38h
3be1 ff        rst     38h
3be2 ff        rst     38h
3be3 ff        rst     38h
3be4 ff        rst     38h
3be5 ff        rst     38h
3be6 ff        rst     38h
3be7 ff        rst     38h
3be8 ff        rst     38h
3be9 ff        rst     38h
3bea ff        rst     38h
3beb ff        rst     38h
3bec ff        rst     38h
3bed ff        rst     38h
3bee ff        rst     38h
3bef ff        rst     38h
3bf0 ff        rst     38h
3bf1 ff        rst     38h
3bf2 ff        rst     38h
3bf3 ff        rst     38h
3bf4 ff        rst     38h
3bf5 ff        rst     38h
3bf6 ff        rst     38h
3bf7 ff        rst     38h
3bf8 ff        rst     38h
3bf9 ff        rst     38h
3bfa ff        rst     38h
3bfb ff        rst     38h
3bfc ff        rst     38h
3bfd ff        rst     38h
3bfe ff        rst     38h
3bff ff        rst     38h
3c00 ff        rst     38h
3c01 ff        rst     38h
3c02 ff        rst     38h
3c03 ff        rst     38h
3c04 ff        rst     38h
3c05 ff        rst     38h
3c06 ff        rst     38h
3c07 ff        rst     38h
3c08 ff        rst     38h
3c09 ff        rst     38h
3c0a ff        rst     38h
3c0b ff        rst     38h
3c0c ff        rst     38h
3c0d ff        rst     38h
3c0e ff        rst     38h
3c0f ff        rst     38h
3c10 ff        rst     38h
3c11 ff        rst     38h
3c12 ff        rst     38h
3c13 ff        rst     38h
3c14 ff        rst     38h
3c15 ff        rst     38h
3c16 ff        rst     38h
3c17 ff        rst     38h
3c18 ff        rst     38h
3c19 ff        rst     38h
3c1a ff        rst     38h
3c1b ff        rst     38h
3c1c ff        rst     38h
3c1d ff        rst     38h
3c1e ff        rst     38h
3c1f ff        rst     38h
3c20 ff        rst     38h
3c21 ff        rst     38h
3c22 ff        rst     38h
3c23 ff        rst     38h
3c24 ff        rst     38h
3c25 ff        rst     38h
3c26 ff        rst     38h
3c27 ff        rst     38h
3c28 ff        rst     38h
3c29 ff        rst     38h
3c2a ff        rst     38h
3c2b ff        rst     38h
3c2c ff        rst     38h
3c2d ff        rst     38h
3c2e ff        rst     38h
3c2f ff        rst     38h
3c30 ff        rst     38h
3c31 ff        rst     38h
3c32 ff        rst     38h
3c33 ff        rst     38h
3c34 ff        rst     38h
3c35 ff        rst     38h
3c36 ff        rst     38h
3c37 ff        rst     38h
3c38 ff        rst     38h
3c39 ff        rst     38h
3c3a ff        rst     38h
3c3b ff        rst     38h
3c3c ff        rst     38h
3c3d ff        rst     38h
3c3e ff        rst     38h
3c3f ff        rst     38h
3c40 ff        rst     38h
3c41 ff        rst     38h
3c42 ff        rst     38h
3c43 ff        rst     38h
3c44 ff        rst     38h
3c45 ff        rst     38h
3c46 ff        rst     38h
3c47 ff        rst     38h
3c48 ff        rst     38h
3c49 ff        rst     38h
3c4a ff        rst     38h
3c4b ff        rst     38h
3c4c ff        rst     38h
3c4d ff        rst     38h
3c4e ff        rst     38h
3c4f ff        rst     38h
3c50 ff        rst     38h
3c51 ff        rst     38h
3c52 ff        rst     38h
3c53 ff        rst     38h
3c54 ff        rst     38h
3c55 ff        rst     38h
3c56 ff        rst     38h
3c57 ff        rst     38h
3c58 ff        rst     38h
3c59 ff        rst     38h
3c5a ff        rst     38h
3c5b ff        rst     38h
3c5c ff        rst     38h
3c5d ff        rst     38h
3c5e ff        rst     38h
3c5f ff        rst     38h
3c60 ff        rst     38h
3c61 ff        rst     38h
3c62 ff        rst     38h
3c63 ff        rst     38h
3c64 ff        rst     38h
3c65 ff        rst     38h
3c66 ff        rst     38h
3c67 ff        rst     38h
3c68 ff        rst     38h
3c69 ff        rst     38h
3c6a ff        rst     38h
3c6b ff        rst     38h
3c6c ff        rst     38h
3c6d ff        rst     38h
3c6e ff        rst     38h
3c6f ff        rst     38h
3c70 ff        rst     38h
3c71 ff        rst     38h
3c72 ff        rst     38h
3c73 ff        rst     38h
3c74 ff        rst     38h
3c75 ff        rst     38h
3c76 ff        rst     38h
3c77 ff        rst     38h
3c78 ff        rst     38h
3c79 ff        rst     38h
3c7a ff        rst     38h
3c7b ff        rst     38h
3c7c ff        rst     38h
3c7d ff        rst     38h
3c7e ff        rst     38h
3c7f ff        rst     38h
3c80 ff        rst     38h
3c81 ff        rst     38h
3c82 ff        rst     38h
3c83 ff        rst     38h
3c84 ff        rst     38h
3c85 ff        rst     38h
3c86 ff        rst     38h
3c87 ff        rst     38h
3c88 ff        rst     38h
3c89 ff        rst     38h
3c8a ff        rst     38h
3c8b ff        rst     38h
3c8c ff        rst     38h
3c8d ff        rst     38h
3c8e ff        rst     38h
3c8f ff        rst     38h
3c90 ff        rst     38h
3c91 ff        rst     38h
3c92 ff        rst     38h
3c93 ff        rst     38h
3c94 ff        rst     38h
3c95 ff        rst     38h
3c96 ff        rst     38h
3c97 ff        rst     38h
3c98 ff        rst     38h
3c99 ff        rst     38h
3c9a ff        rst     38h
3c9b ff        rst     38h
3c9c ff        rst     38h
3c9d ff        rst     38h
3c9e ff        rst     38h
3c9f ff        rst     38h
3ca0 ff        rst     38h
3ca1 ff        rst     38h
3ca2 ff        rst     38h
3ca3 ff        rst     38h
3ca4 ff        rst     38h
3ca5 ff        rst     38h
3ca6 ff        rst     38h
3ca7 ff        rst     38h
3ca8 ff        rst     38h
3ca9 ff        rst     38h
3caa ff        rst     38h
3cab ff        rst     38h
3cac ff        rst     38h
3cad ff        rst     38h
3cae ff        rst     38h
3caf ff        rst     38h
3cb0 ff        rst     38h
3cb1 ff        rst     38h
3cb2 ff        rst     38h
3cb3 ff        rst     38h
3cb4 ff        rst     38h
3cb5 ff        rst     38h
3cb6 ff        rst     38h
3cb7 ff        rst     38h
3cb8 ff        rst     38h
3cb9 ff        rst     38h
3cba ff        rst     38h
3cbb ff        rst     38h
3cbc ff        rst     38h
3cbd ff        rst     38h
3cbe ff        rst     38h
3cbf ff        rst     38h
3cc0 ff        rst     38h
3cc1 ff        rst     38h
3cc2 ff        rst     38h
3cc3 ff        rst     38h
3cc4 ff        rst     38h
3cc5 ff        rst     38h
3cc6 ff        rst     38h
3cc7 ff        rst     38h
3cc8 ff        rst     38h
3cc9 ff        rst     38h
3cca ff        rst     38h
3ccb ff        rst     38h
3ccc ff        rst     38h
3ccd ff        rst     38h
3cce ff        rst     38h
3ccf ff        rst     38h
3cd0 ff        rst     38h
3cd1 ff        rst     38h
3cd2 ff        rst     38h
3cd3 ff        rst     38h
3cd4 ff        rst     38h
3cd5 ff        rst     38h
3cd6 ff        rst     38h
3cd7 ff        rst     38h
3cd8 ff        rst     38h
3cd9 ff        rst     38h
3cda ff        rst     38h
3cdb ff        rst     38h
3cdc ff        rst     38h
3cdd ff        rst     38h
3cde ff        rst     38h
3cdf ff        rst     38h
3ce0 ff        rst     38h
3ce1 ff        rst     38h
3ce2 ff        rst     38h
3ce3 ff        rst     38h
3ce4 ff        rst     38h
3ce5 ff        rst     38h
3ce6 ff        rst     38h
3ce7 ff        rst     38h
3ce8 ff        rst     38h
3ce9 ff        rst     38h
3cea ff        rst     38h
3ceb ff        rst     38h
3cec ff        rst     38h
3ced ff        rst     38h
3cee ff        rst     38h
3cef ff        rst     38h
3cf0 ff        rst     38h
3cf1 ff        rst     38h
3cf2 ff        rst     38h
3cf3 ff        rst     38h
3cf4 ff        rst     38h
3cf5 ff        rst     38h
3cf6 ff        rst     38h
3cf7 ff        rst     38h
3cf8 ff        rst     38h
3cf9 ff        rst     38h
3cfa ff        rst     38h
3cfb ff        rst     38h
3cfc ff        rst     38h
3cfd ff        rst     38h
3cfe ff        rst     38h
3cff ff        rst     38h
3d00 ff        rst     38h
3d01 ff        rst     38h
3d02 ff        rst     38h
3d03 ff        rst     38h
3d04 ff        rst     38h
3d05 ff        rst     38h
3d06 ff        rst     38h
3d07 ff        rst     38h
3d08 ff        rst     38h
3d09 ff        rst     38h
3d0a ff        rst     38h
3d0b ff        rst     38h
3d0c ff        rst     38h
3d0d ff        rst     38h
3d0e ff        rst     38h
3d0f ff        rst     38h
3d10 ff        rst     38h
3d11 ff        rst     38h
3d12 ff        rst     38h
3d13 ff        rst     38h
3d14 ff        rst     38h
3d15 ff        rst     38h
3d16 ff        rst     38h
3d17 ff        rst     38h
3d18 ff        rst     38h
3d19 ff        rst     38h
3d1a ff        rst     38h
3d1b ff        rst     38h
3d1c ff        rst     38h
3d1d ff        rst     38h
3d1e ff        rst     38h
3d1f ff        rst     38h
3d20 ff        rst     38h
3d21 ff        rst     38h
3d22 ff        rst     38h
3d23 ff        rst     38h
3d24 ff        rst     38h
3d25 ff        rst     38h
3d26 ff        rst     38h
3d27 ff        rst     38h
3d28 ff        rst     38h
3d29 ff        rst     38h
3d2a ff        rst     38h
3d2b ff        rst     38h
3d2c ff        rst     38h
3d2d ff        rst     38h
3d2e ff        rst     38h
3d2f ff        rst     38h
3d30 ff        rst     38h
3d31 ff        rst     38h
3d32 ff        rst     38h
3d33 ff        rst     38h
3d34 ff        rst     38h
3d35 ff        rst     38h
3d36 ff        rst     38h
3d37 ff        rst     38h
3d38 ff        rst     38h
3d39 ff        rst     38h
3d3a ff        rst     38h
3d3b ff        rst     38h
3d3c ff        rst     38h
3d3d ff        rst     38h
3d3e ff        rst     38h
3d3f ff        rst     38h
3d40 ff        rst     38h
3d41 ff        rst     38h
3d42 ff        rst     38h
3d43 ff        rst     38h
3d44 ff        rst     38h
3d45 ff        rst     38h
3d46 ff        rst     38h
3d47 ff        rst     38h
3d48 ff        rst     38h
3d49 ff        rst     38h
3d4a ff        rst     38h
3d4b ff        rst     38h
3d4c ff        rst     38h
3d4d ff        rst     38h
3d4e ff        rst     38h
3d4f ff        rst     38h
3d50 ff        rst     38h
3d51 ff        rst     38h
3d52 ff        rst     38h
3d53 ff        rst     38h
3d54 ff        rst     38h
3d55 ff        rst     38h
3d56 ff        rst     38h
3d57 ff        rst     38h
3d58 ff        rst     38h
3d59 ff        rst     38h
3d5a ff        rst     38h
3d5b ff        rst     38h
3d5c ff        rst     38h
3d5d ff        rst     38h
3d5e ff        rst     38h
3d5f ff        rst     38h
3d60 ff        rst     38h
3d61 ff        rst     38h
3d62 ff        rst     38h
3d63 ff        rst     38h
3d64 ff        rst     38h
3d65 ff        rst     38h
3d66 ff        rst     38h
3d67 ff        rst     38h
3d68 ff        rst     38h
3d69 ff        rst     38h
3d6a ff        rst     38h
3d6b ff        rst     38h
3d6c ff        rst     38h
3d6d ff        rst     38h
3d6e ff        rst     38h
3d6f ff        rst     38h
3d70 ff        rst     38h
3d71 ff        rst     38h
3d72 ff        rst     38h
3d73 ff        rst     38h
3d74 ff        rst     38h
3d75 ff        rst     38h
3d76 ff        rst     38h
3d77 ff        rst     38h
3d78 ff        rst     38h
3d79 ff        rst     38h
3d7a ff        rst     38h
3d7b ff        rst     38h
3d7c ff        rst     38h
3d7d ff        rst     38h
3d7e ff        rst     38h
3d7f ff        rst     38h
3d80 ff        rst     38h
3d81 ff        rst     38h
3d82 ff        rst     38h
3d83 ff        rst     38h
3d84 ff        rst     38h
3d85 ff        rst     38h
3d86 ff        rst     38h
3d87 ff        rst     38h
3d88 ff        rst     38h
3d89 ff        rst     38h
3d8a ff        rst     38h
3d8b ff        rst     38h
3d8c ff        rst     38h
3d8d ff        rst     38h
3d8e ff        rst     38h
3d8f ff        rst     38h
3d90 ff        rst     38h
3d91 ff        rst     38h
3d92 ff        rst     38h
3d93 ff        rst     38h
3d94 ff        rst     38h
3d95 ff        rst     38h
3d96 ff        rst     38h
3d97 ff        rst     38h
3d98 ff        rst     38h
3d99 ff        rst     38h
3d9a ff        rst     38h
3d9b ff        rst     38h
3d9c ff        rst     38h
3d9d ff        rst     38h
3d9e ff        rst     38h
3d9f ff        rst     38h
3da0 ff        rst     38h
3da1 ff        rst     38h
3da2 ff        rst     38h
3da3 ff        rst     38h
3da4 ff        rst     38h
3da5 ff        rst     38h
3da6 ff        rst     38h
3da7 ff        rst     38h
3da8 ff        rst     38h
3da9 ff        rst     38h
3daa ff        rst     38h
3dab ff        rst     38h
3dac ff        rst     38h
3dad ff        rst     38h
3dae ff        rst     38h
3daf ff        rst     38h
3db0 ff        rst     38h
3db1 ff        rst     38h
3db2 ff        rst     38h
3db3 ff        rst     38h
3db4 ff        rst     38h
3db5 ff        rst     38h
3db6 ff        rst     38h
3db7 ff        rst     38h
3db8 ff        rst     38h
3db9 ff        rst     38h
3dba ff        rst     38h
3dbb ff        rst     38h
3dbc ff        rst     38h
3dbd ff        rst     38h
3dbe ff        rst     38h
3dbf ff        rst     38h
3dc0 ff        rst     38h
3dc1 ff        rst     38h
3dc2 ff        rst     38h
3dc3 ff        rst     38h
3dc4 ff        rst     38h
3dc5 ff        rst     38h
3dc6 ff        rst     38h
3dc7 ff        rst     38h
3dc8 ff        rst     38h
3dc9 ff        rst     38h
3dca ff        rst     38h
3dcb ff        rst     38h
3dcc ff        rst     38h
3dcd ff        rst     38h
3dce ff        rst     38h
3dcf ff        rst     38h
3dd0 ff        rst     38h
3dd1 ff        rst     38h
3dd2 ff        rst     38h
3dd3 ff        rst     38h
3dd4 ff        rst     38h
3dd5 ff        rst     38h
3dd6 ff        rst     38h
3dd7 ff        rst     38h
3dd8 ff        rst     38h
3dd9 ff        rst     38h
3dda ff        rst     38h
3ddb ff        rst     38h
3ddc ff        rst     38h
3ddd ff        rst     38h
3dde ff        rst     38h
3ddf ff        rst     38h
3de0 ff        rst     38h
3de1 ff        rst     38h
3de2 ff        rst     38h
3de3 ff        rst     38h
3de4 ff        rst     38h
3de5 ff        rst     38h
3de6 ff        rst     38h
3de7 ff        rst     38h
3de8 ff        rst     38h
3de9 ff        rst     38h
3dea ff        rst     38h
3deb ff        rst     38h
3dec ff        rst     38h
3ded ff        rst     38h
3dee ff        rst     38h
3def ff        rst     38h
3df0 ff        rst     38h
3df1 ff        rst     38h
3df2 ff        rst     38h
3df3 ff        rst     38h
3df4 ff        rst     38h
3df5 ff        rst     38h
3df6 ff        rst     38h
3df7 ff        rst     38h
3df8 ff        rst     38h
3df9 ff        rst     38h
3dfa ff        rst     38h
3dfb ff        rst     38h
3dfc ff        rst     38h
3dfd ff        rst     38h
3dfe ff        rst     38h
3dff ff        rst     38h
3e00 ff        rst     38h
3e01 ff        rst     38h
3e02 ff        rst     38h
3e03 ff        rst     38h
3e04 ff        rst     38h
3e05 ff        rst     38h
3e06 ff        rst     38h
3e07 ff        rst     38h
3e08 ff        rst     38h
3e09 ff        rst     38h
3e0a ff        rst     38h
3e0b ff        rst     38h
3e0c ff        rst     38h
3e0d ff        rst     38h
3e0e ff        rst     38h
3e0f ff        rst     38h
3e10 ff        rst     38h
3e11 ff        rst     38h
3e12 ff        rst     38h
3e13 ff        rst     38h
3e14 ff        rst     38h
3e15 ff        rst     38h
3e16 ff        rst     38h
3e17 ff        rst     38h
3e18 ff        rst     38h
3e19 ff        rst     38h
3e1a ff        rst     38h
3e1b ff        rst     38h
3e1c ff        rst     38h
3e1d ff        rst     38h
3e1e ff        rst     38h
3e1f ff        rst     38h
3e20 ff        rst     38h
3e21 ff        rst     38h
3e22 ff        rst     38h
3e23 ff        rst     38h
3e24 ff        rst     38h
3e25 ff        rst     38h
3e26 ff        rst     38h
3e27 ff        rst     38h
3e28 ff        rst     38h
3e29 ff        rst     38h
3e2a ff        rst     38h
3e2b ff        rst     38h
3e2c ff        rst     38h
3e2d ff        rst     38h
3e2e ff        rst     38h
3e2f ff        rst     38h
3e30 ff        rst     38h
3e31 ff        rst     38h
3e32 ff        rst     38h
3e33 ff        rst     38h
3e34 ff        rst     38h
3e35 ff        rst     38h
3e36 ff        rst     38h
3e37 ff        rst     38h
3e38 ff        rst     38h
3e39 ff        rst     38h
3e3a ff        rst     38h
3e3b ff        rst     38h
3e3c ff        rst     38h
3e3d ff        rst     38h
3e3e ff        rst     38h
3e3f ff        rst     38h
3e40 ff        rst     38h
3e41 ff        rst     38h
3e42 ff        rst     38h
3e43 ff        rst     38h
3e44 ff        rst     38h
3e45 ff        rst     38h
3e46 ff        rst     38h
3e47 ff        rst     38h
3e48 ff        rst     38h
3e49 ff        rst     38h
3e4a ff        rst     38h
3e4b ff        rst     38h
3e4c ff        rst     38h
3e4d ff        rst     38h
3e4e ff        rst     38h
3e4f ff        rst     38h
3e50 ff        rst     38h
3e51 ff        rst     38h
3e52 ff        rst     38h
3e53 ff        rst     38h
3e54 ff        rst     38h
3e55 ff        rst     38h
3e56 ff        rst     38h
3e57 ff        rst     38h
3e58 ff        rst     38h
3e59 ff        rst     38h
3e5a ff        rst     38h
3e5b ff        rst     38h
3e5c ff        rst     38h
3e5d ff        rst     38h
3e5e ff        rst     38h
3e5f ff        rst     38h
3e60 ff        rst     38h
3e61 ff        rst     38h
3e62 ff        rst     38h
3e63 ff        rst     38h
3e64 ff        rst     38h
3e65 ff        rst     38h
3e66 ff        rst     38h
3e67 ff        rst     38h
3e68 ff        rst     38h
3e69 ff        rst     38h
3e6a ff        rst     38h
3e6b ff        rst     38h
3e6c ff        rst     38h
3e6d ff        rst     38h
3e6e ff        rst     38h
3e6f ff        rst     38h
3e70 ff        rst     38h
3e71 ff        rst     38h
3e72 ff        rst     38h
3e73 ff        rst     38h
3e74 ff        rst     38h
3e75 ff        rst     38h
3e76 ff        rst     38h
3e77 ff        rst     38h
3e78 ff        rst     38h
3e79 ff        rst     38h
3e7a ff        rst     38h
3e7b ff        rst     38h
3e7c ff        rst     38h
3e7d ff        rst     38h
3e7e ff        rst     38h
3e7f ff        rst     38h
3e80 ff        rst     38h
3e81 ff        rst     38h
3e82 ff        rst     38h
3e83 ff        rst     38h
3e84 ff        rst     38h
3e85 ff        rst     38h
3e86 ff        rst     38h
3e87 ff        rst     38h
3e88 ff        rst     38h
3e89 ff        rst     38h
3e8a ff        rst     38h
3e8b ff        rst     38h
3e8c ff        rst     38h
3e8d ff        rst     38h
3e8e ff        rst     38h
3e8f ff        rst     38h
3e90 ff        rst     38h
3e91 ff        rst     38h
3e92 ff        rst     38h
3e93 ff        rst     38h
3e94 ff        rst     38h
3e95 ff        rst     38h
3e96 ff        rst     38h
3e97 ff        rst     38h
3e98 ff        rst     38h
3e99 ff        rst     38h
3e9a ff        rst     38h
3e9b ff        rst     38h
3e9c ff        rst     38h
3e9d ff        rst     38h
3e9e ff        rst     38h
3e9f ff        rst     38h
3ea0 ff        rst     38h
3ea1 ff        rst     38h
3ea2 ff        rst     38h
3ea3 ff        rst     38h
3ea4 ff        rst     38h
3ea5 ff        rst     38h
3ea6 ff        rst     38h
3ea7 ff        rst     38h
3ea8 ff        rst     38h
3ea9 ff        rst     38h
3eaa ff        rst     38h
3eab ff        rst     38h
3eac ff        rst     38h
3ead ff        rst     38h
3eae ff        rst     38h
3eaf ff        rst     38h
3eb0 ff        rst     38h
3eb1 ff        rst     38h
3eb2 ff        rst     38h
3eb3 ff        rst     38h
3eb4 ff        rst     38h
3eb5 ff        rst     38h
3eb6 ff        rst     38h
3eb7 ff        rst     38h
3eb8 ff        rst     38h
3eb9 ff        rst     38h
3eba ff        rst     38h
3ebb ff        rst     38h
3ebc ff        rst     38h
3ebd ff        rst     38h
3ebe ff        rst     38h
3ebf ff        rst     38h
3ec0 ff        rst     38h
3ec1 ff        rst     38h
3ec2 ff        rst     38h
3ec3 ff        rst     38h
3ec4 ff        rst     38h
3ec5 ff        rst     38h
3ec6 ff        rst     38h
3ec7 ff        rst     38h
3ec8 ff        rst     38h
3ec9 ff        rst     38h
3eca ff        rst     38h
3ecb ff        rst     38h
3ecc ff        rst     38h
3ecd ff        rst     38h
3ece ff        rst     38h
3ecf ff        rst     38h
3ed0 ff        rst     38h
3ed1 ff        rst     38h
3ed2 ff        rst     38h
3ed3 ff        rst     38h
3ed4 ff        rst     38h
3ed5 ff        rst     38h
3ed6 ff        rst     38h
3ed7 ff        rst     38h
3ed8 ff        rst     38h
3ed9 ff        rst     38h
3eda ff        rst     38h
3edb ff        rst     38h
3edc ff        rst     38h
3edd ff        rst     38h
3ede ff        rst     38h
3edf ff        rst     38h
3ee0 ff        rst     38h
3ee1 ff        rst     38h
3ee2 ff        rst     38h
3ee3 ff        rst     38h
3ee4 ff        rst     38h
3ee5 ff        rst     38h
3ee6 ff        rst     38h
3ee7 ff        rst     38h
3ee8 ff        rst     38h
3ee9 ff        rst     38h
3eea ff        rst     38h
3eeb ff        rst     38h
3eec ff        rst     38h
3eed ff        rst     38h
3eee ff        rst     38h
3eef ff        rst     38h
3ef0 ff        rst     38h
3ef1 ff        rst     38h
3ef2 ff        rst     38h
3ef3 ff        rst     38h
3ef4 ff        rst     38h
3ef5 ff        rst     38h
3ef6 ff        rst     38h
3ef7 ff        rst     38h
3ef8 ff        rst     38h
3ef9 ff        rst     38h
3efa ff        rst     38h
3efb ff        rst     38h
3efc ff        rst     38h
3efd ff        rst     38h
3efe ff        rst     38h
3eff ff        rst     38h
3f00 ff        rst     38h
3f01 ff        rst     38h
3f02 ff        rst     38h
3f03 ff        rst     38h
3f04 ff        rst     38h
3f05 ff        rst     38h
3f06 ff        rst     38h
3f07 ff        rst     38h
3f08 ff        rst     38h
3f09 ff        rst     38h
3f0a ff        rst     38h
3f0b ff        rst     38h
3f0c ff        rst     38h
3f0d ff        rst     38h
3f0e ff        rst     38h
3f0f ff        rst     38h
3f10 ff        rst     38h
3f11 ff        rst     38h
3f12 ff        rst     38h
3f13 ff        rst     38h
3f14 ff        rst     38h
3f15 ff        rst     38h
3f16 ff        rst     38h
3f17 ff        rst     38h
3f18 ff        rst     38h
3f19 ff        rst     38h
3f1a ff        rst     38h
3f1b ff        rst     38h
3f1c ff        rst     38h
3f1d ff        rst     38h
3f1e ff        rst     38h
3f1f ff        rst     38h
3f20 ff        rst     38h
3f21 ff        rst     38h
3f22 ff        rst     38h
3f23 ff        rst     38h
3f24 ff        rst     38h
3f25 ff        rst     38h
3f26 ff        rst     38h
3f27 ff        rst     38h
3f28 ff        rst     38h
3f29 ff        rst     38h
3f2a ff        rst     38h
3f2b ff        rst     38h
3f2c ff        rst     38h
3f2d ff        rst     38h
3f2e ff        rst     38h
3f2f ff        rst     38h
3f30 ff        rst     38h
3f31 ff        rst     38h
3f32 ff        rst     38h
3f33 ff        rst     38h
3f34 ff        rst     38h
3f35 ff        rst     38h
3f36 ff        rst     38h
3f37 ff        rst     38h
3f38 ff        rst     38h
3f39 ff        rst     38h
3f3a ff        rst     38h
3f3b ff        rst     38h
3f3c ff        rst     38h
3f3d ff        rst     38h
3f3e ff        rst     38h
3f3f ff        rst     38h
3f40 ff        rst     38h
3f41 ff        rst     38h
3f42 ff        rst     38h
3f43 ff        rst     38h
3f44 ff        rst     38h
3f45 ff        rst     38h
3f46 ff        rst     38h
3f47 ff        rst     38h
3f48 ff        rst     38h
3f49 ff        rst     38h
3f4a ff        rst     38h
3f4b ff        rst     38h
3f4c ff        rst     38h
3f4d ff        rst     38h
3f4e ff        rst     38h
3f4f ff        rst     38h
3f50 ff        rst     38h
3f51 ff        rst     38h
3f52 ff        rst     38h
3f53 ff        rst     38h
3f54 ff        rst     38h
3f55 ff        rst     38h
3f56 ff        rst     38h
3f57 ff        rst     38h
3f58 ff        rst     38h
3f59 ff        rst     38h
3f5a ff        rst     38h
3f5b ff        rst     38h
3f5c ff        rst     38h
3f5d ff        rst     38h
3f5e ff        rst     38h
3f5f ff        rst     38h
3f60 ff        rst     38h
3f61 ff        rst     38h
3f62 ff        rst     38h
3f63 ff        rst     38h
3f64 ff        rst     38h
3f65 ff        rst     38h
3f66 ff        rst     38h
3f67 ff        rst     38h
3f68 ff        rst     38h
3f69 ff        rst     38h
3f6a ff        rst     38h
3f6b ff        rst     38h
3f6c ff        rst     38h
3f6d ff        rst     38h
3f6e ff        rst     38h
3f6f ff        rst     38h
3f70 ff        rst     38h
3f71 ff        rst     38h
3f72 ff        rst     38h
3f73 ff        rst     38h
3f74 ff        rst     38h
3f75 ff        rst     38h
3f76 ff        rst     38h
3f77 ff        rst     38h
3f78 ff        rst     38h
3f79 ff        rst     38h
3f7a ff        rst     38h
3f7b ff        rst     38h
3f7c ff        rst     38h
3f7d ff        rst     38h
3f7e ff        rst     38h
3f7f ff        rst     38h
3f80 ff        rst     38h
3f81 ff        rst     38h
3f82 ff        rst     38h
3f83 ff        rst     38h
3f84 ff        rst     38h
3f85 ff        rst     38h
3f86 ff        rst     38h
3f87 ff        rst     38h
3f88 ff        rst     38h
3f89 ff        rst     38h
3f8a ff        rst     38h
3f8b ff        rst     38h
3f8c ff        rst     38h
3f8d ff        rst     38h
3f8e ff        rst     38h
3f8f ff        rst     38h
3f90 ff        rst     38h
3f91 ff        rst     38h
3f92 ff        rst     38h
3f93 ff        rst     38h
3f94 ff        rst     38h
3f95 ff        rst     38h
3f96 ff        rst     38h
3f97 ff        rst     38h
3f98 ff        rst     38h
3f99 ff        rst     38h
3f9a ff        rst     38h
3f9b ff        rst     38h
3f9c ff        rst     38h
3f9d ff        rst     38h
3f9e ff        rst     38h
3f9f ff        rst     38h
3fa0 ff        rst     38h
3fa1 ff        rst     38h
3fa2 ff        rst     38h
3fa3 ff        rst     38h
3fa4 ff        rst     38h
3fa5 ff        rst     38h
3fa6 ff        rst     38h
3fa7 ff        rst     38h
3fa8 ff        rst     38h
3fa9 ff        rst     38h
3faa ff        rst     38h
3fab ff        rst     38h
3fac ff        rst     38h
3fad ff        rst     38h
3fae ff        rst     38h
3faf ff        rst     38h
3fb0 ff        rst     38h
3fb1 ff        rst     38h
3fb2 ff        rst     38h
3fb3 ff        rst     38h
3fb4 ff        rst     38h
3fb5 ff        rst     38h
3fb6 ff        rst     38h
3fb7 ff        rst     38h
3fb8 ff        rst     38h
3fb9 ff        rst     38h
3fba ff        rst     38h
3fbb ff        rst     38h
3fbc ff        rst     38h
3fbd ff        rst     38h
3fbe ff        rst     38h
3fbf ff        rst     38h
3fc0 ff        rst     38h
3fc1 ff        rst     38h
3fc2 ff        rst     38h
3fc3 ff        rst     38h
3fc4 ff        rst     38h
3fc5 ff        rst     38h
3fc6 ff        rst     38h
3fc7 ff        rst     38h
3fc8 ff        rst     38h
3fc9 ff        rst     38h
3fca ff        rst     38h
3fcb ff        rst     38h
3fcc ff        rst     38h
3fcd ff        rst     38h
3fce ff        rst     38h
3fcf ff        rst     38h
3fd0 ff        rst     38h
3fd1 ff        rst     38h
3fd2 ff        rst     38h
3fd3 ff        rst     38h
3fd4 ff        rst     38h
3fd5 ff        rst     38h
3fd6 ff        rst     38h
3fd7 ff        rst     38h
3fd8 ff        rst     38h
3fd9 ff        rst     38h
3fda ff        rst     38h
3fdb ff        rst     38h
3fdc ff        rst     38h
3fdd ff        rst     38h
3fde ff        rst     38h
3fdf ff        rst     38h
3fe0 ff        rst     38h
3fe1 ff        rst     38h
3fe2 ff        rst     38h
3fe3 ff        rst     38h
3fe4 ff        rst     38h
3fe5 ff        rst     38h
3fe6 ff        rst     38h
3fe7 ff        rst     38h
3fe8 ff        rst     38h
3fe9 ff        rst     38h
3fea ff        rst     38h
3feb ff        rst     38h
3fec ff        rst     38h
3fed ff        rst     38h
3fee ff        rst     38h
3fef ff        rst     38h
3ff0 ff        rst     38h
3ff1 ff        rst     38h
3ff2 ff        rst     38h
3ff3 ff        rst     38h
3ff4 ff        rst     38h
3ff5 ff        rst     38h
3ff6 ff        rst     38h
3ff7 ff        rst     38h
3ff8 ff        rst     38h
3ff9 ff        rst     38h
3ffa ff        rst     38h
3ffb ff        rst     38h
3ffc ff        rst     38h
3ffd ff        rst     38h
3ffe ff        rst     38h
3fff ff        rst     38h
4000 ff        rst     38h
4001 ff        rst     38h
4002 ff        rst     38h
4003 ff        rst     38h
4004 ff        rst     38h
4005 ff        rst     38h
4006 ff        rst     38h
4007 ff        rst     38h
4008 ff        rst     38h
4009 ff        rst     38h
400a ff        rst     38h
400b ff        rst     38h
400c ff        rst     38h
400d ff        rst     38h
400e ff        rst     38h
400f ff        rst     38h
4010 ff        rst     38h
4011 ff        rst     38h
4012 ff        rst     38h
4013 ff        rst     38h
4014 ff        rst     38h
4015 ff        rst     38h
4016 ff        rst     38h
4017 ff        rst     38h
4018 ff        rst     38h
4019 ff        rst     38h
401a ff        rst     38h
401b ff        rst     38h
401c ff        rst     38h
401d ff        rst     38h
401e ff        rst     38h
401f ff        rst     38h
4020 ff        rst     38h
4021 ff        rst     38h
4022 ff        rst     38h
4023 ff        rst     38h
4024 ff        rst     38h
4025 ff        rst     38h
4026 ff        rst     38h
4027 ff        rst     38h
4028 ff        rst     38h
4029 ff        rst     38h
402a ff        rst     38h
402b ff        rst     38h
402c ff        rst     38h
402d ff        rst     38h
402e ff        rst     38h
402f ff        rst     38h
4030 ff        rst     38h
4031 ff        rst     38h
4032 ff        rst     38h
4033 ff        rst     38h
4034 ff        rst     38h
4035 ff        rst     38h
4036 ff        rst     38h
4037 ff        rst     38h
4038 ff        rst     38h
4039 ff        rst     38h
403a ff        rst     38h
403b ff        rst     38h
403c ff        rst     38h
403d ff        rst     38h
403e ff        rst     38h
403f ff        rst     38h
4040 ff        rst     38h
4041 ff        rst     38h
4042 ff        rst     38h
4043 ff        rst     38h
4044 ff        rst     38h
4045 ff        rst     38h
4046 ff        rst     38h
4047 ff        rst     38h
4048 ff        rst     38h
4049 ff        rst     38h
404a ff        rst     38h
404b ff        rst     38h
404c ff        rst     38h
404d ff        rst     38h
404e ff        rst     38h
404f ff        rst     38h
4050 ff        rst     38h
4051 ff        rst     38h
4052 ff        rst     38h
4053 ff        rst     38h
4054 ff        rst     38h
4055 ff        rst     38h
4056 ff        rst     38h
4057 ff        rst     38h
4058 ff        rst     38h
4059 ff        rst     38h
405a ff        rst     38h
405b ff        rst     38h
405c ff        rst     38h
405d ff        rst     38h
405e ff        rst     38h
405f ff        rst     38h
4060 ff        rst     38h
4061 ff        rst     38h
4062 ff        rst     38h
4063 ff        rst     38h
4064 ff        rst     38h
4065 ff        rst     38h
4066 ff        rst     38h
4067 ff        rst     38h
4068 ff        rst     38h
4069 ff        rst     38h
406a ff        rst     38h
406b ff        rst     38h
406c ff        rst     38h
406d ff        rst     38h
406e ff        rst     38h
406f ff        rst     38h
4070 ff        rst     38h
4071 ff        rst     38h
4072 ff        rst     38h
4073 ff        rst     38h
4074 ff        rst     38h
4075 ff        rst     38h
4076 ff        rst     38h
4077 ff        rst     38h
4078 ff        rst     38h
4079 ff        rst     38h
407a ff        rst     38h
407b ff        rst     38h
407c ff        rst     38h
407d ff        rst     38h
407e ff        rst     38h
407f ff        rst     38h
4080 ff        rst     38h
4081 ff        rst     38h
4082 ff        rst     38h
4083 ff        rst     38h
4084 ff        rst     38h
4085 ff        rst     38h
4086 ff        rst     38h
4087 ff        rst     38h
4088 ff        rst     38h
4089 ff        rst     38h
408a ff        rst     38h
408b ff        rst     38h
408c ff        rst     38h
408d ff        rst     38h
408e ff        rst     38h
408f ff        rst     38h
4090 ff        rst     38h
4091 ff        rst     38h
4092 ff        rst     38h
4093 ff        rst     38h
4094 ff        rst     38h
4095 ff        rst     38h
4096 ff        rst     38h
4097 ff        rst     38h
4098 ff        rst     38h
4099 ff        rst     38h
409a ff        rst     38h
409b ff        rst     38h
409c ff        rst     38h
409d ff        rst     38h
409e ff        rst     38h
409f ff        rst     38h
40a0 ff        rst     38h
40a1 ff        rst     38h
40a2 ff        rst     38h
40a3 ff        rst     38h
40a4 ff        rst     38h
40a5 ff        rst     38h
40a6 ff        rst     38h
40a7 ff        rst     38h
40a8 ff        rst     38h
40a9 ff        rst     38h
40aa ff        rst     38h
40ab ff        rst     38h
40ac ff        rst     38h
40ad ff        rst     38h
40ae ff        rst     38h
40af ff        rst     38h
40b0 ff        rst     38h
40b1 ff        rst     38h
40b2 ff        rst     38h
40b3 ff        rst     38h
40b4 ff        rst     38h
40b5 ff        rst     38h
40b6 ff        rst     38h
40b7 ff        rst     38h
40b8 ff        rst     38h
40b9 ff        rst     38h
40ba ff        rst     38h
40bb ff        rst     38h
40bc ff        rst     38h
40bd ff        rst     38h
40be ff        rst     38h
40bf ff        rst     38h
40c0 ff        rst     38h
40c1 ff        rst     38h
40c2 ff        rst     38h
40c3 ff        rst     38h
40c4 ff        rst     38h
40c5 ff        rst     38h
40c6 ff        rst     38h
40c7 ff        rst     38h
40c8 ff        rst     38h
40c9 ff        rst     38h
40ca ff        rst     38h
40cb ff        rst     38h
40cc ff        rst     38h
40cd ff        rst     38h
40ce ff        rst     38h
40cf ff        rst     38h
40d0 ff        rst     38h
40d1 ff        rst     38h
40d2 ff        rst     38h
40d3 ff        rst     38h
40d4 ff        rst     38h
40d5 ff        rst     38h
40d6 ff        rst     38h
40d7 ff        rst     38h
40d8 ff        rst     38h
40d9 ff        rst     38h
40da ff        rst     38h
40db ff        rst     38h
40dc ff        rst     38h
40dd ff        rst     38h
40de ff        rst     38h
40df ff        rst     38h
40e0 ff        rst     38h
40e1 ff        rst     38h
40e2 ff        rst     38h
40e3 ff        rst     38h
40e4 ff        rst     38h
40e5 ff        rst     38h
40e6 ff        rst     38h
40e7 ff        rst     38h
40e8 ff        rst     38h
40e9 ff        rst     38h
40ea ff        rst     38h
40eb ff        rst     38h
40ec ff        rst     38h
40ed ff        rst     38h
40ee ff        rst     38h
40ef ff        rst     38h
40f0 ff        rst     38h
40f1 ff        rst     38h
40f2 ff        rst     38h
40f3 ff        rst     38h
40f4 ff        rst     38h
40f5 ff        rst     38h
40f6 ff        rst     38h
40f7 ff        rst     38h
40f8 ff        rst     38h
40f9 ff        rst     38h
40fa ff        rst     38h
40fb ff        rst     38h
40fc ff        rst     38h
40fd ff        rst     38h
40fe ff        rst     38h
40ff ff        rst     38h
4100 ff        rst     38h
4101 ff        rst     38h
4102 ff        rst     38h
4103 ff        rst     38h
4104 ff        rst     38h
4105 ff        rst     38h
4106 ff        rst     38h
4107 ff        rst     38h
4108 ff        rst     38h
4109 ff        rst     38h
410a ff        rst     38h
410b ff        rst     38h
410c ff        rst     38h
410d ff        rst     38h
410e ff        rst     38h
410f ff        rst     38h
4110 ff        rst     38h
4111 ff        rst     38h
4112 ff        rst     38h
4113 ff        rst     38h
4114 ff        rst     38h
4115 ff        rst     38h
4116 ff        rst     38h
4117 ff        rst     38h
4118 ff        rst     38h
4119 ff        rst     38h
411a ff        rst     38h
411b ff        rst     38h
411c ff        rst     38h
411d ff        rst     38h
411e ff        rst     38h
411f ff        rst     38h
4120 ff        rst     38h
4121 ff        rst     38h
4122 ff        rst     38h
4123 ff        rst     38h
4124 ff        rst     38h
4125 ff        rst     38h
4126 ff        rst     38h
4127 ff        rst     38h
4128 ff        rst     38h
4129 ff        rst     38h
412a ff        rst     38h
412b ff        rst     38h
412c ff        rst     38h
412d ff        rst     38h
412e ff        rst     38h
412f ff        rst     38h
4130 ff        rst     38h
4131 ff        rst     38h
4132 ff        rst     38h
4133 ff        rst     38h
4134 ff        rst     38h
4135 ff        rst     38h
4136 ff        rst     38h
4137 ff        rst     38h
4138 ff        rst     38h
4139 ff        rst     38h
413a ff        rst     38h
413b ff        rst     38h
413c ff        rst     38h
413d ff        rst     38h
413e ff        rst     38h
413f ff        rst     38h
4140 ff        rst     38h
4141 ff        rst     38h
4142 ff        rst     38h
4143 ff        rst     38h
4144 ff        rst     38h
4145 ff        rst     38h
4146 ff        rst     38h
4147 ff        rst     38h
4148 ff        rst     38h
4149 ff        rst     38h
414a ff        rst     38h
414b ff        rst     38h
414c ff        rst     38h
414d ff        rst     38h
414e ff        rst     38h
414f ff        rst     38h
4150 ff        rst     38h
4151 ff        rst     38h
4152 ff        rst     38h
4153 ff        rst     38h
4154 ff        rst     38h
4155 ff        rst     38h
4156 ff        rst     38h
4157 ff        rst     38h
4158 ff        rst     38h
4159 ff        rst     38h
415a ff        rst     38h
415b ff        rst     38h
415c ff        rst     38h
415d ff        rst     38h
415e ff        rst     38h
415f ff        rst     38h
4160 ff        rst     38h
4161 ff        rst     38h
4162 ff        rst     38h
4163 ff        rst     38h
4164 ff        rst     38h
4165 ff        rst     38h
4166 ff        rst     38h
4167 ff        rst     38h
4168 ff        rst     38h
4169 ff        rst     38h
416a ff        rst     38h
416b ff        rst     38h
416c ff        rst     38h
416d ff        rst     38h
416e ff        rst     38h
416f ff        rst     38h
4170 ff        rst     38h
4171 ff        rst     38h
4172 ff        rst     38h
4173 ff        rst     38h
4174 ff        rst     38h
4175 ff        rst     38h
4176 ff        rst     38h
4177 ff        rst     38h
4178 ff        rst     38h
4179 ff        rst     38h
417a ff        rst     38h
417b ff        rst     38h
417c ff        rst     38h
417d ff        rst     38h
417e ff        rst     38h
417f ff        rst     38h
4180 ff        rst     38h
4181 ff        rst     38h
4182 ff        rst     38h
4183 ff        rst     38h
4184 ff        rst     38h
4185 ff        rst     38h
4186 ff        rst     38h
4187 ff        rst     38h
4188 ff        rst     38h
4189 ff        rst     38h
418a ff        rst     38h
418b ff        rst     38h
418c ff        rst     38h
418d ff        rst     38h
418e ff        rst     38h
418f ff        rst     38h
4190 ff        rst     38h
4191 ff        rst     38h
4192 ff        rst     38h
4193 ff        rst     38h
4194 ff        rst     38h
4195 ff        rst     38h
4196 ff        rst     38h
4197 ff        rst     38h
4198 ff        rst     38h
4199 ff        rst     38h
419a ff        rst     38h
419b ff        rst     38h
419c ff        rst     38h
419d ff        rst     38h
419e ff        rst     38h
419f ff        rst     38h
41a0 ff        rst     38h
41a1 ff        rst     38h
41a2 ff        rst     38h
41a3 ff        rst     38h
41a4 ff        rst     38h
41a5 ff        rst     38h
41a6 ff        rst     38h
41a7 ff        rst     38h
41a8 ff        rst     38h
41a9 ff        rst     38h
41aa ff        rst     38h
41ab ff        rst     38h
41ac ff        rst     38h
41ad ff        rst     38h
41ae ff        rst     38h
41af ff        rst     38h
41b0 ff        rst     38h
41b1 ff        rst     38h
41b2 ff        rst     38h
41b3 ff        rst     38h
41b4 ff        rst     38h
41b5 ff        rst     38h
41b6 ff        rst     38h
41b7 ff        rst     38h
41b8 ff        rst     38h
41b9 ff        rst     38h
41ba ff        rst     38h
41bb ff        rst     38h
41bc ff        rst     38h
41bd ff        rst     38h
41be ff        rst     38h
41bf ff        rst     38h
41c0 ff        rst     38h
41c1 ff        rst     38h
41c2 ff        rst     38h
41c3 ff        rst     38h
41c4 ff        rst     38h
41c5 ff        rst     38h
41c6 ff        rst     38h
41c7 ff        rst     38h
41c8 ff        rst     38h
41c9 ff        rst     38h
41ca ff        rst     38h
41cb ff        rst     38h
41cc ff        rst     38h
41cd ff        rst     38h
41ce ff        rst     38h
41cf ff        rst     38h
41d0 ff        rst     38h
41d1 ff        rst     38h
41d2 ff        rst     38h
41d3 ff        rst     38h
41d4 ff        rst     38h
41d5 ff        rst     38h
41d6 ff        rst     38h
41d7 ff        rst     38h
41d8 ff        rst     38h
41d9 ff        rst     38h
41da ff        rst     38h
41db ff        rst     38h
41dc ff        rst     38h
41dd ff        rst     38h
41de ff        rst     38h
41df ff        rst     38h
41e0 ff        rst     38h
41e1 ff        rst     38h
41e2 ff        rst     38h
41e3 ff        rst     38h
41e4 ff        rst     38h
41e5 ff        rst     38h
41e6 ff        rst     38h
41e7 ff        rst     38h
41e8 ff        rst     38h
41e9 ff        rst     38h
41ea ff        rst     38h
41eb ff        rst     38h
41ec ff        rst     38h
41ed ff        rst     38h
41ee ff        rst     38h
41ef ff        rst     38h
41f0 ff        rst     38h
41f1 ff        rst     38h
41f2 ff        rst     38h
41f3 ff        rst     38h
41f4 ff        rst     38h
41f5 ff        rst     38h
41f6 ff        rst     38h
41f7 ff        rst     38h
41f8 ff        rst     38h
41f9 ff        rst     38h
41fa ff        rst     38h
41fb ff        rst     38h
41fc ff        rst     38h
41fd ff        rst     38h
41fe ff        rst     38h
41ff ff        rst     38h
4200 ff        rst     38h
4201 ff        rst     38h
4202 ff        rst     38h
4203 ff        rst     38h
4204 ff        rst     38h
4205 ff        rst     38h
4206 ff        rst     38h
4207 ff        rst     38h
4208 ff        rst     38h
4209 ff        rst     38h
420a ff        rst     38h
420b ff        rst     38h
420c ff        rst     38h
420d ff        rst     38h
420e ff        rst     38h
420f ff        rst     38h
4210 ff        rst     38h
4211 ff        rst     38h
4212 ff        rst     38h
4213 ff        rst     38h
4214 ff        rst     38h
4215 ff        rst     38h
4216 ff        rst     38h
4217 ff        rst     38h
4218 ff        rst     38h
4219 ff        rst     38h
421a ff        rst     38h
421b ff        rst     38h
421c ff        rst     38h
421d ff        rst     38h
421e ff        rst     38h
421f ff        rst     38h
4220 ff        rst     38h
4221 ff        rst     38h
4222 ff        rst     38h
4223 ff        rst     38h
4224 ff        rst     38h
4225 ff        rst     38h
4226 ff        rst     38h
4227 ff        rst     38h
4228 ff        rst     38h
4229 ff        rst     38h
422a ff        rst     38h
422b ff        rst     38h
422c ff        rst     38h
422d ff        rst     38h
422e ff        rst     38h
422f ff        rst     38h
4230 ff        rst     38h
4231 ff        rst     38h
4232 ff        rst     38h
4233 ff        rst     38h
4234 ff        rst     38h
4235 ff        rst     38h
4236 ff        rst     38h
4237 ff        rst     38h
4238 ff        rst     38h
4239 ff        rst     38h
423a ff        rst     38h
423b ff        rst     38h
423c ff        rst     38h
423d ff        rst     38h
423e ff        rst     38h
423f ff        rst     38h
4240 ff        rst     38h
4241 ff        rst     38h
4242 ff        rst     38h
4243 ff        rst     38h
4244 ff        rst     38h
4245 ff        rst     38h
4246 ff        rst     38h
4247 ff        rst     38h
4248 ff        rst     38h
4249 ff        rst     38h
424a ff        rst     38h
424b ff        rst     38h
424c ff        rst     38h
424d ff        rst     38h
424e ff        rst     38h
424f ff        rst     38h
4250 ff        rst     38h
4251 ff        rst     38h
4252 ff        rst     38h
4253 ff        rst     38h
4254 ff        rst     38h
4255 ff        rst     38h
4256 ff        rst     38h
4257 ff        rst     38h
4258 ff        rst     38h
4259 ff        rst     38h
425a ff        rst     38h
425b ff        rst     38h
425c ff        rst     38h
425d ff        rst     38h
425e ff        rst     38h
425f ff        rst     38h
4260 ff        rst     38h
4261 ff        rst     38h
4262 ff        rst     38h
4263 ff        rst     38h
4264 ff        rst     38h
4265 ff        rst     38h
4266 ff        rst     38h
4267 ff        rst     38h
4268 ff        rst     38h
4269 ff        rst     38h
426a ff        rst     38h
426b ff        rst     38h
426c ff        rst     38h
426d ff        rst     38h
426e ff        rst     38h
426f ff        rst     38h
4270 ff        rst     38h
4271 ff        rst     38h
4272 ff        rst     38h
4273 ff        rst     38h
4274 ff        rst     38h
4275 ff        rst     38h
4276 ff        rst     38h
4277 ff        rst     38h
4278 ff        rst     38h
4279 ff        rst     38h
427a ff        rst     38h
427b ff        rst     38h
427c ff        rst     38h
427d ff        rst     38h
427e ff        rst     38h
427f ff        rst     38h
4280 ff        rst     38h
4281 ff        rst     38h
4282 ff        rst     38h
4283 ff        rst     38h
4284 ff        rst     38h
4285 ff        rst     38h
4286 ff        rst     38h
4287 ff        rst     38h
4288 ff        rst     38h
4289 ff        rst     38h
428a ff        rst     38h
428b ff        rst     38h
428c ff        rst     38h
428d ff        rst     38h
428e ff        rst     38h
428f ff        rst     38h
4290 ff        rst     38h
4291 ff        rst     38h
4292 ff        rst     38h
4293 ff        rst     38h
4294 ff        rst     38h
4295 ff        rst     38h
4296 ff        rst     38h
4297 ff        rst     38h
4298 ff        rst     38h
4299 ff        rst     38h
429a ff        rst     38h
429b ff        rst     38h
429c ff        rst     38h
429d ff        rst     38h
429e ff        rst     38h
429f ff        rst     38h
42a0 ff        rst     38h
42a1 ff        rst     38h
42a2 ff        rst     38h
42a3 ff        rst     38h
42a4 ff        rst     38h
42a5 ff        rst     38h
42a6 ff        rst     38h
42a7 ff        rst     38h
42a8 ff        rst     38h
42a9 ff        rst     38h
42aa ff        rst     38h
42ab ff        rst     38h
42ac ff        rst     38h
42ad ff        rst     38h
42ae ff        rst     38h
42af ff        rst     38h
42b0 ff        rst     38h
42b1 ff        rst     38h
42b2 ff        rst     38h
42b3 ff        rst     38h
42b4 ff        rst     38h
42b5 ff        rst     38h
42b6 ff        rst     38h
42b7 ff        rst     38h
42b8 ff        rst     38h
42b9 ff        rst     38h
42ba ff        rst     38h
42bb ff        rst     38h
42bc ff        rst     38h
42bd ff        rst     38h
42be ff        rst     38h
42bf ff        rst     38h
42c0 ff        rst     38h
42c1 ff        rst     38h
42c2 ff        rst     38h
42c3 ff        rst     38h
42c4 ff        rst     38h
42c5 ff        rst     38h
42c6 ff        rst     38h
42c7 ff        rst     38h
42c8 ff        rst     38h
42c9 ff        rst     38h
42ca ff        rst     38h
42cb ff        rst     38h
42cc ff        rst     38h
42cd ff        rst     38h
42ce ff        rst     38h
42cf ff        rst     38h
42d0 ff        rst     38h
42d1 ff        rst     38h
42d2 ff        rst     38h
42d3 ff        rst     38h
42d4 ff        rst     38h
42d5 ff        rst     38h
42d6 ff        rst     38h
42d7 ff        rst     38h
42d8 ff        rst     38h
42d9 ff        rst     38h
42da ff        rst     38h
42db ff        rst     38h
42dc ff        rst     38h
42dd ff        rst     38h
42de ff        rst     38h
42df ff        rst     38h
42e0 ff        rst     38h
42e1 ff        rst     38h
42e2 ff        rst     38h
42e3 ff        rst     38h
42e4 ff        rst     38h
42e5 ff        rst     38h
42e6 ff        rst     38h
42e7 ff        rst     38h
42e8 ff        rst     38h
42e9 ff        rst     38h
42ea ff        rst     38h
42eb ff        rst     38h
42ec ff        rst     38h
42ed ff        rst     38h
42ee ff        rst     38h
42ef ff        rst     38h
42f0 ff        rst     38h
42f1 ff        rst     38h
42f2 ff        rst     38h
42f3 ff        rst     38h
42f4 ff        rst     38h
42f5 ff        rst     38h
42f6 ff        rst     38h
42f7 ff        rst     38h
42f8 ff        rst     38h
42f9 ff        rst     38h
42fa ff        rst     38h
42fb ff        rst     38h
42fc ff        rst     38h
42fd ff        rst     38h
42fe ff        rst     38h
42ff ff        rst     38h
4300 ff        rst     38h
4301 ff        rst     38h
4302 ff        rst     38h
4303 ff        rst     38h
4304 ff        rst     38h
4305 ff        rst     38h
4306 ff        rst     38h
4307 ff        rst     38h
4308 ff        rst     38h
4309 ff        rst     38h
430a ff        rst     38h
430b ff        rst     38h
430c ff        rst     38h
430d ff        rst     38h
430e ff        rst     38h
430f ff        rst     38h
4310 ff        rst     38h
4311 ff        rst     38h
4312 ff        rst     38h
4313 ff        rst     38h
4314 ff        rst     38h
4315 ff        rst     38h
4316 ff        rst     38h
4317 ff        rst     38h
4318 ff        rst     38h
4319 ff        rst     38h
431a ff        rst     38h
431b ff        rst     38h
431c ff        rst     38h
431d ff        rst     38h
431e ff        rst     38h
431f ff        rst     38h
4320 ff        rst     38h
4321 ff        rst     38h
4322 ff        rst     38h
4323 ff        rst     38h
4324 ff        rst     38h
4325 ff        rst     38h
4326 ff        rst     38h
4327 ff        rst     38h
4328 ff        rst     38h
4329 ff        rst     38h
432a ff        rst     38h
432b ff        rst     38h
432c ff        rst     38h
432d ff        rst     38h
432e ff        rst     38h
432f ff        rst     38h
4330 ff        rst     38h
4331 ff        rst     38h
4332 ff        rst     38h
4333 ff        rst     38h
4334 ff        rst     38h
4335 ff        rst     38h
4336 ff        rst     38h
4337 ff        rst     38h
4338 ff        rst     38h
4339 ff        rst     38h
433a ff        rst     38h
433b ff        rst     38h
433c ff        rst     38h
433d ff        rst     38h
433e ff        rst     38h
433f ff        rst     38h
4340 ff        rst     38h
4341 ff        rst     38h
4342 ff        rst     38h
4343 ff        rst     38h
4344 ff        rst     38h
4345 ff        rst     38h
4346 ff        rst     38h
4347 ff        rst     38h
4348 ff        rst     38h
4349 ff        rst     38h
434a ff        rst     38h
434b ff        rst     38h
434c ff        rst     38h
434d ff        rst     38h
434e ff        rst     38h
434f ff        rst     38h
4350 ff        rst     38h
4351 ff        rst     38h
4352 ff        rst     38h
4353 ff        rst     38h
4354 ff        rst     38h
4355 ff        rst     38h
4356 ff        rst     38h
4357 ff        rst     38h
4358 ff        rst     38h
4359 ff        rst     38h
435a ff        rst     38h
435b ff        rst     38h
435c ff        rst     38h
435d ff        rst     38h
435e ff        rst     38h
435f ff        rst     38h
4360 ff        rst     38h
4361 ff        rst     38h
4362 ff        rst     38h
4363 ff        rst     38h
4364 ff        rst     38h
4365 ff        rst     38h
4366 ff        rst     38h
4367 ff        rst     38h
4368 ff        rst     38h
4369 ff        rst     38h
436a ff        rst     38h
436b ff        rst     38h
436c ff        rst     38h
436d ff        rst     38h
436e ff        rst     38h
436f ff        rst     38h
4370 ff        rst     38h
4371 ff        rst     38h
4372 ff        rst     38h
4373 ff        rst     38h
4374 ff        rst     38h
4375 ff        rst     38h
4376 ff        rst     38h
4377 ff        rst     38h
4378 ff        rst     38h
4379 ff        rst     38h
437a ff        rst     38h
437b ff        rst     38h
437c ff        rst     38h
437d ff        rst     38h
437e ff        rst     38h
437f ff        rst     38h
4380 ff        rst     38h
4381 ff        rst     38h
4382 ff        rst     38h
4383 ff        rst     38h
4384 ff        rst     38h
4385 ff        rst     38h
4386 ff        rst     38h
4387 ff        rst     38h
4388 ff        rst     38h
4389 ff        rst     38h
438a ff        rst     38h
438b ff        rst     38h
438c ff        rst     38h
438d ff        rst     38h
438e ff        rst     38h
438f ff        rst     38h
4390 ff        rst     38h
4391 ff        rst     38h
4392 ff        rst     38h
4393 ff        rst     38h
4394 ff        rst     38h
4395 ff        rst     38h
4396 ff        rst     38h
4397 ff        rst     38h
4398 ff        rst     38h
4399 ff        rst     38h
439a ff        rst     38h
439b ff        rst     38h
439c ff        rst     38h
439d ff        rst     38h
439e ff        rst     38h
439f ff        rst     38h
43a0 ff        rst     38h
43a1 ff        rst     38h
43a2 ff        rst     38h
43a3 ff        rst     38h
43a4 ff        rst     38h
43a5 ff        rst     38h
43a6 ff        rst     38h
43a7 ff        rst     38h
43a8 ff        rst     38h
43a9 ff        rst     38h
43aa ff        rst     38h
43ab ff        rst     38h
43ac ff        rst     38h
43ad ff        rst     38h
43ae ff        rst     38h
43af ff        rst     38h
43b0 ff        rst     38h
43b1 ff        rst     38h
43b2 ff        rst     38h
43b3 ff        rst     38h
43b4 ff        rst     38h
43b5 ff        rst     38h
43b6 ff        rst     38h
43b7 ff        rst     38h
43b8 ff        rst     38h
43b9 ff        rst     38h
43ba ff        rst     38h
43bb ff        rst     38h
43bc ff        rst     38h
43bd ff        rst     38h
43be ff        rst     38h
43bf ff        rst     38h
43c0 ff        rst     38h
43c1 ff        rst     38h
43c2 ff        rst     38h
43c3 ff        rst     38h
43c4 ff        rst     38h
43c5 ff        rst     38h
43c6 ff        rst     38h
43c7 ff        rst     38h
43c8 ff        rst     38h
43c9 ff        rst     38h
43ca ff        rst     38h
43cb ff        rst     38h
43cc ff        rst     38h
43cd ff        rst     38h
43ce ff        rst     38h
43cf ff        rst     38h
43d0 ff        rst     38h
43d1 ff        rst     38h
43d2 ff        rst     38h
43d3 ff        rst     38h
43d4 ff        rst     38h
43d5 ff        rst     38h
43d6 ff        rst     38h
43d7 ff        rst     38h
43d8 ff        rst     38h
43d9 ff        rst     38h
43da ff        rst     38h
43db ff        rst     38h
43dc ff        rst     38h
43dd ff        rst     38h
43de ff        rst     38h
43df ff        rst     38h
43e0 ff        rst     38h
43e1 ff        rst     38h
43e2 ff        rst     38h
43e3 ff        rst     38h
43e4 ff        rst     38h
43e5 ff        rst     38h
43e6 ff        rst     38h
43e7 ff        rst     38h
43e8 ff        rst     38h
43e9 ff        rst     38h
43ea ff        rst     38h
43eb ff        rst     38h
43ec ff        rst     38h
43ed ff        rst     38h
43ee ff        rst     38h
43ef ff        rst     38h
43f0 ff        rst     38h
43f1 ff        rst     38h
43f2 ff        rst     38h
43f3 ff        rst     38h
43f4 ff        rst     38h
43f5 ff        rst     38h
43f6 ff        rst     38h
43f7 ff        rst     38h
43f8 ff        rst     38h
43f9 ff        rst     38h
43fa ff        rst     38h
43fb ff        rst     38h
43fc ff        rst     38h
43fd ff        rst     38h
43fe ff        rst     38h
43ff ff        rst     38h
4400 ff        rst     38h
4401 ff        rst     38h
4402 ff        rst     38h
4403 ff        rst     38h
4404 ff        rst     38h
4405 ff        rst     38h
4406 ff        rst     38h
4407 ff        rst     38h
4408 ff        rst     38h
4409 ff        rst     38h
440a ff        rst     38h
440b ff        rst     38h
440c ff        rst     38h
440d ff        rst     38h
440e ff        rst     38h
440f ff        rst     38h
4410 ff        rst     38h
4411 ff        rst     38h
4412 ff        rst     38h
4413 ff        rst     38h
4414 ff        rst     38h
4415 ff        rst     38h
4416 ff        rst     38h
4417 ff        rst     38h
4418 ff        rst     38h
4419 ff        rst     38h
441a ff        rst     38h
441b ff        rst     38h
441c ff        rst     38h
441d ff        rst     38h
441e ff        rst     38h
441f ff        rst     38h
4420 ff        rst     38h
4421 ff        rst     38h
4422 ff        rst     38h
4423 ff        rst     38h
4424 ff        rst     38h
4425 ff        rst     38h
4426 ff        rst     38h
4427 ff        rst     38h
4428 ff        rst     38h
4429 ff        rst     38h
442a ff        rst     38h
442b ff        rst     38h
442c ff        rst     38h
442d ff        rst     38h
442e ff        rst     38h
442f ff        rst     38h
4430 ff        rst     38h
4431 ff        rst     38h
4432 ff        rst     38h
4433 ff        rst     38h
4434 ff        rst     38h
4435 ff        rst     38h
4436 ff        rst     38h
4437 ff        rst     38h
4438 ff        rst     38h
4439 ff        rst     38h
443a ff        rst     38h
443b ff        rst     38h
443c ff        rst     38h
443d ff        rst     38h
443e ff        rst     38h
443f ff        rst     38h
4440 ff        rst     38h
4441 ff        rst     38h
4442 ff        rst     38h
4443 ff        rst     38h
4444 ff        rst     38h
4445 ff        rst     38h
4446 ff        rst     38h
4447 ff        rst     38h
4448 ff        rst     38h
4449 ff        rst     38h
444a ff        rst     38h
444b ff        rst     38h
444c ff        rst     38h
444d ff        rst     38h
444e ff        rst     38h
444f ff        rst     38h
4450 ff        rst     38h
4451 ff        rst     38h
4452 ff        rst     38h
4453 ff        rst     38h
4454 ff        rst     38h
4455 ff        rst     38h
4456 ff        rst     38h
4457 ff        rst     38h
4458 ff        rst     38h
4459 ff        rst     38h
445a ff        rst     38h
445b ff        rst     38h
445c ff        rst     38h
445d ff        rst     38h
445e ff        rst     38h
445f ff        rst     38h
4460 ff        rst     38h
4461 ff        rst     38h
4462 ff        rst     38h
4463 ff        rst     38h
4464 ff        rst     38h
4465 ff        rst     38h
4466 ff        rst     38h
4467 ff        rst     38h
4468 ff        rst     38h
4469 ff        rst     38h
446a ff        rst     38h
446b ff        rst     38h
446c ff        rst     38h
446d ff        rst     38h
446e ff        rst     38h
446f ff        rst     38h
4470 ff        rst     38h
4471 ff        rst     38h
4472 ff        rst     38h
4473 ff        rst     38h
4474 ff        rst     38h
4475 ff        rst     38h
4476 ff        rst     38h
4477 ff        rst     38h
4478 ff        rst     38h
4479 ff        rst     38h
447a ff        rst     38h
447b ff        rst     38h
447c ff        rst     38h
447d ff        rst     38h
447e ff        rst     38h
447f ff        rst     38h
4480 ff        rst     38h
4481 ff        rst     38h
4482 ff        rst     38h
4483 ff        rst     38h
4484 ff        rst     38h
4485 ff        rst     38h
4486 ff        rst     38h
4487 ff        rst     38h
4488 ff        rst     38h
4489 ff        rst     38h
448a ff        rst     38h
448b ff        rst     38h
448c ff        rst     38h
448d ff        rst     38h
448e ff        rst     38h
448f ff        rst     38h
4490 ff        rst     38h
4491 ff        rst     38h
4492 ff        rst     38h
4493 ff        rst     38h
4494 ff        rst     38h
4495 ff        rst     38h
4496 ff        rst     38h
4497 ff        rst     38h
4498 ff        rst     38h
4499 ff        rst     38h
449a ff        rst     38h
449b ff        rst     38h
449c ff        rst     38h
449d ff        rst     38h
449e ff        rst     38h
449f ff        rst     38h
44a0 ff        rst     38h
44a1 ff        rst     38h
44a2 ff        rst     38h
44a3 ff        rst     38h
44a4 ff        rst     38h
44a5 ff        rst     38h
44a6 ff        rst     38h
44a7 ff        rst     38h
44a8 ff        rst     38h
44a9 ff        rst     38h
44aa ff        rst     38h
44ab ff        rst     38h
44ac ff        rst     38h
44ad ff        rst     38h
44ae ff        rst     38h
44af ff        rst     38h
44b0 ff        rst     38h
44b1 ff        rst     38h
44b2 ff        rst     38h
44b3 ff        rst     38h
44b4 ff        rst     38h
44b5 ff        rst     38h
44b6 ff        rst     38h
44b7 ff        rst     38h
44b8 ff        rst     38h
44b9 ff        rst     38h
44ba ff        rst     38h
44bb ff        rst     38h
44bc ff        rst     38h
44bd ff        rst     38h
44be ff        rst     38h
44bf ff        rst     38h
44c0 ff        rst     38h
44c1 ff        rst     38h
44c2 ff        rst     38h
44c3 ff        rst     38h
44c4 ff        rst     38h
44c5 ff        rst     38h
44c6 ff        rst     38h
44c7 ff        rst     38h
44c8 ff        rst     38h
44c9 ff        rst     38h
44ca ff        rst     38h
44cb ff        rst     38h
44cc ff        rst     38h
44cd ff        rst     38h
44ce ff        rst     38h
44cf ff        rst     38h
44d0 ff        rst     38h
44d1 ff        rst     38h
44d2 ff        rst     38h
44d3 ff        rst     38h
44d4 ff        rst     38h
44d5 ff        rst     38h
44d6 ff        rst     38h
44d7 ff        rst     38h
44d8 ff        rst     38h
44d9 ff        rst     38h
44da ff        rst     38h
44db ff        rst     38h
44dc ff        rst     38h
44dd ff        rst     38h
44de ff        rst     38h
44df ff        rst     38h
44e0 ff        rst     38h
44e1 ff        rst     38h
44e2 ff        rst     38h
44e3 ff        rst     38h
44e4 ff        rst     38h
44e5 ff        rst     38h
44e6 ff        rst     38h
44e7 ff        rst     38h
44e8 ff        rst     38h
44e9 ff        rst     38h
44ea ff        rst     38h
44eb ff        rst     38h
44ec ff        rst     38h
44ed ff        rst     38h
44ee ff        rst     38h
44ef ff        rst     38h
44f0 ff        rst     38h
44f1 ff        rst     38h
44f2 ff        rst     38h
44f3 ff        rst     38h
44f4 ff        rst     38h
44f5 ff        rst     38h
44f6 ff        rst     38h
44f7 ff        rst     38h
44f8 ff        rst     38h
44f9 ff        rst     38h
44fa ff        rst     38h
44fb ff        rst     38h
44fc ff        rst     38h
44fd ff        rst     38h
44fe ff        rst     38h
44ff ff        rst     38h
4500 ff        rst     38h
4501 ff        rst     38h
4502 ff        rst     38h
4503 ff        rst     38h
4504 ff        rst     38h
4505 ff        rst     38h
4506 ff        rst     38h
4507 ff        rst     38h
4508 ff        rst     38h
4509 ff        rst     38h
450a ff        rst     38h
450b ff        rst     38h
450c ff        rst     38h
450d ff        rst     38h
450e ff        rst     38h
450f ff        rst     38h
4510 ff        rst     38h
4511 ff        rst     38h
4512 ff        rst     38h
4513 ff        rst     38h
4514 ff        rst     38h
4515 ff        rst     38h
4516 ff        rst     38h
4517 ff        rst     38h
4518 ff        rst     38h
4519 ff        rst     38h
451a ff        rst     38h
451b ff        rst     38h
451c ff        rst     38h
451d ff        rst     38h
451e ff        rst     38h
451f ff        rst     38h
4520 ff        rst     38h
4521 ff        rst     38h
4522 ff        rst     38h
4523 ff        rst     38h
4524 ff        rst     38h
4525 ff        rst     38h
4526 ff        rst     38h
4527 ff        rst     38h
4528 ff        rst     38h
4529 ff        rst     38h
452a ff        rst     38h
452b ff        rst     38h
452c ff        rst     38h
452d ff        rst     38h
452e ff        rst     38h
452f ff        rst     38h
4530 ff        rst     38h
4531 ff        rst     38h
4532 ff        rst     38h
4533 ff        rst     38h
4534 ff        rst     38h
4535 ff        rst     38h
4536 ff        rst     38h
4537 ff        rst     38h
4538 ff        rst     38h
4539 ff        rst     38h
453a ff        rst     38h
453b ff        rst     38h
453c ff        rst     38h
453d ff        rst     38h
453e ff        rst     38h
453f ff        rst     38h
4540 ff        rst     38h
4541 ff        rst     38h
4542 ff        rst     38h
4543 ff        rst     38h
4544 ff        rst     38h
4545 ff        rst     38h
4546 ff        rst     38h
4547 ff        rst     38h
4548 ff        rst     38h
4549 ff        rst     38h
454a ff        rst     38h
454b ff        rst     38h
454c ff        rst     38h
454d ff        rst     38h
454e ff        rst     38h
454f ff        rst     38h
4550 ff        rst     38h
4551 ff        rst     38h
4552 ff        rst     38h
4553 ff        rst     38h
4554 ff        rst     38h
4555 ff        rst     38h
4556 ff        rst     38h
4557 ff        rst     38h
4558 ff        rst     38h
4559 ff        rst     38h
455a ff        rst     38h
455b ff        rst     38h
455c ff        rst     38h
455d ff        rst     38h
455e ff        rst     38h
455f ff        rst     38h
4560 ff        rst     38h
4561 ff        rst     38h
4562 ff        rst     38h
4563 ff        rst     38h
4564 ff        rst     38h
4565 ff        rst     38h
4566 ff        rst     38h
4567 ff        rst     38h
4568 ff        rst     38h
4569 ff        rst     38h
456a ff        rst     38h
456b ff        rst     38h
456c ff        rst     38h
456d ff        rst     38h
456e ff        rst     38h
456f ff        rst     38h
4570 ff        rst     38h
4571 ff        rst     38h
4572 ff        rst     38h
4573 ff        rst     38h
4574 ff        rst     38h
4575 ff        rst     38h
4576 ff        rst     38h
4577 ff        rst     38h
4578 ff        rst     38h
4579 ff        rst     38h
457a ff        rst     38h
457b ff        rst     38h
457c ff        rst     38h
457d ff        rst     38h
457e ff        rst     38h
457f ff        rst     38h
4580 ff        rst     38h
4581 ff        rst     38h
4582 ff        rst     38h
4583 ff        rst     38h
4584 ff        rst     38h
4585 ff        rst     38h
4586 ff        rst     38h
4587 ff        rst     38h
4588 ff        rst     38h
4589 ff        rst     38h
458a ff        rst     38h
458b ff        rst     38h
458c ff        rst     38h
458d ff        rst     38h
458e ff        rst     38h
458f ff        rst     38h
4590 ff        rst     38h
4591 ff        rst     38h
4592 ff        rst     38h
4593 ff        rst     38h
4594 ff        rst     38h
4595 ff        rst     38h
4596 ff        rst     38h
4597 ff        rst     38h
4598 ff        rst     38h
4599 ff        rst     38h
459a ff        rst     38h
459b ff        rst     38h
459c ff        rst     38h
459d ff        rst     38h
459e ff        rst     38h
459f ff        rst     38h
45a0 ff        rst     38h
45a1 ff        rst     38h
45a2 ff        rst     38h
45a3 ff        rst     38h
45a4 ff        rst     38h
45a5 ff        rst     38h
45a6 ff        rst     38h
45a7 ff        rst     38h
45a8 ff        rst     38h
45a9 ff        rst     38h
45aa ff        rst     38h
45ab ff        rst     38h
45ac ff        rst     38h
45ad ff        rst     38h
45ae ff        rst     38h
45af ff        rst     38h
45b0 ff        rst     38h
45b1 ff        rst     38h
45b2 ff        rst     38h
45b3 ff        rst     38h
45b4 ff        rst     38h
45b5 ff        rst     38h
45b6 ff        rst     38h
45b7 ff        rst     38h
45b8 ff        rst     38h
45b9 ff        rst     38h
45ba ff        rst     38h
45bb ff        rst     38h
45bc ff        rst     38h
45bd ff        rst     38h
45be ff        rst     38h
45bf ff        rst     38h
45c0 ff        rst     38h
45c1 ff        rst     38h
45c2 ff        rst     38h
45c3 ff        rst     38h
45c4 ff        rst     38h
45c5 ff        rst     38h
45c6 ff        rst     38h
45c7 ff        rst     38h
45c8 ff        rst     38h
45c9 ff        rst     38h
45ca ff        rst     38h
45cb ff        rst     38h
45cc ff        rst     38h
45cd ff        rst     38h
45ce ff        rst     38h
45cf ff        rst     38h
45d0 ff        rst     38h
45d1 ff        rst     38h
45d2 ff        rst     38h
45d3 ff        rst     38h
45d4 ff        rst     38h
45d5 ff        rst     38h
45d6 ff        rst     38h
45d7 ff        rst     38h
45d8 ff        rst     38h
45d9 ff        rst     38h
45da ff        rst     38h
45db ff        rst     38h
45dc ff        rst     38h
45dd ff        rst     38h
45de ff        rst     38h
45df ff        rst     38h
45e0 ff        rst     38h
45e1 ff        rst     38h
45e2 ff        rst     38h
45e3 ff        rst     38h
45e4 ff        rst     38h
45e5 ff        rst     38h
45e6 ff        rst     38h
45e7 ff        rst     38h
45e8 ff        rst     38h
45e9 ff        rst     38h
45ea ff        rst     38h
45eb ff        rst     38h
45ec ff        rst     38h
45ed ff        rst     38h
45ee ff        rst     38h
45ef ff        rst     38h
45f0 ff        rst     38h
45f1 ff        rst     38h
45f2 ff        rst     38h
45f3 ff        rst     38h
45f4 ff        rst     38h
45f5 ff        rst     38h
45f6 ff        rst     38h
45f7 ff        rst     38h
45f8 ff        rst     38h
45f9 ff        rst     38h
45fa ff        rst     38h
45fb ff        rst     38h
45fc ff        rst     38h
45fd ff        rst     38h
45fe ff        rst     38h
45ff ff        rst     38h
4600 ff        rst     38h
4601 ff        rst     38h
4602 ff        rst     38h
4603 ff        rst     38h
4604 ff        rst     38h
4605 ff        rst     38h
4606 ff        rst     38h
4607 ff        rst     38h
4608 ff        rst     38h
4609 ff        rst     38h
460a ff        rst     38h
460b ff        rst     38h
460c ff        rst     38h
460d ff        rst     38h
460e ff        rst     38h
460f ff        rst     38h
4610 ff        rst     38h
4611 ff        rst     38h
4612 ff        rst     38h
4613 ff        rst     38h
4614 ff        rst     38h
4615 ff        rst     38h
4616 ff        rst     38h
4617 ff        rst     38h
4618 ff        rst     38h
4619 ff        rst     38h
461a ff        rst     38h
461b ff        rst     38h
461c ff        rst     38h
461d ff        rst     38h
461e ff        rst     38h
461f ff        rst     38h
4620 ff        rst     38h
4621 ff        rst     38h
4622 ff        rst     38h
4623 ff        rst     38h
4624 ff        rst     38h
4625 ff        rst     38h
4626 ff        rst     38h
4627 ff        rst     38h
4628 ff        rst     38h
4629 ff        rst     38h
462a ff        rst     38h
462b ff        rst     38h
462c ff        rst     38h
462d ff        rst     38h
462e ff        rst     38h
462f ff        rst     38h
4630 ff        rst     38h
4631 ff        rst     38h
4632 ff        rst     38h
4633 ff        rst     38h
4634 ff        rst     38h
4635 ff        rst     38h
4636 ff        rst     38h
4637 ff        rst     38h
4638 ff        rst     38h
4639 ff        rst     38h
463a ff        rst     38h
463b ff        rst     38h
463c ff        rst     38h
463d ff        rst     38h
463e ff        rst     38h
463f ff        rst     38h
4640 ff        rst     38h
4641 ff        rst     38h
4642 ff        rst     38h
4643 ff        rst     38h
4644 ff        rst     38h
4645 ff        rst     38h
4646 ff        rst     38h
4647 ff        rst     38h
4648 ff        rst     38h
4649 ff        rst     38h
464a ff        rst     38h
464b ff        rst     38h
464c ff        rst     38h
464d ff        rst     38h
464e ff        rst     38h
464f ff        rst     38h
4650 ff        rst     38h
4651 ff        rst     38h
4652 ff        rst     38h
4653 ff        rst     38h
4654 ff        rst     38h
4655 ff        rst     38h
4656 ff        rst     38h
4657 ff        rst     38h
4658 ff        rst     38h
4659 ff        rst     38h
465a ff        rst     38h
465b ff        rst     38h
465c ff        rst     38h
465d ff        rst     38h
465e ff        rst     38h
465f ff        rst     38h
4660 ff        rst     38h
4661 ff        rst     38h
4662 ff        rst     38h
4663 ff        rst     38h
4664 ff        rst     38h
4665 ff        rst     38h
4666 ff        rst     38h
4667 ff        rst     38h
4668 ff        rst     38h
4669 ff        rst     38h
466a ff        rst     38h
466b ff        rst     38h
466c ff        rst     38h
466d ff        rst     38h
466e ff        rst     38h
466f ff        rst     38h
4670 ff        rst     38h
4671 ff        rst     38h
4672 ff        rst     38h
4673 ff        rst     38h
4674 ff        rst     38h
4675 ff        rst     38h
4676 ff        rst     38h
4677 ff        rst     38h
4678 ff        rst     38h
4679 ff        rst     38h
467a ff        rst     38h
467b ff        rst     38h
467c ff        rst     38h
467d ff        rst     38h
467e ff        rst     38h
467f ff        rst     38h
4680 ff        rst     38h
4681 ff        rst     38h
4682 ff        rst     38h
4683 ff        rst     38h
4684 ff        rst     38h
4685 ff        rst     38h
4686 ff        rst     38h
4687 ff        rst     38h
4688 ff        rst     38h
4689 ff        rst     38h
468a ff        rst     38h
468b ff        rst     38h
468c ff        rst     38h
468d ff        rst     38h
468e ff        rst     38h
468f ff        rst     38h
4690 ff        rst     38h
4691 ff        rst     38h
4692 ff        rst     38h
4693 ff        rst     38h
4694 ff        rst     38h
4695 ff        rst     38h
4696 ff        rst     38h
4697 ff        rst     38h
4698 ff        rst     38h
4699 ff        rst     38h
469a ff        rst     38h
469b ff        rst     38h
469c ff        rst     38h
469d ff        rst     38h
469e ff        rst     38h
469f ff        rst     38h
46a0 ff        rst     38h
46a1 ff        rst     38h
46a2 ff        rst     38h
46a3 ff        rst     38h
46a4 ff        rst     38h
46a5 ff        rst     38h
46a6 ff        rst     38h
46a7 ff        rst     38h
46a8 ff        rst     38h
46a9 ff        rst     38h
46aa ff        rst     38h
46ab ff        rst     38h
46ac ff        rst     38h
46ad ff        rst     38h
46ae ff        rst     38h
46af ff        rst     38h
46b0 ff        rst     38h
46b1 ff        rst     38h
46b2 ff        rst     38h
46b3 ff        rst     38h
46b4 ff        rst     38h
46b5 ff        rst     38h
46b6 ff        rst     38h
46b7 ff        rst     38h
46b8 ff        rst     38h
46b9 ff        rst     38h
46ba ff        rst     38h
46bb ff        rst     38h
46bc ff        rst     38h
46bd ff        rst     38h
46be ff        rst     38h
46bf ff        rst     38h
46c0 ff        rst     38h
46c1 ff        rst     38h
46c2 ff        rst     38h
46c3 ff        rst     38h
46c4 ff        rst     38h
46c5 ff        rst     38h
46c6 ff        rst     38h
46c7 ff        rst     38h
46c8 ff        rst     38h
46c9 ff        rst     38h
46ca ff        rst     38h
46cb ff        rst     38h
46cc ff        rst     38h
46cd ff        rst     38h
46ce ff        rst     38h
46cf ff        rst     38h
46d0 ff        rst     38h
46d1 ff        rst     38h
46d2 ff        rst     38h
46d3 ff        rst     38h
46d4 ff        rst     38h
46d5 ff        rst     38h
46d6 ff        rst     38h
46d7 ff        rst     38h
46d8 ff        rst     38h
46d9 ff        rst     38h
46da ff        rst     38h
46db ff        rst     38h
46dc ff        rst     38h
46dd ff        rst     38h
46de ff        rst     38h
46df ff        rst     38h
46e0 ff        rst     38h
46e1 ff        rst     38h
46e2 ff        rst     38h
46e3 ff        rst     38h
46e4 ff        rst     38h
46e5 ff        rst     38h
46e6 ff        rst     38h
46e7 ff        rst     38h
46e8 ff        rst     38h
46e9 ff        rst     38h
46ea ff        rst     38h
46eb ff        rst     38h
46ec ff        rst     38h
46ed ff        rst     38h
46ee ff        rst     38h
46ef ff        rst     38h
46f0 ff        rst     38h
46f1 ff        rst     38h
46f2 ff        rst     38h
46f3 ff        rst     38h
46f4 ff        rst     38h
46f5 ff        rst     38h
46f6 ff        rst     38h
46f7 ff        rst     38h
46f8 ff        rst     38h
46f9 ff        rst     38h
46fa ff        rst     38h
46fb ff        rst     38h
46fc ff        rst     38h
46fd ff        rst     38h
46fe ff        rst     38h
46ff ff        rst     38h
4700 ff        rst     38h
4701 ff        rst     38h
4702 ff        rst     38h
4703 ff        rst     38h
4704 ff        rst     38h
4705 ff        rst     38h
4706 ff        rst     38h
4707 ff        rst     38h
4708 ff        rst     38h
4709 ff        rst     38h
470a ff        rst     38h
470b ff        rst     38h
470c ff        rst     38h
470d ff        rst     38h
470e ff        rst     38h
470f ff        rst     38h
4710 ff        rst     38h
4711 ff        rst     38h
4712 ff        rst     38h
4713 ff        rst     38h
4714 ff        rst     38h
4715 ff        rst     38h
4716 ff        rst     38h
4717 ff        rst     38h
4718 ff        rst     38h
4719 ff        rst     38h
471a ff        rst     38h
471b ff        rst     38h
471c ff        rst     38h
471d ff        rst     38h
471e ff        rst     38h
471f ff        rst     38h
4720 ff        rst     38h
4721 ff        rst     38h
4722 ff        rst     38h
4723 ff        rst     38h
4724 ff        rst     38h
4725 ff        rst     38h
4726 ff        rst     38h
4727 ff        rst     38h
4728 ff        rst     38h
4729 ff        rst     38h
472a ff        rst     38h
472b ff        rst     38h
472c ff        rst     38h
472d ff        rst     38h
472e ff        rst     38h
472f ff        rst     38h
4730 ff        rst     38h
4731 ff        rst     38h
4732 ff        rst     38h
4733 ff        rst     38h
4734 ff        rst     38h
4735 ff        rst     38h
4736 ff        rst     38h
4737 ff        rst     38h
4738 ff        rst     38h
4739 ff        rst     38h
473a ff        rst     38h
473b ff        rst     38h
473c ff        rst     38h
473d ff        rst     38h
473e ff        rst     38h
473f ff        rst     38h
4740 ff        rst     38h
4741 ff        rst     38h
4742 ff        rst     38h
4743 ff        rst     38h
4744 ff        rst     38h
4745 ff        rst     38h
4746 ff        rst     38h
4747 ff        rst     38h
4748 ff        rst     38h
4749 ff        rst     38h
474a ff        rst     38h
474b ff        rst     38h
474c ff        rst     38h
474d ff        rst     38h
474e ff        rst     38h
474f ff        rst     38h
4750 ff        rst     38h
4751 ff        rst     38h
4752 ff        rst     38h
4753 ff        rst     38h
4754 ff        rst     38h
4755 ff        rst     38h
4756 ff        rst     38h
4757 ff        rst     38h
4758 ff        rst     38h
4759 ff        rst     38h
475a ff        rst     38h
475b ff        rst     38h
475c ff        rst     38h
475d ff        rst     38h
475e ff        rst     38h
475f ff        rst     38h
4760 ff        rst     38h
4761 ff        rst     38h
4762 ff        rst     38h
4763 ff        rst     38h
4764 ff        rst     38h
4765 ff        rst     38h
4766 ff        rst     38h
4767 ff        rst     38h
4768 ff        rst     38h
4769 ff        rst     38h
476a ff        rst     38h
476b ff        rst     38h
476c ff        rst     38h
476d ff        rst     38h
476e ff        rst     38h
476f ff        rst     38h
4770 ff        rst     38h
4771 ff        rst     38h
4772 ff        rst     38h
4773 ff        rst     38h
4774 ff        rst     38h
4775 ff        rst     38h
4776 ff        rst     38h
4777 ff        rst     38h
4778 ff        rst     38h
4779 ff        rst     38h
477a ff        rst     38h
477b ff        rst     38h
477c ff        rst     38h
477d ff        rst     38h
477e ff        rst     38h
477f ff        rst     38h
4780 ff        rst     38h
4781 ff        rst     38h
4782 ff        rst     38h
4783 ff        rst     38h
4784 ff        rst     38h
4785 ff        rst     38h
4786 ff        rst     38h
4787 ff        rst     38h
4788 ff        rst     38h
4789 ff        rst     38h
478a ff        rst     38h
478b ff        rst     38h
478c ff        rst     38h
478d ff        rst     38h
478e ff        rst     38h
478f ff        rst     38h
4790 ff        rst     38h
4791 ff        rst     38h
4792 ff        rst     38h
4793 ff        rst     38h
4794 ff        rst     38h
4795 ff        rst     38h
4796 ff        rst     38h
4797 ff        rst     38h
4798 ff        rst     38h
4799 ff        rst     38h
479a ff        rst     38h
479b ff        rst     38h
479c ff        rst     38h
479d ff        rst     38h
479e ff        rst     38h
479f ff        rst     38h
47a0 ff        rst     38h
47a1 ff        rst     38h
47a2 ff        rst     38h
47a3 ff        rst     38h
47a4 ff        rst     38h
47a5 ff        rst     38h
47a6 ff        rst     38h
47a7 ff        rst     38h
47a8 ff        rst     38h
47a9 ff        rst     38h
47aa ff        rst     38h
47ab ff        rst     38h
47ac ff        rst     38h
47ad ff        rst     38h
47ae ff        rst     38h
47af ff        rst     38h
47b0 ff        rst     38h
47b1 ff        rst     38h
47b2 ff        rst     38h
47b3 ff        rst     38h
47b4 ff        rst     38h
47b5 ff        rst     38h
47b6 ff        rst     38h
47b7 ff        rst     38h
47b8 ff        rst     38h
47b9 ff        rst     38h
47ba ff        rst     38h
47bb ff        rst     38h
47bc ff        rst     38h
47bd ff        rst     38h
47be ff        rst     38h
47bf ff        rst     38h
47c0 ff        rst     38h
47c1 ff        rst     38h
47c2 ff        rst     38h
47c3 ff        rst     38h
47c4 ff        rst     38h
47c5 ff        rst     38h
47c6 ff        rst     38h
47c7 ff        rst     38h
47c8 ff        rst     38h
47c9 ff        rst     38h
47ca ff        rst     38h
47cb ff        rst     38h
47cc ff        rst     38h
47cd ff        rst     38h
47ce ff        rst     38h
47cf ff        rst     38h
47d0 ff        rst     38h
47d1 ff        rst     38h
47d2 ff        rst     38h
47d3 ff        rst     38h
47d4 ff        rst     38h
47d5 ff        rst     38h
47d6 ff        rst     38h
47d7 ff        rst     38h
47d8 ff        rst     38h
47d9 ff        rst     38h
47da ff        rst     38h
47db ff        rst     38h
47dc ff        rst     38h
47dd ff        rst     38h
47de ff        rst     38h
47df ff        rst     38h
47e0 ff        rst     38h
47e1 ff        rst     38h
47e2 ff        rst     38h
47e3 ff        rst     38h
47e4 ff        rst     38h
47e5 ff        rst     38h
47e6 ff        rst     38h
47e7 ff        rst     38h
47e8 ff        rst     38h
47e9 ff        rst     38h
47ea ff        rst     38h
47eb ff        rst     38h
47ec ff        rst     38h
47ed ff        rst     38h
47ee ff        rst     38h
47ef ff        rst     38h
47f0 ff        rst     38h
47f1 ff        rst     38h
47f2 ff        rst     38h
47f3 ff        rst     38h
47f4 ff        rst     38h
47f5 ff        rst     38h
47f6 ff        rst     38h
47f7 ff        rst     38h
47f8 ff        rst     38h
47f9 ff        rst     38h
47fa ff        rst     38h
47fb ff        rst     38h
47fc ff        rst     38h
47fd ff        rst     38h
47fe ff        rst     38h
47ff ff        rst     38h
4800 ff        rst     38h
4801 ff        rst     38h
4802 ff        rst     38h
4803 ff        rst     38h
4804 ff        rst     38h
4805 ff        rst     38h
4806 ff        rst     38h
4807 ff        rst     38h
4808 ff        rst     38h
4809 ff        rst     38h
480a ff        rst     38h
480b ff        rst     38h
480c ff        rst     38h
480d ff        rst     38h
480e ff        rst     38h
480f ff        rst     38h
4810 ff        rst     38h
4811 ff        rst     38h
4812 ff        rst     38h
4813 ff        rst     38h
4814 ff        rst     38h
4815 ff        rst     38h
4816 ff        rst     38h
4817 ff        rst     38h
4818 ff        rst     38h
4819 ff        rst     38h
481a ff        rst     38h
481b ff        rst     38h
481c ff        rst     38h
481d ff        rst     38h
481e ff        rst     38h
481f ff        rst     38h
4820 ff        rst     38h
4821 ff        rst     38h
4822 ff        rst     38h
4823 ff        rst     38h
4824 ff        rst     38h
4825 ff        rst     38h
4826 ff        rst     38h
4827 ff        rst     38h
4828 ff        rst     38h
4829 ff        rst     38h
482a ff        rst     38h
482b ff        rst     38h
482c ff        rst     38h
482d ff        rst     38h
482e ff        rst     38h
482f ff        rst     38h
4830 ff        rst     38h
4831 ff        rst     38h
4832 ff        rst     38h
4833 ff        rst     38h
4834 ff        rst     38h
4835 ff        rst     38h
4836 ff        rst     38h
4837 ff        rst     38h
4838 ff        rst     38h
4839 ff        rst     38h
483a ff        rst     38h
483b ff        rst     38h
483c ff        rst     38h
483d ff        rst     38h
483e ff        rst     38h
483f ff        rst     38h
4840 ff        rst     38h
4841 ff        rst     38h
4842 ff        rst     38h
4843 ff        rst     38h
4844 ff        rst     38h
4845 ff        rst     38h
4846 ff        rst     38h
4847 ff        rst     38h
4848 ff        rst     38h
4849 ff        rst     38h
484a ff        rst     38h
484b ff        rst     38h
484c ff        rst     38h
484d ff        rst     38h
484e ff        rst     38h
484f ff        rst     38h
4850 ff        rst     38h
4851 ff        rst     38h
4852 ff        rst     38h
4853 ff        rst     38h
4854 ff        rst     38h
4855 ff        rst     38h
4856 ff        rst     38h
4857 ff        rst     38h
4858 ff        rst     38h
4859 ff        rst     38h
485a ff        rst     38h
485b ff        rst     38h
485c ff        rst     38h
485d ff        rst     38h
485e ff        rst     38h
485f ff        rst     38h
4860 ff        rst     38h
4861 ff        rst     38h
4862 ff        rst     38h
4863 ff        rst     38h
4864 ff        rst     38h
4865 ff        rst     38h
4866 ff        rst     38h
4867 ff        rst     38h
4868 ff        rst     38h
4869 ff        rst     38h
486a ff        rst     38h
486b ff        rst     38h
486c ff        rst     38h
486d ff        rst     38h
486e ff        rst     38h
486f ff        rst     38h
4870 ff        rst     38h
4871 ff        rst     38h
4872 ff        rst     38h
4873 ff        rst     38h
4874 ff        rst     38h
4875 ff        rst     38h
4876 ff        rst     38h
4877 ff        rst     38h
4878 ff        rst     38h
4879 ff        rst     38h
487a ff        rst     38h
487b ff        rst     38h
487c ff        rst     38h
487d ff        rst     38h
487e ff        rst     38h
487f ff        rst     38h
4880 ff        rst     38h
4881 ff        rst     38h
4882 ff        rst     38h
4883 ff        rst     38h
4884 ff        rst     38h
4885 ff        rst     38h
4886 ff        rst     38h
4887 ff        rst     38h
4888 ff        rst     38h
4889 ff        rst     38h
488a ff        rst     38h
488b ff        rst     38h
488c ff        rst     38h
488d ff        rst     38h
488e ff        rst     38h
488f ff        rst     38h
4890 ff        rst     38h
4891 ff        rst     38h
4892 ff        rst     38h
4893 ff        rst     38h
4894 ff        rst     38h
4895 ff        rst     38h
4896 ff        rst     38h
4897 ff        rst     38h
4898 ff        rst     38h
4899 ff        rst     38h
489a ff        rst     38h
489b ff        rst     38h
489c ff        rst     38h
489d ff        rst     38h
489e ff        rst     38h
489f ff        rst     38h
48a0 ff        rst     38h
48a1 ff        rst     38h
48a2 ff        rst     38h
48a3 ff        rst     38h
48a4 ff        rst     38h
48a5 ff        rst     38h
48a6 ff        rst     38h
48a7 ff        rst     38h
48a8 ff        rst     38h
48a9 ff        rst     38h
48aa ff        rst     38h
48ab ff        rst     38h
48ac ff        rst     38h
48ad ff        rst     38h
48ae ff        rst     38h
48af ff        rst     38h
48b0 ff        rst     38h
48b1 ff        rst     38h
48b2 ff        rst     38h
48b3 ff        rst     38h
48b4 ff        rst     38h
48b5 ff        rst     38h
48b6 ff        rst     38h
48b7 ff        rst     38h
48b8 ff        rst     38h
48b9 ff        rst     38h
48ba ff        rst     38h
48bb ff        rst     38h
48bc ff        rst     38h
48bd ff        rst     38h
48be ff        rst     38h
48bf ff        rst     38h
48c0 ff        rst     38h
48c1 ff        rst     38h
48c2 ff        rst     38h
48c3 ff        rst     38h
48c4 ff        rst     38h
48c5 ff        rst     38h
48c6 ff        rst     38h
48c7 ff        rst     38h
48c8 ff        rst     38h
48c9 ff        rst     38h
48ca ff        rst     38h
48cb ff        rst     38h
48cc ff        rst     38h
48cd ff        rst     38h
48ce ff        rst     38h
48cf ff        rst     38h
48d0 ff        rst     38h
48d1 ff        rst     38h
48d2 ff        rst     38h
48d3 ff        rst     38h
48d4 ff        rst     38h
48d5 ff        rst     38h
48d6 ff        rst     38h
48d7 ff        rst     38h
48d8 ff        rst     38h
48d9 ff        rst     38h
48da ff        rst     38h
48db ff        rst     38h
48dc ff        rst     38h
48dd ff        rst     38h
48de ff        rst     38h
48df ff        rst     38h
48e0 ff        rst     38h
48e1 ff        rst     38h
48e2 ff        rst     38h
48e3 ff        rst     38h
48e4 ff        rst     38h
48e5 ff        rst     38h
48e6 ff        rst     38h
48e7 ff        rst     38h
48e8 ff        rst     38h
48e9 ff        rst     38h
48ea ff        rst     38h
48eb ff        rst     38h
48ec ff        rst     38h
48ed ff        rst     38h
48ee ff        rst     38h
48ef ff        rst     38h
48f0 ff        rst     38h
48f1 ff        rst     38h
48f2 ff        rst     38h
48f3 ff        rst     38h
48f4 ff        rst     38h
48f5 ff        rst     38h
48f6 ff        rst     38h
48f7 ff        rst     38h
48f8 ff        rst     38h
48f9 ff        rst     38h
48fa ff        rst     38h
48fb ff        rst     38h
48fc ff        rst     38h
48fd ff        rst     38h
48fe ff        rst     38h
48ff ff        rst     38h
4900 ff        rst     38h
4901 ff        rst     38h
4902 ff        rst     38h
4903 ff        rst     38h
4904 ff        rst     38h
4905 ff        rst     38h
4906 ff        rst     38h
4907 ff        rst     38h
4908 ff        rst     38h
4909 ff        rst     38h
490a ff        rst     38h
490b ff        rst     38h
490c ff        rst     38h
490d ff        rst     38h
490e ff        rst     38h
490f ff        rst     38h
4910 ff        rst     38h
4911 ff        rst     38h
4912 ff        rst     38h
4913 ff        rst     38h
4914 ff        rst     38h
4915 ff        rst     38h
4916 ff        rst     38h
4917 ff        rst     38h
4918 ff        rst     38h
4919 ff        rst     38h
491a ff        rst     38h
491b ff        rst     38h
491c ff        rst     38h
491d ff        rst     38h
491e ff        rst     38h
491f ff        rst     38h
4920 ff        rst     38h
4921 ff        rst     38h
4922 ff        rst     38h
4923 ff        rst     38h
4924 ff        rst     38h
4925 ff        rst     38h
4926 ff        rst     38h
4927 ff        rst     38h
4928 ff        rst     38h
4929 ff        rst     38h
492a ff        rst     38h
492b ff        rst     38h
492c ff        rst     38h
492d ff        rst     38h
492e ff        rst     38h
492f ff        rst     38h
4930 ff        rst     38h
4931 ff        rst     38h
4932 ff        rst     38h
4933 ff        rst     38h
4934 ff        rst     38h
4935 ff        rst     38h
4936 ff        rst     38h
4937 ff        rst     38h
4938 ff        rst     38h
4939 ff        rst     38h
493a ff        rst     38h
493b ff        rst     38h
493c ff        rst     38h
493d ff        rst     38h
493e ff        rst     38h
493f ff        rst     38h
4940 ff        rst     38h
4941 ff        rst     38h
4942 ff        rst     38h
4943 ff        rst     38h
4944 ff        rst     38h
4945 ff        rst     38h
4946 ff        rst     38h
4947 ff        rst     38h
4948 ff        rst     38h
4949 ff        rst     38h
494a ff        rst     38h
494b ff        rst     38h
494c ff        rst     38h
494d ff        rst     38h
494e ff        rst     38h
494f ff        rst     38h
4950 ff        rst     38h
4951 ff        rst     38h
4952 ff        rst     38h
4953 ff        rst     38h
4954 ff        rst     38h
4955 ff        rst     38h
4956 ff        rst     38h
4957 ff        rst     38h
4958 ff        rst     38h
4959 ff        rst     38h
495a ff        rst     38h
495b ff        rst     38h
495c ff        rst     38h
495d ff        rst     38h
495e ff        rst     38h
495f ff        rst     38h
4960 ff        rst     38h
4961 ff        rst     38h
4962 ff        rst     38h
4963 ff        rst     38h
4964 ff        rst     38h
4965 ff        rst     38h
4966 ff        rst     38h
4967 ff        rst     38h
4968 ff        rst     38h
4969 ff        rst     38h
496a ff        rst     38h
496b ff        rst     38h
496c ff        rst     38h
496d ff        rst     38h
496e ff        rst     38h
496f ff        rst     38h
4970 ff        rst     38h
4971 ff        rst     38h
4972 ff        rst     38h
4973 ff        rst     38h
4974 ff        rst     38h
4975 ff        rst     38h
4976 ff        rst     38h
4977 ff        rst     38h
4978 ff        rst     38h
4979 ff        rst     38h
497a ff        rst     38h
497b ff        rst     38h
497c ff        rst     38h
497d ff        rst     38h
497e ff        rst     38h
497f ff        rst     38h
4980 ff        rst     38h
4981 ff        rst     38h
4982 ff        rst     38h
4983 ff        rst     38h
4984 ff        rst     38h
4985 ff        rst     38h
4986 ff        rst     38h
4987 ff        rst     38h
4988 ff        rst     38h
4989 ff        rst     38h
498a ff        rst     38h
498b ff        rst     38h
498c ff        rst     38h
498d ff        rst     38h
498e ff        rst     38h
498f ff        rst     38h
4990 ff        rst     38h
4991 ff        rst     38h
4992 ff        rst     38h
4993 ff        rst     38h
4994 ff        rst     38h
4995 ff        rst     38h
4996 ff        rst     38h
4997 ff        rst     38h
4998 ff        rst     38h
4999 ff        rst     38h
499a ff        rst     38h
499b ff        rst     38h
499c ff        rst     38h
499d ff        rst     38h
499e ff        rst     38h
499f ff        rst     38h
49a0 ff        rst     38h
49a1 ff        rst     38h
49a2 ff        rst     38h
49a3 ff        rst     38h
49a4 ff        rst     38h
49a5 ff        rst     38h
49a6 ff        rst     38h
49a7 ff        rst     38h
49a8 ff        rst     38h
49a9 ff        rst     38h
49aa ff        rst     38h
49ab ff        rst     38h
49ac ff        rst     38h
49ad ff        rst     38h
49ae ff        rst     38h
49af ff        rst     38h
49b0 ff        rst     38h
49b1 ff        rst     38h
49b2 ff        rst     38h
49b3 ff        rst     38h
49b4 ff        rst     38h
49b5 ff        rst     38h
49b6 ff        rst     38h
49b7 ff        rst     38h
49b8 ff        rst     38h
49b9 ff        rst     38h
49ba ff        rst     38h
49bb ff        rst     38h
49bc ff        rst     38h
49bd ff        rst     38h
49be ff        rst     38h
49bf ff        rst     38h
49c0 ff        rst     38h
49c1 ff        rst     38h
49c2 ff        rst     38h
49c3 ff        rst     38h
49c4 ff        rst     38h
49c5 ff        rst     38h
49c6 ff        rst     38h
49c7 ff        rst     38h
49c8 ff        rst     38h
49c9 ff        rst     38h
49ca ff        rst     38h
49cb ff        rst     38h
49cc ff        rst     38h
49cd ff        rst     38h
49ce ff        rst     38h
49cf ff        rst     38h
49d0 ff        rst     38h
49d1 ff        rst     38h
49d2 ff        rst     38h
49d3 ff        rst     38h
49d4 ff        rst     38h
49d5 ff        rst     38h
49d6 ff        rst     38h
49d7 ff        rst     38h
49d8 ff        rst     38h
49d9 ff        rst     38h
49da ff        rst     38h
49db ff        rst     38h
49dc ff        rst     38h
49dd ff        rst     38h
49de ff        rst     38h
49df ff        rst     38h
49e0 ff        rst     38h
49e1 ff        rst     38h
49e2 ff        rst     38h
49e3 ff        rst     38h
49e4 ff        rst     38h
49e5 ff        rst     38h
49e6 ff        rst     38h
49e7 ff        rst     38h
49e8 ff        rst     38h
49e9 ff        rst     38h
49ea ff        rst     38h
49eb ff        rst     38h
49ec ff        rst     38h
49ed ff        rst     38h
49ee ff        rst     38h
49ef ff        rst     38h
49f0 ff        rst     38h
49f1 ff        rst     38h
49f2 ff        rst     38h
49f3 ff        rst     38h
49f4 ff        rst     38h
49f5 ff        rst     38h
49f6 ff        rst     38h
49f7 ff        rst     38h
49f8 ff        rst     38h
49f9 ff        rst     38h
49fa ff        rst     38h
49fb ff        rst     38h
49fc ff        rst     38h
49fd ff        rst     38h
49fe ff        rst     38h
49ff ff        rst     38h
4a00 ff        rst     38h
4a01 ff        rst     38h
4a02 ff        rst     38h
4a03 ff        rst     38h
4a04 ff        rst     38h
4a05 ff        rst     38h
4a06 ff        rst     38h
4a07 ff        rst     38h
4a08 ff        rst     38h
4a09 ff        rst     38h
4a0a ff        rst     38h
4a0b ff        rst     38h
4a0c ff        rst     38h
4a0d ff        rst     38h
4a0e ff        rst     38h
4a0f ff        rst     38h
4a10 ff        rst     38h
4a11 ff        rst     38h
4a12 ff        rst     38h
4a13 ff        rst     38h
4a14 ff        rst     38h
4a15 ff        rst     38h
4a16 ff        rst     38h
4a17 ff        rst     38h
4a18 ff        rst     38h
4a19 ff        rst     38h
4a1a ff        rst     38h
4a1b ff        rst     38h
4a1c ff        rst     38h
4a1d ff        rst     38h
4a1e ff        rst     38h
4a1f ff        rst     38h
4a20 ff        rst     38h
4a21 ff        rst     38h
4a22 ff        rst     38h
4a23 ff        rst     38h
4a24 ff        rst     38h
4a25 ff        rst     38h
4a26 ff        rst     38h
4a27 ff        rst     38h
4a28 ff        rst     38h
4a29 ff        rst     38h
4a2a ff        rst     38h
4a2b ff        rst     38h
4a2c ff        rst     38h
4a2d ff        rst     38h
4a2e ff        rst     38h
4a2f ff        rst     38h
4a30 ff        rst     38h
4a31 ff        rst     38h
4a32 ff        rst     38h
4a33 ff        rst     38h
4a34 ff        rst     38h
4a35 ff        rst     38h
4a36 ff        rst     38h
4a37 ff        rst     38h
4a38 ff        rst     38h
4a39 ff        rst     38h
4a3a ff        rst     38h
4a3b ff        rst     38h
4a3c ff        rst     38h
4a3d ff        rst     38h
4a3e ff        rst     38h
4a3f ff        rst     38h
4a40 ff        rst     38h
4a41 ff        rst     38h
4a42 ff        rst     38h
4a43 ff        rst     38h
4a44 ff        rst     38h
4a45 ff        rst     38h
4a46 ff        rst     38h
4a47 ff        rst     38h
4a48 ff        rst     38h
4a49 ff        rst     38h
4a4a ff        rst     38h
4a4b ff        rst     38h
4a4c ff        rst     38h
4a4d ff        rst     38h
4a4e ff        rst     38h
4a4f ff        rst     38h
4a50 ff        rst     38h
4a51 ff        rst     38h
4a52 ff        rst     38h
4a53 ff        rst     38h
4a54 ff        rst     38h
4a55 ff        rst     38h
4a56 ff        rst     38h
4a57 ff        rst     38h
4a58 ff        rst     38h
4a59 ff        rst     38h
4a5a ff        rst     38h
4a5b ff        rst     38h
4a5c ff        rst     38h
4a5d ff        rst     38h
4a5e ff        rst     38h
4a5f ff        rst     38h
4a60 ff        rst     38h
4a61 ff        rst     38h
4a62 ff        rst     38h
4a63 ff        rst     38h
4a64 ff        rst     38h
4a65 ff        rst     38h
4a66 ff        rst     38h
4a67 ff        rst     38h
4a68 ff        rst     38h
4a69 ff        rst     38h
4a6a ff        rst     38h
4a6b ff        rst     38h
4a6c ff        rst     38h
4a6d ff        rst     38h
4a6e ff        rst     38h
4a6f ff        rst     38h
4a70 ff        rst     38h
4a71 ff        rst     38h
4a72 ff        rst     38h
4a73 ff        rst     38h
4a74 ff        rst     38h
4a75 ff        rst     38h
4a76 ff        rst     38h
4a77 ff        rst     38h
4a78 ff        rst     38h
4a79 ff        rst     38h
4a7a ff        rst     38h
4a7b ff        rst     38h
4a7c ff        rst     38h
4a7d ff        rst     38h
4a7e ff        rst     38h
4a7f ff        rst     38h
4a80 ff        rst     38h
4a81 ff        rst     38h
4a82 ff        rst     38h
4a83 ff        rst     38h
4a84 ff        rst     38h
4a85 ff        rst     38h
4a86 ff        rst     38h
4a87 ff        rst     38h
4a88 ff        rst     38h
4a89 ff        rst     38h
4a8a ff        rst     38h
4a8b ff        rst     38h
4a8c ff        rst     38h
4a8d ff        rst     38h
4a8e ff        rst     38h
4a8f ff        rst     38h
4a90 ff        rst     38h
4a91 ff        rst     38h
4a92 ff        rst     38h
4a93 ff        rst     38h
4a94 ff        rst     38h
4a95 ff        rst     38h
4a96 ff        rst     38h
4a97 ff        rst     38h
4a98 ff        rst     38h
4a99 ff        rst     38h
4a9a ff        rst     38h
4a9b ff        rst     38h
4a9c ff        rst     38h
4a9d ff        rst     38h
4a9e ff        rst     38h
4a9f ff        rst     38h
4aa0 ff        rst     38h
4aa1 ff        rst     38h
4aa2 ff        rst     38h
4aa3 ff        rst     38h
4aa4 ff        rst     38h
4aa5 ff        rst     38h
4aa6 ff        rst     38h
4aa7 ff        rst     38h
4aa8 ff        rst     38h
4aa9 ff        rst     38h
4aaa ff        rst     38h
4aab ff        rst     38h
4aac ff        rst     38h
4aad ff        rst     38h
4aae ff        rst     38h
4aaf ff        rst     38h
4ab0 ff        rst     38h
4ab1 ff        rst     38h
4ab2 ff        rst     38h
4ab3 ff        rst     38h
4ab4 ff        rst     38h
4ab5 ff        rst     38h
4ab6 ff        rst     38h
4ab7 ff        rst     38h
4ab8 ff        rst     38h
4ab9 ff        rst     38h
4aba ff        rst     38h
4abb ff        rst     38h
4abc ff        rst     38h
4abd ff        rst     38h
4abe ff        rst     38h
4abf ff        rst     38h
4ac0 ff        rst     38h
4ac1 ff        rst     38h
4ac2 ff        rst     38h
4ac3 ff        rst     38h
4ac4 ff        rst     38h
4ac5 ff        rst     38h
4ac6 ff        rst     38h
4ac7 ff        rst     38h
4ac8 ff        rst     38h
4ac9 ff        rst     38h
4aca ff        rst     38h
4acb ff        rst     38h
4acc ff        rst     38h
4acd ff        rst     38h
4ace ff        rst     38h
4acf ff        rst     38h
4ad0 ff        rst     38h
4ad1 ff        rst     38h
4ad2 ff        rst     38h
4ad3 ff        rst     38h
4ad4 ff        rst     38h
4ad5 ff        rst     38h
4ad6 ff        rst     38h
4ad7 ff        rst     38h
4ad8 ff        rst     38h
4ad9 ff        rst     38h
4ada ff        rst     38h
4adb ff        rst     38h
4adc ff        rst     38h
4add ff        rst     38h
4ade ff        rst     38h
4adf ff        rst     38h
4ae0 ff        rst     38h
4ae1 ff        rst     38h
4ae2 ff        rst     38h
4ae3 ff        rst     38h
4ae4 ff        rst     38h
4ae5 ff        rst     38h
4ae6 ff        rst     38h
4ae7 ff        rst     38h
4ae8 ff        rst     38h
4ae9 ff        rst     38h
4aea ff        rst     38h
4aeb ff        rst     38h
4aec ff        rst     38h
4aed ff        rst     38h
4aee ff        rst     38h
4aef ff        rst     38h
4af0 ff        rst     38h
4af1 ff        rst     38h
4af2 ff        rst     38h
4af3 ff        rst     38h
4af4 ff        rst     38h
4af5 ff        rst     38h
4af6 ff        rst     38h
4af7 ff        rst     38h
4af8 ff        rst     38h
4af9 ff        rst     38h
4afa ff        rst     38h
4afb ff        rst     38h
4afc ff        rst     38h
4afd ff        rst     38h
4afe ff        rst     38h
4aff ff        rst     38h
4b00 ff        rst     38h
4b01 ff        rst     38h
4b02 ff        rst     38h
4b03 ff        rst     38h
4b04 ff        rst     38h
4b05 ff        rst     38h
4b06 ff        rst     38h
4b07 ff        rst     38h
4b08 ff        rst     38h
4b09 ff        rst     38h
4b0a ff        rst     38h
4b0b ff        rst     38h
4b0c ff        rst     38h
4b0d ff        rst     38h
4b0e ff        rst     38h
4b0f ff        rst     38h
4b10 ff        rst     38h
4b11 ff        rst     38h
4b12 ff        rst     38h
4b13 ff        rst     38h
4b14 ff        rst     38h
4b15 ff        rst     38h
4b16 ff        rst     38h
4b17 ff        rst     38h
4b18 ff        rst     38h
4b19 ff        rst     38h
4b1a ff        rst     38h
4b1b ff        rst     38h
4b1c ff        rst     38h
4b1d ff        rst     38h
4b1e ff        rst     38h
4b1f ff        rst     38h
4b20 ff        rst     38h
4b21 ff        rst     38h
4b22 ff        rst     38h
4b23 ff        rst     38h
4b24 ff        rst     38h
4b25 ff        rst     38h
4b26 ff        rst     38h
4b27 ff        rst     38h
4b28 ff        rst     38h
4b29 ff        rst     38h
4b2a ff        rst     38h
4b2b ff        rst     38h
4b2c ff        rst     38h
4b2d ff        rst     38h
4b2e ff        rst     38h
4b2f ff        rst     38h
4b30 ff        rst     38h
4b31 ff        rst     38h
4b32 ff        rst     38h
4b33 ff        rst     38h
4b34 ff        rst     38h
4b35 ff        rst     38h
4b36 ff        rst     38h
4b37 ff        rst     38h
4b38 ff        rst     38h
4b39 ff        rst     38h
4b3a ff        rst     38h
4b3b ff        rst     38h
4b3c ff        rst     38h
4b3d ff        rst     38h
4b3e ff        rst     38h
4b3f ff        rst     38h
4b40 ff        rst     38h
4b41 ff        rst     38h
4b42 ff        rst     38h
4b43 ff        rst     38h
4b44 ff        rst     38h
4b45 ff        rst     38h
4b46 ff        rst     38h
4b47 ff        rst     38h
4b48 ff        rst     38h
4b49 ff        rst     38h
4b4a ff        rst     38h
4b4b ff        rst     38h
4b4c ff        rst     38h
4b4d ff        rst     38h
4b4e ff        rst     38h
4b4f ff        rst     38h
4b50 ff        rst     38h
4b51 ff        rst     38h
4b52 ff        rst     38h
4b53 ff        rst     38h
4b54 ff        rst     38h
4b55 ff        rst     38h
4b56 ff        rst     38h
4b57 ff        rst     38h
4b58 ff        rst     38h
4b59 ff        rst     38h
4b5a ff        rst     38h
4b5b ff        rst     38h
4b5c ff        rst     38h
4b5d ff        rst     38h
4b5e ff        rst     38h
4b5f ff        rst     38h
4b60 ff        rst     38h
4b61 ff        rst     38h
4b62 ff        rst     38h
4b63 ff        rst     38h
4b64 ff        rst     38h
4b65 ff        rst     38h
4b66 ff        rst     38h
4b67 ff        rst     38h
4b68 ff        rst     38h
4b69 ff        rst     38h
4b6a ff        rst     38h
4b6b ff        rst     38h
4b6c ff        rst     38h
4b6d ff        rst     38h
4b6e ff        rst     38h
4b6f ff        rst     38h
4b70 ff        rst     38h
4b71 ff        rst     38h
4b72 ff        rst     38h
4b73 ff        rst     38h
4b74 ff        rst     38h
4b75 ff        rst     38h
4b76 ff        rst     38h
4b77 ff        rst     38h
4b78 ff        rst     38h
4b79 ff        rst     38h
4b7a ff        rst     38h
4b7b ff        rst     38h
4b7c ff        rst     38h
4b7d ff        rst     38h
4b7e ff        rst     38h
4b7f ff        rst     38h
4b80 ff        rst     38h
4b81 ff        rst     38h
4b82 ff        rst     38h
4b83 ff        rst     38h
4b84 ff        rst     38h
4b85 ff        rst     38h
4b86 ff        rst     38h
4b87 ff        rst     38h
4b88 ff        rst     38h
4b89 ff        rst     38h
4b8a ff        rst     38h
4b8b ff        rst     38h
4b8c ff        rst     38h
4b8d ff        rst     38h
4b8e ff        rst     38h
4b8f ff        rst     38h
4b90 ff        rst     38h
4b91 ff        rst     38h
4b92 ff        rst     38h
4b93 ff        rst     38h
4b94 ff        rst     38h
4b95 ff        rst     38h
4b96 ff        rst     38h
4b97 ff        rst     38h
4b98 ff        rst     38h
4b99 ff        rst     38h
4b9a ff        rst     38h
4b9b ff        rst     38h
4b9c ff        rst     38h
4b9d ff        rst     38h
4b9e ff        rst     38h
4b9f ff        rst     38h
4ba0 ff        rst     38h
4ba1 ff        rst     38h
4ba2 ff        rst     38h
4ba3 ff        rst     38h
4ba4 ff        rst     38h
4ba5 ff        rst     38h
4ba6 ff        rst     38h
4ba7 ff        rst     38h
4ba8 ff        rst     38h
4ba9 ff        rst     38h
4baa ff        rst     38h
4bab ff        rst     38h
4bac ff        rst     38h
4bad ff        rst     38h
4bae ff        rst     38h
4baf ff        rst     38h
4bb0 ff        rst     38h
4bb1 ff        rst     38h
4bb2 ff        rst     38h
4bb3 ff        rst     38h
4bb4 ff        rst     38h
4bb5 ff        rst     38h
4bb6 ff        rst     38h
4bb7 ff        rst     38h
4bb8 ff        rst     38h
4bb9 ff        rst     38h
4bba ff        rst     38h
4bbb ff        rst     38h
4bbc ff        rst     38h
4bbd ff        rst     38h
4bbe ff        rst     38h
4bbf ff        rst     38h
4bc0 ff        rst     38h
4bc1 ff        rst     38h
4bc2 ff        rst     38h
4bc3 ff        rst     38h
4bc4 ff        rst     38h
4bc5 ff        rst     38h
4bc6 ff        rst     38h
4bc7 ff        rst     38h
4bc8 ff        rst     38h
4bc9 ff        rst     38h
4bca ff        rst     38h
4bcb ff        rst     38h
4bcc ff        rst     38h
4bcd ff        rst     38h
4bce ff        rst     38h
4bcf ff        rst     38h
4bd0 ff        rst     38h
4bd1 ff        rst     38h
4bd2 ff        rst     38h
4bd3 ff        rst     38h
4bd4 ff        rst     38h
4bd5 ff        rst     38h
4bd6 ff        rst     38h
4bd7 ff        rst     38h
4bd8 ff        rst     38h
4bd9 ff        rst     38h
4bda ff        rst     38h
4bdb ff        rst     38h
4bdc ff        rst     38h
4bdd ff        rst     38h
4bde ff        rst     38h
4bdf ff        rst     38h
4be0 ff        rst     38h
4be1 ff        rst     38h
4be2 ff        rst     38h
4be3 ff        rst     38h
4be4 ff        rst     38h
4be5 ff        rst     38h
4be6 ff        rst     38h
4be7 ff        rst     38h
4be8 ff        rst     38h
4be9 ff        rst     38h
4bea ff        rst     38h
4beb ff        rst     38h
4bec ff        rst     38h
4bed ff        rst     38h
4bee ff        rst     38h
4bef ff        rst     38h
4bf0 ff        rst     38h
4bf1 ff        rst     38h
4bf2 ff        rst     38h
4bf3 ff        rst     38h
4bf4 ff        rst     38h
4bf5 ff        rst     38h
4bf6 ff        rst     38h
4bf7 ff        rst     38h
4bf8 ff        rst     38h
4bf9 ff        rst     38h
4bfa ff        rst     38h
4bfb ff        rst     38h
4bfc ff        rst     38h
4bfd ff        rst     38h
4bfe ff        rst     38h
4bff ff        rst     38h
4c00 ff        rst     38h
4c01 ff        rst     38h
4c02 ff        rst     38h
4c03 ff        rst     38h
4c04 ff        rst     38h
4c05 ff        rst     38h
4c06 ff        rst     38h
4c07 ff        rst     38h
4c08 ff        rst     38h
4c09 ff        rst     38h
4c0a ff        rst     38h
4c0b ff        rst     38h
4c0c ff        rst     38h
4c0d ff        rst     38h
4c0e ff        rst     38h
4c0f ff        rst     38h
4c10 ff        rst     38h
4c11 ff        rst     38h
4c12 ff        rst     38h
4c13 ff        rst     38h
4c14 ff        rst     38h
4c15 ff        rst     38h
4c16 ff        rst     38h
4c17 ff        rst     38h
4c18 ff        rst     38h
4c19 ff        rst     38h
4c1a ff        rst     38h
4c1b ff        rst     38h
4c1c ff        rst     38h
4c1d ff        rst     38h
4c1e ff        rst     38h
4c1f ff        rst     38h
4c20 ff        rst     38h
4c21 ff        rst     38h
4c22 ff        rst     38h
4c23 ff        rst     38h
4c24 ff        rst     38h
4c25 ff        rst     38h
4c26 ff        rst     38h
4c27 ff        rst     38h
4c28 ff        rst     38h
4c29 ff        rst     38h
4c2a ff        rst     38h
4c2b ff        rst     38h
4c2c ff        rst     38h
4c2d ff        rst     38h
4c2e ff        rst     38h
4c2f ff        rst     38h
4c30 ff        rst     38h
4c31 ff        rst     38h
4c32 ff        rst     38h
4c33 ff        rst     38h
4c34 ff        rst     38h
4c35 ff        rst     38h
4c36 ff        rst     38h
4c37 ff        rst     38h
4c38 ff        rst     38h
4c39 ff        rst     38h
4c3a ff        rst     38h
4c3b ff        rst     38h
4c3c ff        rst     38h
4c3d ff        rst     38h
4c3e ff        rst     38h
4c3f ff        rst     38h
4c40 ff        rst     38h
4c41 ff        rst     38h
4c42 ff        rst     38h
4c43 ff        rst     38h
4c44 ff        rst     38h
4c45 ff        rst     38h
4c46 ff        rst     38h
4c47 ff        rst     38h
4c48 ff        rst     38h
4c49 ff        rst     38h
4c4a ff        rst     38h
4c4b ff        rst     38h
4c4c ff        rst     38h
4c4d ff        rst     38h
4c4e ff        rst     38h
4c4f ff        rst     38h
4c50 ff        rst     38h
4c51 ff        rst     38h
4c52 ff        rst     38h
4c53 ff        rst     38h
4c54 ff        rst     38h
4c55 ff        rst     38h
4c56 ff        rst     38h
4c57 ff        rst     38h
4c58 ff        rst     38h
4c59 ff        rst     38h
4c5a ff        rst     38h
4c5b ff        rst     38h
4c5c ff        rst     38h
4c5d ff        rst     38h
4c5e ff        rst     38h
4c5f ff        rst     38h
4c60 ff        rst     38h
4c61 ff        rst     38h
4c62 ff        rst     38h
4c63 ff        rst     38h
4c64 ff        rst     38h
4c65 ff        rst     38h
4c66 ff        rst     38h
4c67 ff        rst     38h
4c68 ff        rst     38h
4c69 ff        rst     38h
4c6a ff        rst     38h
4c6b ff        rst     38h
4c6c ff        rst     38h
4c6d ff        rst     38h
4c6e ff        rst     38h
4c6f ff        rst     38h
4c70 ff        rst     38h
4c71 ff        rst     38h
4c72 ff        rst     38h
4c73 ff        rst     38h
4c74 ff        rst     38h
4c75 ff        rst     38h
4c76 ff        rst     38h
4c77 ff        rst     38h
4c78 ff        rst     38h
4c79 ff        rst     38h
4c7a ff        rst     38h
4c7b ff        rst     38h
4c7c ff        rst     38h
4c7d ff        rst     38h
4c7e ff        rst     38h
4c7f ff        rst     38h
4c80 ff        rst     38h
4c81 ff        rst     38h
4c82 ff        rst     38h
4c83 ff        rst     38h
4c84 ff        rst     38h
4c85 ff        rst     38h
4c86 ff        rst     38h
4c87 ff        rst     38h
4c88 ff        rst     38h
4c89 ff        rst     38h
4c8a ff        rst     38h
4c8b ff        rst     38h
4c8c ff        rst     38h
4c8d ff        rst     38h
4c8e ff        rst     38h
4c8f ff        rst     38h
4c90 ff        rst     38h
4c91 ff        rst     38h
4c92 ff        rst     38h
4c93 ff        rst     38h
4c94 ff        rst     38h
4c95 ff        rst     38h
4c96 ff        rst     38h
4c97 ff        rst     38h
4c98 ff        rst     38h
4c99 ff        rst     38h
4c9a ff        rst     38h
4c9b ff        rst     38h
4c9c ff        rst     38h
4c9d ff        rst     38h
4c9e ff        rst     38h
4c9f ff        rst     38h
4ca0 ff        rst     38h
4ca1 ff        rst     38h
4ca2 ff        rst     38h
4ca3 ff        rst     38h
4ca4 ff        rst     38h
4ca5 ff        rst     38h
4ca6 ff        rst     38h
4ca7 ff        rst     38h
4ca8 ff        rst     38h
4ca9 ff        rst     38h
4caa ff        rst     38h
4cab ff        rst     38h
4cac ff        rst     38h
4cad ff        rst     38h
4cae ff        rst     38h
4caf ff        rst     38h
4cb0 ff        rst     38h
4cb1 ff        rst     38h
4cb2 ff        rst     38h
4cb3 ff        rst     38h
4cb4 ff        rst     38h
4cb5 ff        rst     38h
4cb6 ff        rst     38h
4cb7 ff        rst     38h
4cb8 ff        rst     38h
4cb9 ff        rst     38h
4cba ff        rst     38h
4cbb ff        rst     38h
4cbc ff        rst     38h
4cbd ff        rst     38h
4cbe ff        rst     38h
4cbf ff        rst     38h
4cc0 ff        rst     38h
4cc1 ff        rst     38h
4cc2 ff        rst     38h
4cc3 ff        rst     38h
4cc4 ff        rst     38h
4cc5 ff        rst     38h
4cc6 ff        rst     38h
4cc7 ff        rst     38h
4cc8 ff        rst     38h
4cc9 ff        rst     38h
4cca ff        rst     38h
4ccb ff        rst     38h
4ccc ff        rst     38h
4ccd ff        rst     38h
4cce ff        rst     38h
4ccf ff        rst     38h
4cd0 ff        rst     38h
4cd1 ff        rst     38h
4cd2 ff        rst     38h
4cd3 ff        rst     38h
4cd4 ff        rst     38h
4cd5 ff        rst     38h
4cd6 ff        rst     38h
4cd7 ff        rst     38h
4cd8 ff        rst     38h
4cd9 ff        rst     38h
4cda ff        rst     38h
4cdb ff        rst     38h
4cdc ff        rst     38h
4cdd ff        rst     38h
4cde ff        rst     38h
4cdf ff        rst     38h
4ce0 ff        rst     38h
4ce1 ff        rst     38h
4ce2 ff        rst     38h
4ce3 ff        rst     38h
4ce4 ff        rst     38h
4ce5 ff        rst     38h
4ce6 ff        rst     38h
4ce7 ff        rst     38h
4ce8 ff        rst     38h
4ce9 ff        rst     38h
4cea ff        rst     38h
4ceb ff        rst     38h
4cec ff        rst     38h
4ced ff        rst     38h
4cee ff        rst     38h
4cef ff        rst     38h
4cf0 ff        rst     38h
4cf1 ff        rst     38h
4cf2 ff        rst     38h
4cf3 ff        rst     38h
4cf4 ff        rst     38h
4cf5 ff        rst     38h
4cf6 ff        rst     38h
4cf7 ff        rst     38h
4cf8 ff        rst     38h
4cf9 ff        rst     38h
4cfa ff        rst     38h
4cfb ff        rst     38h
4cfc ff        rst     38h
4cfd ff        rst     38h
4cfe ff        rst     38h
4cff ff        rst     38h
4d00 ff        rst     38h
4d01 ff        rst     38h
4d02 ff        rst     38h
4d03 ff        rst     38h
4d04 ff        rst     38h
4d05 ff        rst     38h
4d06 ff        rst     38h
4d07 ff        rst     38h
4d08 ff        rst     38h
4d09 ff        rst     38h
4d0a ff        rst     38h
4d0b ff        rst     38h
4d0c ff        rst     38h
4d0d ff        rst     38h
4d0e ff        rst     38h
4d0f ff        rst     38h
4d10 ff        rst     38h
4d11 ff        rst     38h
4d12 ff        rst     38h
4d13 ff        rst     38h
4d14 ff        rst     38h
4d15 ff        rst     38h
4d16 ff        rst     38h
4d17 ff        rst     38h
4d18 ff        rst     38h
4d19 ff        rst     38h
4d1a ff        rst     38h
4d1b ff        rst     38h
4d1c ff        rst     38h
4d1d ff        rst     38h
4d1e ff        rst     38h
4d1f ff        rst     38h
4d20 ff        rst     38h
4d21 ff        rst     38h
4d22 ff        rst     38h
4d23 ff        rst     38h
4d24 ff        rst     38h
4d25 ff        rst     38h
4d26 ff        rst     38h
4d27 ff        rst     38h
4d28 ff        rst     38h
4d29 ff        rst     38h
4d2a ff        rst     38h
4d2b ff        rst     38h
4d2c ff        rst     38h
4d2d ff        rst     38h
4d2e ff        rst     38h
4d2f ff        rst     38h
4d30 ff        rst     38h
4d31 ff        rst     38h
4d32 ff        rst     38h
4d33 ff        rst     38h
4d34 ff        rst     38h
4d35 ff        rst     38h
4d36 ff        rst     38h
4d37 ff        rst     38h
4d38 ff        rst     38h
4d39 ff        rst     38h
4d3a ff        rst     38h
4d3b ff        rst     38h
4d3c ff        rst     38h
4d3d ff        rst     38h
4d3e ff        rst     38h
4d3f ff        rst     38h
4d40 ff        rst     38h
4d41 ff        rst     38h
4d42 ff        rst     38h
4d43 ff        rst     38h
4d44 ff        rst     38h
4d45 ff        rst     38h
4d46 ff        rst     38h
4d47 ff        rst     38h
4d48 ff        rst     38h
4d49 ff        rst     38h
4d4a ff        rst     38h
4d4b ff        rst     38h
4d4c ff        rst     38h
4d4d ff        rst     38h
4d4e ff        rst     38h
4d4f ff        rst     38h
4d50 ff        rst     38h
4d51 ff        rst     38h
4d52 ff        rst     38h
4d53 ff        rst     38h
4d54 ff        rst     38h
4d55 ff        rst     38h
4d56 ff        rst     38h
4d57 ff        rst     38h
4d58 ff        rst     38h
4d59 ff        rst     38h
4d5a ff        rst     38h
4d5b ff        rst     38h
4d5c ff        rst     38h
4d5d ff        rst     38h
4d5e ff        rst     38h
4d5f ff        rst     38h
4d60 ff        rst     38h
4d61 ff        rst     38h
4d62 ff        rst     38h
4d63 ff        rst     38h
4d64 ff        rst     38h
4d65 ff        rst     38h
4d66 ff        rst     38h
4d67 ff        rst     38h
4d68 ff        rst     38h
4d69 ff        rst     38h
4d6a ff        rst     38h
4d6b ff        rst     38h
4d6c ff        rst     38h
4d6d ff        rst     38h
4d6e ff        rst     38h
4d6f ff        rst     38h
4d70 ff        rst     38h
4d71 ff        rst     38h
4d72 ff        rst     38h
4d73 ff        rst     38h
4d74 ff        rst     38h
4d75 ff        rst     38h
4d76 ff        rst     38h
4d77 ff        rst     38h
4d78 ff        rst     38h
4d79 ff        rst     38h
4d7a ff        rst     38h
4d7b ff        rst     38h
4d7c ff        rst     38h
4d7d ff        rst     38h
4d7e ff        rst     38h
4d7f ff        rst     38h
4d80 ff        rst     38h
4d81 ff        rst     38h
4d82 ff        rst     38h
4d83 ff        rst     38h
4d84 ff        rst     38h
4d85 ff        rst     38h
4d86 ff        rst     38h
4d87 ff        rst     38h
4d88 ff        rst     38h
4d89 ff        rst     38h
4d8a ff        rst     38h
4d8b ff        rst     38h
4d8c ff        rst     38h
4d8d ff        rst     38h
4d8e ff        rst     38h
4d8f ff        rst     38h
4d90 ff        rst     38h
4d91 ff        rst     38h
4d92 ff        rst     38h
4d93 ff        rst     38h
4d94 ff        rst     38h
4d95 ff        rst     38h
4d96 ff        rst     38h
4d97 ff        rst     38h
4d98 ff        rst     38h
4d99 ff        rst     38h
4d9a ff        rst     38h
4d9b ff        rst     38h
4d9c ff        rst     38h
4d9d ff        rst     38h
4d9e ff        rst     38h
4d9f ff        rst     38h
4da0 ff        rst     38h
4da1 ff        rst     38h
4da2 ff        rst     38h
4da3 ff        rst     38h
4da4 ff        rst     38h
4da5 ff        rst     38h
4da6 ff        rst     38h
4da7 ff        rst     38h
4da8 ff        rst     38h
4da9 ff        rst     38h
4daa ff        rst     38h
4dab ff        rst     38h
4dac ff        rst     38h
4dad ff        rst     38h
4dae ff        rst     38h
4daf ff        rst     38h
4db0 ff        rst     38h
4db1 ff        rst     38h
4db2 ff        rst     38h
4db3 ff        rst     38h
4db4 ff        rst     38h
4db5 ff        rst     38h
4db6 ff        rst     38h
4db7 ff        rst     38h
4db8 ff        rst     38h
4db9 ff        rst     38h
4dba ff        rst     38h
4dbb ff        rst     38h
4dbc ff        rst     38h
4dbd ff        rst     38h
4dbe ff        rst     38h
4dbf ff        rst     38h
4dc0 ff        rst     38h
4dc1 ff        rst     38h
4dc2 ff        rst     38h
4dc3 ff        rst     38h
4dc4 ff        rst     38h
4dc5 ff        rst     38h
4dc6 ff        rst     38h
4dc7 ff        rst     38h
4dc8 ff        rst     38h
4dc9 ff        rst     38h
4dca ff        rst     38h
4dcb ff        rst     38h
4dcc ff        rst     38h
4dcd ff        rst     38h
4dce ff        rst     38h
4dcf ff        rst     38h
4dd0 ff        rst     38h
4dd1 ff        rst     38h
4dd2 ff        rst     38h
4dd3 ff        rst     38h
4dd4 ff        rst     38h
4dd5 ff        rst     38h
4dd6 ff        rst     38h
4dd7 ff        rst     38h
4dd8 ff        rst     38h
4dd9 ff        rst     38h
4dda ff        rst     38h
4ddb ff        rst     38h
4ddc ff        rst     38h
4ddd ff        rst     38h
4dde ff        rst     38h
4ddf ff        rst     38h
4de0 ff        rst     38h
4de1 ff        rst     38h
4de2 ff        rst     38h
4de3 ff        rst     38h
4de4 ff        rst     38h
4de5 ff        rst     38h
4de6 ff        rst     38h
4de7 ff        rst     38h
4de8 ff        rst     38h
4de9 ff        rst     38h
4dea ff        rst     38h
4deb ff        rst     38h
4dec ff        rst     38h
4ded ff        rst     38h
4dee ff        rst     38h
4def ff        rst     38h
4df0 ff        rst     38h
4df1 ff        rst     38h
4df2 ff        rst     38h
4df3 ff        rst     38h
4df4 ff        rst     38h
4df5 ff        rst     38h
4df6 ff        rst     38h
4df7 ff        rst     38h
4df8 ff        rst     38h
4df9 ff        rst     38h
4dfa ff        rst     38h
4dfb ff        rst     38h
4dfc ff        rst     38h
4dfd ff        rst     38h
4dfe ff        rst     38h
4dff ff        rst     38h
4e00 ff        rst     38h
4e01 ff        rst     38h
4e02 ff        rst     38h
4e03 ff        rst     38h
4e04 ff        rst     38h
4e05 ff        rst     38h
4e06 ff        rst     38h
4e07 ff        rst     38h
4e08 ff        rst     38h
4e09 ff        rst     38h
4e0a ff        rst     38h
4e0b ff        rst     38h
4e0c ff        rst     38h
4e0d ff        rst     38h
4e0e ff        rst     38h
4e0f ff        rst     38h
4e10 ff        rst     38h
4e11 ff        rst     38h
4e12 ff        rst     38h
4e13 ff        rst     38h
4e14 ff        rst     38h
4e15 ff        rst     38h
4e16 ff        rst     38h
4e17 ff        rst     38h
4e18 ff        rst     38h
4e19 ff        rst     38h
4e1a ff        rst     38h
4e1b ff        rst     38h
4e1c ff        rst     38h
4e1d ff        rst     38h
4e1e ff        rst     38h
4e1f ff        rst     38h
4e20 ff        rst     38h
4e21 ff        rst     38h
4e22 ff        rst     38h
4e23 ff        rst     38h
4e24 ff        rst     38h
4e25 ff        rst     38h
4e26 ff        rst     38h
4e27 ff        rst     38h
4e28 ff        rst     38h
4e29 ff        rst     38h
4e2a ff        rst     38h
4e2b ff        rst     38h
4e2c ff        rst     38h
4e2d ff        rst     38h
4e2e ff        rst     38h
4e2f ff        rst     38h
4e30 ff        rst     38h
4e31 ff        rst     38h
4e32 ff        rst     38h
4e33 ff        rst     38h
4e34 ff        rst     38h
4e35 ff        rst     38h
4e36 ff        rst     38h
4e37 ff        rst     38h
4e38 ff        rst     38h
4e39 ff        rst     38h
4e3a ff        rst     38h
4e3b ff        rst     38h
4e3c ff        rst     38h
4e3d ff        rst     38h
4e3e ff        rst     38h
4e3f ff        rst     38h
4e40 ff        rst     38h
4e41 ff        rst     38h
4e42 ff        rst     38h
4e43 ff        rst     38h
4e44 ff        rst     38h
4e45 ff        rst     38h
4e46 ff        rst     38h
4e47 ff        rst     38h
4e48 ff        rst     38h
4e49 ff        rst     38h
4e4a ff        rst     38h
4e4b ff        rst     38h
4e4c ff        rst     38h
4e4d ff        rst     38h
4e4e ff        rst     38h
4e4f ff        rst     38h
4e50 ff        rst     38h
4e51 ff        rst     38h
4e52 ff        rst     38h
4e53 ff        rst     38h
4e54 ff        rst     38h
4e55 ff        rst     38h
4e56 ff        rst     38h
4e57 ff        rst     38h
4e58 ff        rst     38h
4e59 ff        rst     38h
4e5a ff        rst     38h
4e5b ff        rst     38h
4e5c ff        rst     38h
4e5d ff        rst     38h
4e5e ff        rst     38h
4e5f ff        rst     38h
4e60 ff        rst     38h
4e61 ff        rst     38h
4e62 ff        rst     38h
4e63 ff        rst     38h
4e64 ff        rst     38h
4e65 ff        rst     38h
4e66 ff        rst     38h
4e67 ff        rst     38h
4e68 ff        rst     38h
4e69 ff        rst     38h
4e6a ff        rst     38h
4e6b ff        rst     38h
4e6c ff        rst     38h
4e6d ff        rst     38h
4e6e ff        rst     38h
4e6f ff        rst     38h
4e70 ff        rst     38h
4e71 ff        rst     38h
4e72 ff        rst     38h
4e73 ff        rst     38h
4e74 ff        rst     38h
4e75 ff        rst     38h
4e76 ff        rst     38h
4e77 ff        rst     38h
4e78 ff        rst     38h
4e79 ff        rst     38h
4e7a ff        rst     38h
4e7b ff        rst     38h
4e7c ff        rst     38h
4e7d ff        rst     38h
4e7e ff        rst     38h
4e7f ff        rst     38h
4e80 ff        rst     38h
4e81 ff        rst     38h
4e82 ff        rst     38h
4e83 ff        rst     38h
4e84 ff        rst     38h
4e85 ff        rst     38h
4e86 ff        rst     38h
4e87 ff        rst     38h
4e88 ff        rst     38h
4e89 ff        rst     38h
4e8a ff        rst     38h
4e8b ff        rst     38h
4e8c ff        rst     38h
4e8d ff        rst     38h
4e8e ff        rst     38h
4e8f ff        rst     38h
4e90 ff        rst     38h
4e91 ff        rst     38h
4e92 ff        rst     38h
4e93 ff        rst     38h
4e94 ff        rst     38h
4e95 ff        rst     38h
4e96 ff        rst     38h
4e97 ff        rst     38h
4e98 ff        rst     38h
4e99 ff        rst     38h
4e9a ff        rst     38h
4e9b ff        rst     38h
4e9c ff        rst     38h
4e9d ff        rst     38h
4e9e ff        rst     38h
4e9f ff        rst     38h
4ea0 ff        rst     38h
4ea1 ff        rst     38h
4ea2 ff        rst     38h
4ea3 ff        rst     38h
4ea4 ff        rst     38h
4ea5 ff        rst     38h
4ea6 ff        rst     38h
4ea7 ff        rst     38h
4ea8 ff        rst     38h
4ea9 ff        rst     38h
4eaa ff        rst     38h
4eab ff        rst     38h
4eac ff        rst     38h
4ead ff        rst     38h
4eae ff        rst     38h
4eaf ff        rst     38h
4eb0 ff        rst     38h
4eb1 ff        rst     38h
4eb2 ff        rst     38h
4eb3 ff        rst     38h
4eb4 ff        rst     38h
4eb5 ff        rst     38h
4eb6 ff        rst     38h
4eb7 ff        rst     38h
4eb8 ff        rst     38h
4eb9 ff        rst     38h
4eba ff        rst     38h
4ebb ff        rst     38h
4ebc ff        rst     38h
4ebd ff        rst     38h
4ebe ff        rst     38h
4ebf ff        rst     38h
4ec0 ff        rst     38h
4ec1 ff        rst     38h
4ec2 ff        rst     38h
4ec3 ff        rst     38h
4ec4 ff        rst     38h
4ec5 ff        rst     38h
4ec6 ff        rst     38h
4ec7 ff        rst     38h
4ec8 ff        rst     38h
4ec9 ff        rst     38h
4eca ff        rst     38h
4ecb ff        rst     38h
4ecc ff        rst     38h
4ecd ff        rst     38h
4ece ff        rst     38h
4ecf ff        rst     38h
4ed0 ff        rst     38h
4ed1 ff        rst     38h
4ed2 ff        rst     38h
4ed3 ff        rst     38h
4ed4 ff        rst     38h
4ed5 ff        rst     38h
4ed6 ff        rst     38h
4ed7 ff        rst     38h
4ed8 ff        rst     38h
4ed9 ff        rst     38h
4eda ff        rst     38h
4edb ff        rst     38h
4edc ff        rst     38h
4edd ff        rst     38h
4ede ff        rst     38h
4edf ff        rst     38h
4ee0 ff        rst     38h
4ee1 ff        rst     38h
4ee2 ff        rst     38h
4ee3 ff        rst     38h
4ee4 ff        rst     38h
4ee5 ff        rst     38h
4ee6 ff        rst     38h
4ee7 ff        rst     38h
4ee8 ff        rst     38h
4ee9 ff        rst     38h
4eea ff        rst     38h
4eeb ff        rst     38h
4eec ff        rst     38h
4eed ff        rst     38h
4eee ff        rst     38h
4eef ff        rst     38h
4ef0 ff        rst     38h
4ef1 ff        rst     38h
4ef2 ff        rst     38h
4ef3 ff        rst     38h
4ef4 ff        rst     38h
4ef5 ff        rst     38h
4ef6 ff        rst     38h
4ef7 ff        rst     38h
4ef8 ff        rst     38h
4ef9 ff        rst     38h
4efa ff        rst     38h
4efb ff        rst     38h
4efc ff        rst     38h
4efd ff        rst     38h
4efe ff        rst     38h
4eff ff        rst     38h
4f00 ff        rst     38h
4f01 ff        rst     38h
4f02 ff        rst     38h
4f03 ff        rst     38h
4f04 ff        rst     38h
4f05 ff        rst     38h
4f06 ff        rst     38h
4f07 ff        rst     38h
4f08 ff        rst     38h
4f09 ff        rst     38h
4f0a ff        rst     38h
4f0b ff        rst     38h
4f0c ff        rst     38h
4f0d ff        rst     38h
4f0e ff        rst     38h
4f0f ff        rst     38h
4f10 ff        rst     38h
4f11 ff        rst     38h
4f12 ff        rst     38h
4f13 ff        rst     38h
4f14 ff        rst     38h
4f15 ff        rst     38h
4f16 ff        rst     38h
4f17 ff        rst     38h
4f18 ff        rst     38h
4f19 ff        rst     38h
4f1a ff        rst     38h
4f1b ff        rst     38h
4f1c ff        rst     38h
4f1d ff        rst     38h
4f1e ff        rst     38h
4f1f ff        rst     38h
4f20 ff        rst     38h
4f21 ff        rst     38h
4f22 ff        rst     38h
4f23 ff        rst     38h
4f24 ff        rst     38h
4f25 ff        rst     38h
4f26 ff        rst     38h
4f27 ff        rst     38h
4f28 ff        rst     38h
4f29 ff        rst     38h
4f2a ff        rst     38h
4f2b ff        rst     38h
4f2c ff        rst     38h
4f2d ff        rst     38h
4f2e ff        rst     38h
4f2f ff        rst     38h
4f30 ff        rst     38h
4f31 ff        rst     38h
4f32 ff        rst     38h
4f33 ff        rst     38h
4f34 ff        rst     38h
4f35 ff        rst     38h
4f36 ff        rst     38h
4f37 ff        rst     38h
4f38 ff        rst     38h
4f39 ff        rst     38h
4f3a ff        rst     38h
4f3b ff        rst     38h
4f3c ff        rst     38h
4f3d ff        rst     38h
4f3e ff        rst     38h
4f3f ff        rst     38h
4f40 ff        rst     38h
4f41 ff        rst     38h
4f42 ff        rst     38h
4f43 ff        rst     38h
4f44 ff        rst     38h
4f45 ff        rst     38h
4f46 ff        rst     38h
4f47 ff        rst     38h
4f48 ff        rst     38h
4f49 ff        rst     38h
4f4a ff        rst     38h
4f4b ff        rst     38h
4f4c ff        rst     38h
4f4d ff        rst     38h
4f4e ff        rst     38h
4f4f ff        rst     38h
4f50 ff        rst     38h
4f51 ff        rst     38h
4f52 ff        rst     38h
4f53 ff        rst     38h
4f54 ff        rst     38h
4f55 ff        rst     38h
4f56 ff        rst     38h
4f57 ff        rst     38h
4f58 ff        rst     38h
4f59 ff        rst     38h
4f5a ff        rst     38h
4f5b ff        rst     38h
4f5c ff        rst     38h
4f5d ff        rst     38h
4f5e ff        rst     38h
4f5f ff        rst     38h
4f60 ff        rst     38h
4f61 ff        rst     38h
4f62 ff        rst     38h
4f63 ff        rst     38h
4f64 ff        rst     38h
4f65 ff        rst     38h
4f66 ff        rst     38h
4f67 ff        rst     38h
4f68 ff        rst     38h
4f69 ff        rst     38h
4f6a ff        rst     38h
4f6b ff        rst     38h
4f6c ff        rst     38h
4f6d ff        rst     38h
4f6e ff        rst     38h
4f6f ff        rst     38h
4f70 ff        rst     38h
4f71 ff        rst     38h
4f72 ff        rst     38h
4f73 ff        rst     38h
4f74 ff        rst     38h
4f75 ff        rst     38h
4f76 ff        rst     38h
4f77 ff        rst     38h
4f78 ff        rst     38h
4f79 ff        rst     38h
4f7a ff        rst     38h
4f7b ff        rst     38h
4f7c ff        rst     38h
4f7d ff        rst     38h
4f7e ff        rst     38h
4f7f ff        rst     38h
4f80 ff        rst     38h
4f81 ff        rst     38h
4f82 ff        rst     38h
4f83 ff        rst     38h
4f84 ff        rst     38h
4f85 ff        rst     38h
4f86 ff        rst     38h
4f87 ff        rst     38h
4f88 ff        rst     38h
4f89 ff        rst     38h
4f8a ff        rst     38h
4f8b ff        rst     38h
4f8c ff        rst     38h
4f8d ff        rst     38h
4f8e ff        rst     38h
4f8f ff        rst     38h
4f90 ff        rst     38h
4f91 ff        rst     38h
4f92 ff        rst     38h
4f93 ff        rst     38h
4f94 ff        rst     38h
4f95 ff        rst     38h
4f96 ff        rst     38h
4f97 ff        rst     38h
4f98 ff        rst     38h
4f99 ff        rst     38h
4f9a ff        rst     38h
4f9b ff        rst     38h
4f9c ff        rst     38h
4f9d ff        rst     38h
4f9e ff        rst     38h
4f9f ff        rst     38h
4fa0 ff        rst     38h
4fa1 ff        rst     38h
4fa2 ff        rst     38h
4fa3 ff        rst     38h
4fa4 ff        rst     38h
4fa5 ff        rst     38h
4fa6 ff        rst     38h
4fa7 ff        rst     38h
4fa8 ff        rst     38h
4fa9 ff        rst     38h
4faa ff        rst     38h
4fab ff        rst     38h
4fac ff        rst     38h
4fad ff        rst     38h
4fae ff        rst     38h
4faf ff        rst     38h
4fb0 ff        rst     38h
4fb1 ff        rst     38h
4fb2 ff        rst     38h
4fb3 ff        rst     38h
4fb4 ff        rst     38h
4fb5 ff        rst     38h
4fb6 ff        rst     38h
4fb7 ff        rst     38h
4fb8 ff        rst     38h
4fb9 ff        rst     38h
4fba ff        rst     38h
4fbb ff        rst     38h
4fbc ff        rst     38h
4fbd ff        rst     38h
4fbe ff        rst     38h
4fbf ff        rst     38h
4fc0 ff        rst     38h
4fc1 ff        rst     38h
4fc2 ff        rst     38h
4fc3 ff        rst     38h
4fc4 ff        rst     38h
4fc5 ff        rst     38h
4fc6 ff        rst     38h
4fc7 ff        rst     38h
4fc8 ff        rst     38h
4fc9 ff        rst     38h
4fca ff        rst     38h
4fcb ff        rst     38h
4fcc ff        rst     38h
4fcd ff        rst     38h
4fce ff        rst     38h
4fcf ff        rst     38h
4fd0 ff        rst     38h
4fd1 ff        rst     38h
4fd2 ff        rst     38h
4fd3 ff        rst     38h
4fd4 ff        rst     38h
4fd5 ff        rst     38h
4fd6 ff        rst     38h
4fd7 ff        rst     38h
4fd8 ff        rst     38h
4fd9 ff        rst     38h
4fda ff        rst     38h
4fdb ff        rst     38h
4fdc ff        rst     38h
4fdd ff        rst     38h
4fde ff        rst     38h
4fdf ff        rst     38h
4fe0 ff        rst     38h
4fe1 ff        rst     38h
4fe2 ff        rst     38h
4fe3 ff        rst     38h
4fe4 ff        rst     38h
4fe5 ff        rst     38h
4fe6 ff        rst     38h
4fe7 ff        rst     38h
4fe8 ff        rst     38h
4fe9 ff        rst     38h
4fea ff        rst     38h
4feb ff        rst     38h
4fec ff        rst     38h
4fed ff        rst     38h
4fee ff        rst     38h
4fef ff        rst     38h
4ff0 ff        rst     38h
4ff1 ff        rst     38h
4ff2 ff        rst     38h
4ff3 ff        rst     38h
4ff4 ff        rst     38h
4ff5 ff        rst     38h
4ff6 ff        rst     38h
4ff7 ff        rst     38h
4ff8 ff        rst     38h
4ff9 ff        rst     38h
4ffa ff        rst     38h
4ffb ff        rst     38h
4ffc ff        rst     38h
4ffd ff        rst     38h
4ffe ff        rst     38h
4fff ff        rst     38h
5000 ff        rst     38h
5001 ff        rst     38h
5002 ff        rst     38h
5003 ff        rst     38h
5004 ff        rst     38h
5005 ff        rst     38h
5006 ff        rst     38h
5007 ff        rst     38h
5008 ff        rst     38h
5009 ff        rst     38h
500a ff        rst     38h
500b ff        rst     38h
500c ff        rst     38h
500d ff        rst     38h
500e ff        rst     38h
500f ff        rst     38h
5010 ff        rst     38h
5011 ff        rst     38h
5012 ff        rst     38h
5013 ff        rst     38h
5014 ff        rst     38h
5015 ff        rst     38h
5016 ff        rst     38h
5017 ff        rst     38h
5018 ff        rst     38h
5019 ff        rst     38h
501a ff        rst     38h
501b ff        rst     38h
501c ff        rst     38h
501d ff        rst     38h
501e ff        rst     38h
501f ff        rst     38h
5020 ff        rst     38h
5021 ff        rst     38h
5022 ff        rst     38h
5023 ff        rst     38h
5024 ff        rst     38h
5025 ff        rst     38h
5026 ff        rst     38h
5027 ff        rst     38h
5028 ff        rst     38h
5029 ff        rst     38h
502a ff        rst     38h
502b ff        rst     38h
502c ff        rst     38h
502d ff        rst     38h
502e ff        rst     38h
502f ff        rst     38h
5030 ff        rst     38h
5031 ff        rst     38h
5032 ff        rst     38h
5033 ff        rst     38h
5034 ff        rst     38h
5035 ff        rst     38h
5036 ff        rst     38h
5037 ff        rst     38h
5038 ff        rst     38h
5039 ff        rst     38h
503a ff        rst     38h
503b ff        rst     38h
503c ff        rst     38h
503d ff        rst     38h
503e ff        rst     38h
503f ff        rst     38h
5040 ff        rst     38h
5041 ff        rst     38h
5042 ff        rst     38h
5043 ff        rst     38h
5044 ff        rst     38h
5045 ff        rst     38h
5046 ff        rst     38h
5047 ff        rst     38h
5048 ff        rst     38h
5049 ff        rst     38h
504a ff        rst     38h
504b ff        rst     38h
504c ff        rst     38h
504d ff        rst     38h
504e ff        rst     38h
504f ff        rst     38h
5050 ff        rst     38h
5051 ff        rst     38h
5052 ff        rst     38h
5053 ff        rst     38h
5054 ff        rst     38h
5055 ff        rst     38h
5056 ff        rst     38h
5057 ff        rst     38h
5058 ff        rst     38h
5059 ff        rst     38h
505a ff        rst     38h
505b ff        rst     38h
505c ff        rst     38h
505d ff        rst     38h
505e ff        rst     38h
505f ff        rst     38h
5060 ff        rst     38h
5061 ff        rst     38h
5062 ff        rst     38h
5063 ff        rst     38h
5064 ff        rst     38h
5065 ff        rst     38h
5066 ff        rst     38h
5067 ff        rst     38h
5068 ff        rst     38h
5069 ff        rst     38h
506a ff        rst     38h
506b ff        rst     38h
506c ff        rst     38h
506d ff        rst     38h
506e ff        rst     38h
506f ff        rst     38h
5070 ff        rst     38h
5071 ff        rst     38h
5072 ff        rst     38h
5073 ff        rst     38h
5074 ff        rst     38h
5075 ff        rst     38h
5076 ff        rst     38h
5077 ff        rst     38h
5078 ff        rst     38h
5079 ff        rst     38h
507a ff        rst     38h
507b ff        rst     38h
507c ff        rst     38h
507d ff        rst     38h
507e ff        rst     38h
507f ff        rst     38h
5080 ff        rst     38h
5081 ff        rst     38h
5082 ff        rst     38h
5083 ff        rst     38h
5084 ff        rst     38h
5085 ff        rst     38h
5086 ff        rst     38h
5087 ff        rst     38h
5088 ff        rst     38h
5089 ff        rst     38h
508a ff        rst     38h
508b ff        rst     38h
508c ff        rst     38h
508d ff        rst     38h
508e ff        rst     38h
508f ff        rst     38h
5090 ff        rst     38h
5091 ff        rst     38h
5092 ff        rst     38h
5093 ff        rst     38h
5094 ff        rst     38h
5095 ff        rst     38h
5096 ff        rst     38h
5097 ff        rst     38h
5098 ff        rst     38h
5099 ff        rst     38h
509a ff        rst     38h
509b ff        rst     38h
509c ff        rst     38h
509d ff        rst     38h
509e ff        rst     38h
509f ff        rst     38h
50a0 ff        rst     38h
50a1 ff        rst     38h
50a2 ff        rst     38h
50a3 ff        rst     38h
50a4 ff        rst     38h
50a5 ff        rst     38h
50a6 ff        rst     38h
50a7 ff        rst     38h
50a8 ff        rst     38h
50a9 ff        rst     38h
50aa ff        rst     38h
50ab ff        rst     38h
50ac ff        rst     38h
50ad ff        rst     38h
50ae ff        rst     38h
50af ff        rst     38h
50b0 ff        rst     38h
50b1 ff        rst     38h
50b2 ff        rst     38h
50b3 ff        rst     38h
50b4 ff        rst     38h
50b5 ff        rst     38h
50b6 ff        rst     38h
50b7 ff        rst     38h
50b8 ff        rst     38h
50b9 ff        rst     38h
50ba ff        rst     38h
50bb ff        rst     38h
50bc ff        rst     38h
50bd ff        rst     38h
50be ff        rst     38h
50bf ff        rst     38h
50c0 ff        rst     38h
50c1 ff        rst     38h
50c2 ff        rst     38h
50c3 ff        rst     38h
50c4 ff        rst     38h
50c5 ff        rst     38h
50c6 ff        rst     38h
50c7 ff        rst     38h
50c8 ff        rst     38h
50c9 ff        rst     38h
50ca ff        rst     38h
50cb ff        rst     38h
50cc ff        rst     38h
50cd ff        rst     38h
50ce ff        rst     38h
50cf ff        rst     38h
50d0 ff        rst     38h
50d1 ff        rst     38h
50d2 ff        rst     38h
50d3 ff        rst     38h
50d4 ff        rst     38h
50d5 ff        rst     38h
50d6 ff        rst     38h
50d7 ff        rst     38h
50d8 ff        rst     38h
50d9 ff        rst     38h
50da ff        rst     38h
50db ff        rst     38h
50dc ff        rst     38h
50dd ff        rst     38h
50de ff        rst     38h
50df ff        rst     38h
50e0 ff        rst     38h
50e1 ff        rst     38h
50e2 ff        rst     38h
50e3 ff        rst     38h
50e4 ff        rst     38h
50e5 ff        rst     38h
50e6 ff        rst     38h
50e7 ff        rst     38h
50e8 ff        rst     38h
50e9 ff        rst     38h
50ea ff        rst     38h
50eb ff        rst     38h
50ec ff        rst     38h
50ed ff        rst     38h
50ee ff        rst     38h
50ef ff        rst     38h
50f0 ff        rst     38h
50f1 ff        rst     38h
50f2 ff        rst     38h
50f3 ff        rst     38h
50f4 ff        rst     38h
50f5 ff        rst     38h
50f6 ff        rst     38h
50f7 ff        rst     38h
50f8 ff        rst     38h
50f9 ff        rst     38h
50fa ff        rst     38h
50fb ff        rst     38h
50fc ff        rst     38h
50fd ff        rst     38h
50fe ff        rst     38h
50ff ff        rst     38h
5100 ff        rst     38h
5101 ff        rst     38h
5102 ff        rst     38h
5103 ff        rst     38h
5104 ff        rst     38h
5105 ff        rst     38h
5106 ff        rst     38h
5107 ff        rst     38h
5108 ff        rst     38h
5109 ff        rst     38h
510a ff        rst     38h
510b ff        rst     38h
510c ff        rst     38h
510d ff        rst     38h
510e ff        rst     38h
510f ff        rst     38h
5110 ff        rst     38h
5111 ff        rst     38h
5112 ff        rst     38h
5113 ff        rst     38h
5114 ff        rst     38h
5115 ff        rst     38h
5116 ff        rst     38h
5117 ff        rst     38h
5118 ff        rst     38h
5119 ff        rst     38h
511a ff        rst     38h
511b ff        rst     38h
511c ff        rst     38h
511d ff        rst     38h
511e ff        rst     38h
511f ff        rst     38h
5120 ff        rst     38h
5121 ff        rst     38h
5122 ff        rst     38h
5123 ff        rst     38h
5124 ff        rst     38h
5125 ff        rst     38h
5126 ff        rst     38h
5127 ff        rst     38h
5128 ff        rst     38h
5129 ff        rst     38h
512a ff        rst     38h
512b ff        rst     38h
512c ff        rst     38h
512d ff        rst     38h
512e ff        rst     38h
512f ff        rst     38h
5130 ff        rst     38h
5131 ff        rst     38h
5132 ff        rst     38h
5133 ff        rst     38h
5134 ff        rst     38h
5135 ff        rst     38h
5136 ff        rst     38h
5137 ff        rst     38h
5138 ff        rst     38h
5139 ff        rst     38h
513a ff        rst     38h
513b ff        rst     38h
513c ff        rst     38h
513d ff        rst     38h
513e ff        rst     38h
513f ff        rst     38h
5140 ff        rst     38h
5141 ff        rst     38h
5142 ff        rst     38h
5143 ff        rst     38h
5144 ff        rst     38h
5145 ff        rst     38h
5146 ff        rst     38h
5147 ff        rst     38h
5148 ff        rst     38h
5149 ff        rst     38h
514a ff        rst     38h
514b ff        rst     38h
514c ff        rst     38h
514d ff        rst     38h
514e ff        rst     38h
514f ff        rst     38h
5150 ff        rst     38h
5151 ff        rst     38h
5152 ff        rst     38h
5153 ff        rst     38h
5154 ff        rst     38h
5155 ff        rst     38h
5156 ff        rst     38h
5157 ff        rst     38h
5158 ff        rst     38h
5159 ff        rst     38h
515a ff        rst     38h
515b ff        rst     38h
515c ff        rst     38h
515d ff        rst     38h
515e ff        rst     38h
515f ff        rst     38h
5160 ff        rst     38h
5161 ff        rst     38h
5162 ff        rst     38h
5163 ff        rst     38h
5164 ff        rst     38h
5165 ff        rst     38h
5166 ff        rst     38h
5167 ff        rst     38h
5168 ff        rst     38h
5169 ff        rst     38h
516a ff        rst     38h
516b ff        rst     38h
516c ff        rst     38h
516d ff        rst     38h
516e ff        rst     38h
516f ff        rst     38h
5170 ff        rst     38h
5171 ff        rst     38h
5172 ff        rst     38h
5173 ff        rst     38h
5174 ff        rst     38h
5175 ff        rst     38h
5176 ff        rst     38h
5177 ff        rst     38h
5178 ff        rst     38h
5179 ff        rst     38h
517a ff        rst     38h
517b ff        rst     38h
517c ff        rst     38h
517d ff        rst     38h
517e ff        rst     38h
517f ff        rst     38h
5180 ff        rst     38h
5181 ff        rst     38h
5182 ff        rst     38h
5183 ff        rst     38h
5184 ff        rst     38h
5185 ff        rst     38h
5186 ff        rst     38h
5187 ff        rst     38h
5188 ff        rst     38h
5189 ff        rst     38h
518a ff        rst     38h
518b ff        rst     38h
518c ff        rst     38h
518d ff        rst     38h
518e ff        rst     38h
518f ff        rst     38h
5190 ff        rst     38h
5191 ff        rst     38h
5192 ff        rst     38h
5193 ff        rst     38h
5194 ff        rst     38h
5195 ff        rst     38h
5196 ff        rst     38h
5197 ff        rst     38h
5198 ff        rst     38h
5199 ff        rst     38h
519a ff        rst     38h
519b ff        rst     38h
519c ff        rst     38h
519d ff        rst     38h
519e ff        rst     38h
519f ff        rst     38h
51a0 ff        rst     38h
51a1 ff        rst     38h
51a2 ff        rst     38h
51a3 ff        rst     38h
51a4 ff        rst     38h
51a5 ff        rst     38h
51a6 ff        rst     38h
51a7 ff        rst     38h
51a8 ff        rst     38h
51a9 ff        rst     38h
51aa ff        rst     38h
51ab ff        rst     38h
51ac ff        rst     38h
51ad ff        rst     38h
51ae ff        rst     38h
51af ff        rst     38h
51b0 ff        rst     38h
51b1 ff        rst     38h
51b2 ff        rst     38h
51b3 ff        rst     38h
51b4 ff        rst     38h
51b5 ff        rst     38h
51b6 ff        rst     38h
51b7 ff        rst     38h
51b8 ff        rst     38h
51b9 ff        rst     38h
51ba ff        rst     38h
51bb ff        rst     38h
51bc ff        rst     38h
51bd ff        rst     38h
51be ff        rst     38h
51bf ff        rst     38h
51c0 ff        rst     38h
51c1 ff        rst     38h
51c2 ff        rst     38h
51c3 ff        rst     38h
51c4 ff        rst     38h
51c5 ff        rst     38h
51c6 ff        rst     38h
51c7 ff        rst     38h
51c8 ff        rst     38h
51c9 ff        rst     38h
51ca ff        rst     38h
51cb ff        rst     38h
51cc ff        rst     38h
51cd ff        rst     38h
51ce ff        rst     38h
51cf ff        rst     38h
51d0 ff        rst     38h
51d1 ff        rst     38h
51d2 ff        rst     38h
51d3 ff        rst     38h
51d4 ff        rst     38h
51d5 ff        rst     38h
51d6 ff        rst     38h
51d7 ff        rst     38h
51d8 ff        rst     38h
51d9 ff        rst     38h
51da ff        rst     38h
51db ff        rst     38h
51dc ff        rst     38h
51dd ff        rst     38h
51de ff        rst     38h
51df ff        rst     38h
51e0 ff        rst     38h
51e1 ff        rst     38h
51e2 ff        rst     38h
51e3 ff        rst     38h
51e4 ff        rst     38h
51e5 ff        rst     38h
51e6 ff        rst     38h
51e7 ff        rst     38h
51e8 ff        rst     38h
51e9 ff        rst     38h
51ea ff        rst     38h
51eb ff        rst     38h
51ec ff        rst     38h
51ed ff        rst     38h
51ee ff        rst     38h
51ef ff        rst     38h
51f0 ff        rst     38h
51f1 ff        rst     38h
51f2 ff        rst     38h
51f3 ff        rst     38h
51f4 ff        rst     38h
51f5 ff        rst     38h
51f6 ff        rst     38h
51f7 ff        rst     38h
51f8 ff        rst     38h
51f9 ff        rst     38h
51fa ff        rst     38h
51fb ff        rst     38h
51fc ff        rst     38h
51fd ff        rst     38h
51fe ff        rst     38h
51ff ff        rst     38h
5200 ff        rst     38h
5201 ff        rst     38h
5202 ff        rst     38h
5203 ff        rst     38h
5204 ff        rst     38h
5205 ff        rst     38h
5206 ff        rst     38h
5207 ff        rst     38h
5208 ff        rst     38h
5209 ff        rst     38h
520a ff        rst     38h
520b ff        rst     38h
520c ff        rst     38h
520d ff        rst     38h
520e ff        rst     38h
520f ff        rst     38h
5210 ff        rst     38h
5211 ff        rst     38h
5212 ff        rst     38h
5213 ff        rst     38h
5214 ff        rst     38h
5215 ff        rst     38h
5216 ff        rst     38h
5217 ff        rst     38h
5218 ff        rst     38h
5219 ff        rst     38h
521a ff        rst     38h
521b ff        rst     38h
521c ff        rst     38h
521d ff        rst     38h
521e ff        rst     38h
521f ff        rst     38h
5220 ff        rst     38h
5221 ff        rst     38h
5222 ff        rst     38h
5223 ff        rst     38h
5224 ff        rst     38h
5225 ff        rst     38h
5226 ff        rst     38h
5227 ff        rst     38h
5228 ff        rst     38h
5229 ff        rst     38h
522a ff        rst     38h
522b ff        rst     38h
522c ff        rst     38h
522d ff        rst     38h
522e ff        rst     38h
522f ff        rst     38h
5230 ff        rst     38h
5231 ff        rst     38h
5232 ff        rst     38h
5233 ff        rst     38h
5234 ff        rst     38h
5235 ff        rst     38h
5236 ff        rst     38h
5237 ff        rst     38h
5238 ff        rst     38h
5239 ff        rst     38h
523a ff        rst     38h
523b ff        rst     38h
523c ff        rst     38h
523d ff        rst     38h
523e ff        rst     38h
523f ff        rst     38h
5240 ff        rst     38h
5241 ff        rst     38h
5242 ff        rst     38h
5243 ff        rst     38h
5244 ff        rst     38h
5245 ff        rst     38h
5246 ff        rst     38h
5247 ff        rst     38h
5248 ff        rst     38h
5249 ff        rst     38h
524a ff        rst     38h
524b ff        rst     38h
524c ff        rst     38h
524d ff        rst     38h
524e ff        rst     38h
524f ff        rst     38h
5250 ff        rst     38h
5251 ff        rst     38h
5252 ff        rst     38h
5253 ff        rst     38h
5254 ff        rst     38h
5255 ff        rst     38h
5256 ff        rst     38h
5257 ff        rst     38h
5258 ff        rst     38h
5259 ff        rst     38h
525a ff        rst     38h
525b ff        rst     38h
525c ff        rst     38h
525d ff        rst     38h
525e ff        rst     38h
525f ff        rst     38h
5260 ff        rst     38h
5261 ff        rst     38h
5262 ff        rst     38h
5263 ff        rst     38h
5264 ff        rst     38h
5265 ff        rst     38h
5266 ff        rst     38h
5267 ff        rst     38h
5268 ff        rst     38h
5269 ff        rst     38h
526a ff        rst     38h
526b ff        rst     38h
526c ff        rst     38h
526d ff        rst     38h
526e ff        rst     38h
526f ff        rst     38h
5270 ff        rst     38h
5271 ff        rst     38h
5272 ff        rst     38h
5273 ff        rst     38h
5274 ff        rst     38h
5275 ff        rst     38h
5276 ff        rst     38h
5277 ff        rst     38h
5278 ff        rst     38h
5279 ff        rst     38h
527a ff        rst     38h
527b ff        rst     38h
527c ff        rst     38h
527d ff        rst     38h
527e ff        rst     38h
527f ff        rst     38h
5280 ff        rst     38h
5281 ff        rst     38h
5282 ff        rst     38h
5283 ff        rst     38h
5284 ff        rst     38h
5285 ff        rst     38h
5286 ff        rst     38h
5287 ff        rst     38h
5288 ff        rst     38h
5289 ff        rst     38h
528a ff        rst     38h
528b ff        rst     38h
528c ff        rst     38h
528d ff        rst     38h
528e ff        rst     38h
528f ff        rst     38h
5290 ff        rst     38h
5291 ff        rst     38h
5292 ff        rst     38h
5293 ff        rst     38h
5294 ff        rst     38h
5295 ff        rst     38h
5296 ff        rst     38h
5297 ff        rst     38h
5298 ff        rst     38h
5299 ff        rst     38h
529a ff        rst     38h
529b ff        rst     38h
529c ff        rst     38h
529d ff        rst     38h
529e ff        rst     38h
529f ff        rst     38h
52a0 ff        rst     38h
52a1 ff        rst     38h
52a2 ff        rst     38h
52a3 ff        rst     38h
52a4 ff        rst     38h
52a5 ff        rst     38h
52a6 ff        rst     38h
52a7 ff        rst     38h
52a8 ff        rst     38h
52a9 ff        rst     38h
52aa ff        rst     38h
52ab ff        rst     38h
52ac ff        rst     38h
52ad ff        rst     38h
52ae ff        rst     38h
52af ff        rst     38h
52b0 ff        rst     38h
52b1 ff        rst     38h
52b2 ff        rst     38h
52b3 ff        rst     38h
52b4 ff        rst     38h
52b5 ff        rst     38h
52b6 ff        rst     38h
52b7 ff        rst     38h
52b8 ff        rst     38h
52b9 ff        rst     38h
52ba ff        rst     38h
52bb ff        rst     38h
52bc ff        rst     38h
52bd ff        rst     38h
52be ff        rst     38h
52bf ff        rst     38h
52c0 ff        rst     38h
52c1 ff        rst     38h
52c2 ff        rst     38h
52c3 ff        rst     38h
52c4 ff        rst     38h
52c5 ff        rst     38h
52c6 ff        rst     38h
52c7 ff        rst     38h
52c8 ff        rst     38h
52c9 ff        rst     38h
52ca ff        rst     38h
52cb ff        rst     38h
52cc ff        rst     38h
52cd ff        rst     38h
52ce ff        rst     38h
52cf ff        rst     38h
52d0 ff        rst     38h
52d1 ff        rst     38h
52d2 ff        rst     38h
52d3 ff        rst     38h
52d4 ff        rst     38h
52d5 ff        rst     38h
52d6 ff        rst     38h
52d7 ff        rst     38h
52d8 ff        rst     38h
52d9 ff        rst     38h
52da ff        rst     38h
52db ff        rst     38h
52dc ff        rst     38h
52dd ff        rst     38h
52de ff        rst     38h
52df ff        rst     38h
52e0 ff        rst     38h
52e1 ff        rst     38h
52e2 ff        rst     38h
52e3 ff        rst     38h
52e4 ff        rst     38h
52e5 ff        rst     38h
52e6 ff        rst     38h
52e7 ff        rst     38h
52e8 ff        rst     38h
52e9 ff        rst     38h
52ea ff        rst     38h
52eb ff        rst     38h
52ec ff        rst     38h
52ed ff        rst     38h
52ee ff        rst     38h
52ef ff        rst     38h
52f0 ff        rst     38h
52f1 ff        rst     38h
52f2 ff        rst     38h
52f3 ff        rst     38h
52f4 ff        rst     38h
52f5 ff        rst     38h
52f6 ff        rst     38h
52f7 ff        rst     38h
52f8 ff        rst     38h
52f9 ff        rst     38h
52fa ff        rst     38h
52fb ff        rst     38h
52fc ff        rst     38h
52fd ff        rst     38h
52fe ff        rst     38h
52ff ff        rst     38h
5300 ff        rst     38h
5301 ff        rst     38h
5302 ff        rst     38h
5303 ff        rst     38h
5304 ff        rst     38h
5305 ff        rst     38h
5306 ff        rst     38h
5307 ff        rst     38h
5308 ff        rst     38h
5309 ff        rst     38h
530a ff        rst     38h
530b ff        rst     38h
530c ff        rst     38h
530d ff        rst     38h
530e ff        rst     38h
530f ff        rst     38h
5310 ff        rst     38h
5311 ff        rst     38h
5312 ff        rst     38h
5313 ff        rst     38h
5314 ff        rst     38h
5315 ff        rst     38h
5316 ff        rst     38h
5317 ff        rst     38h
5318 ff        rst     38h
5319 ff        rst     38h
531a ff        rst     38h
531b ff        rst     38h
531c ff        rst     38h
531d ff        rst     38h
531e ff        rst     38h
531f ff        rst     38h
5320 ff        rst     38h
5321 ff        rst     38h
5322 ff        rst     38h
5323 ff        rst     38h
5324 ff        rst     38h
5325 ff        rst     38h
5326 ff        rst     38h
5327 ff        rst     38h
5328 ff        rst     38h
5329 ff        rst     38h
532a ff        rst     38h
532b ff        rst     38h
532c ff        rst     38h
532d ff        rst     38h
532e ff        rst     38h
532f ff        rst     38h
5330 ff        rst     38h
5331 ff        rst     38h
5332 ff        rst     38h
5333 ff        rst     38h
5334 ff        rst     38h
5335 ff        rst     38h
5336 ff        rst     38h
5337 ff        rst     38h
5338 ff        rst     38h
5339 ff        rst     38h
533a ff        rst     38h
533b ff        rst     38h
533c ff        rst     38h
533d ff        rst     38h
533e ff        rst     38h
533f ff        rst     38h
5340 ff        rst     38h
5341 ff        rst     38h
5342 ff        rst     38h
5343 ff        rst     38h
5344 ff        rst     38h
5345 ff        rst     38h
5346 ff        rst     38h
5347 ff        rst     38h
5348 ff        rst     38h
5349 ff        rst     38h
534a ff        rst     38h
534b ff        rst     38h
534c ff        rst     38h
534d ff        rst     38h
534e ff        rst     38h
534f ff        rst     38h
5350 ff        rst     38h
5351 ff        rst     38h
5352 ff        rst     38h
5353 ff        rst     38h
5354 ff        rst     38h
5355 ff        rst     38h
5356 ff        rst     38h
5357 ff        rst     38h
5358 ff        rst     38h
5359 ff        rst     38h
535a ff        rst     38h
535b ff        rst     38h
535c ff        rst     38h
535d ff        rst     38h
535e ff        rst     38h
535f ff        rst     38h
5360 ff        rst     38h
5361 ff        rst     38h
5362 ff        rst     38h
5363 ff        rst     38h
5364 ff        rst     38h
5365 ff        rst     38h
5366 ff        rst     38h
5367 ff        rst     38h
5368 ff        rst     38h
5369 ff        rst     38h
536a ff        rst     38h
536b ff        rst     38h
536c ff        rst     38h
536d ff        rst     38h
536e ff        rst     38h
536f ff        rst     38h
5370 ff        rst     38h
5371 ff        rst     38h
5372 ff        rst     38h
5373 ff        rst     38h
5374 ff        rst     38h
5375 ff        rst     38h
5376 ff        rst     38h
5377 ff        rst     38h
5378 ff        rst     38h
5379 ff        rst     38h
537a ff        rst     38h
537b ff        rst     38h
537c ff        rst     38h
537d ff        rst     38h
537e ff        rst     38h
537f ff        rst     38h
5380 ff        rst     38h
5381 ff        rst     38h
5382 ff        rst     38h
5383 ff        rst     38h
5384 ff        rst     38h
5385 ff        rst     38h
5386 ff        rst     38h
5387 ff        rst     38h
5388 ff        rst     38h
5389 ff        rst     38h
538a ff        rst     38h
538b ff        rst     38h
538c ff        rst     38h
538d ff        rst     38h
538e ff        rst     38h
538f ff        rst     38h
5390 ff        rst     38h
5391 ff        rst     38h
5392 ff        rst     38h
5393 ff        rst     38h
5394 ff        rst     38h
5395 ff        rst     38h
5396 ff        rst     38h
5397 ff        rst     38h
5398 ff        rst     38h
5399 ff        rst     38h
539a ff        rst     38h
539b ff        rst     38h
539c ff        rst     38h
539d ff        rst     38h
539e ff        rst     38h
539f ff        rst     38h
53a0 ff        rst     38h
53a1 ff        rst     38h
53a2 ff        rst     38h
53a3 ff        rst     38h
53a4 ff        rst     38h
53a5 ff        rst     38h
53a6 ff        rst     38h
53a7 ff        rst     38h
53a8 ff        rst     38h
53a9 ff        rst     38h
53aa ff        rst     38h
53ab ff        rst     38h
53ac ff        rst     38h
53ad ff        rst     38h
53ae ff        rst     38h
53af ff        rst     38h
53b0 ff        rst     38h
53b1 ff        rst     38h
53b2 ff        rst     38h
53b3 ff        rst     38h
53b4 ff        rst     38h
53b5 ff        rst     38h
53b6 ff        rst     38h
53b7 ff        rst     38h
53b8 ff        rst     38h
53b9 ff        rst     38h
53ba ff        rst     38h
53bb ff        rst     38h
53bc ff        rst     38h
53bd ff        rst     38h
53be ff        rst     38h
53bf ff        rst     38h
53c0 ff        rst     38h
53c1 ff        rst     38h
53c2 ff        rst     38h
53c3 ff        rst     38h
53c4 ff        rst     38h
53c5 ff        rst     38h
53c6 ff        rst     38h
53c7 ff        rst     38h
53c8 ff        rst     38h
53c9 ff        rst     38h
53ca ff        rst     38h
53cb ff        rst     38h
53cc ff        rst     38h
53cd ff        rst     38h
53ce ff        rst     38h
53cf ff        rst     38h
53d0 ff        rst     38h
53d1 ff        rst     38h
53d2 ff        rst     38h
53d3 ff        rst     38h
53d4 ff        rst     38h
53d5 ff        rst     38h
53d6 ff        rst     38h
53d7 ff        rst     38h
53d8 ff        rst     38h
53d9 ff        rst     38h
53da ff        rst     38h
53db ff        rst     38h
53dc ff        rst     38h
53dd ff        rst     38h
53de ff        rst     38h
53df ff        rst     38h
53e0 ff        rst     38h
53e1 ff        rst     38h
53e2 ff        rst     38h
53e3 ff        rst     38h
53e4 ff        rst     38h
53e5 ff        rst     38h
53e6 ff        rst     38h
53e7 ff        rst     38h
53e8 ff        rst     38h
53e9 ff        rst     38h
53ea ff        rst     38h
53eb ff        rst     38h
53ec ff        rst     38h
53ed ff        rst     38h
53ee ff        rst     38h
53ef ff        rst     38h
53f0 ff        rst     38h
53f1 ff        rst     38h
53f2 ff        rst     38h
53f3 ff        rst     38h
53f4 ff        rst     38h
53f5 ff        rst     38h
53f6 ff        rst     38h
53f7 ff        rst     38h
53f8 ff        rst     38h
53f9 ff        rst     38h
53fa ff        rst     38h
53fb ff        rst     38h
53fc ff        rst     38h
53fd ff        rst     38h
53fe ff        rst     38h
53ff ff        rst     38h
5400 ff        rst     38h
5401 ff        rst     38h
5402 ff        rst     38h
5403 ff        rst     38h
5404 ff        rst     38h
5405 ff        rst     38h
5406 ff        rst     38h
5407 ff        rst     38h
5408 ff        rst     38h
5409 ff        rst     38h
540a ff        rst     38h
540b ff        rst     38h
540c ff        rst     38h
540d ff        rst     38h
540e ff        rst     38h
540f ff        rst     38h
5410 ff        rst     38h
5411 ff        rst     38h
5412 ff        rst     38h
5413 ff        rst     38h
5414 ff        rst     38h
5415 ff        rst     38h
5416 ff        rst     38h
5417 ff        rst     38h
5418 ff        rst     38h
5419 ff        rst     38h
541a ff        rst     38h
541b ff        rst     38h
541c ff        rst     38h
541d ff        rst     38h
541e ff        rst     38h
541f ff        rst     38h
5420 ff        rst     38h
5421 ff        rst     38h
5422 ff        rst     38h
5423 ff        rst     38h
5424 ff        rst     38h
5425 ff        rst     38h
5426 ff        rst     38h
5427 ff        rst     38h
5428 ff        rst     38h
5429 ff        rst     38h
542a ff        rst     38h
542b ff        rst     38h
542c ff        rst     38h
542d ff        rst     38h
542e ff        rst     38h
542f ff        rst     38h
5430 ff        rst     38h
5431 ff        rst     38h
5432 ff        rst     38h
5433 ff        rst     38h
5434 ff        rst     38h
5435 ff        rst     38h
5436 ff        rst     38h
5437 ff        rst     38h
5438 ff        rst     38h
5439 ff        rst     38h
543a ff        rst     38h
543b ff        rst     38h
543c ff        rst     38h
543d ff        rst     38h
543e ff        rst     38h
543f ff        rst     38h
5440 ff        rst     38h
5441 ff        rst     38h
5442 ff        rst     38h
5443 ff        rst     38h
5444 ff        rst     38h
5445 ff        rst     38h
5446 ff        rst     38h
5447 ff        rst     38h
5448 ff        rst     38h
5449 ff        rst     38h
544a ff        rst     38h
544b ff        rst     38h
544c ff        rst     38h
544d ff        rst     38h
544e ff        rst     38h
544f ff        rst     38h
5450 ff        rst     38h
5451 ff        rst     38h
5452 ff        rst     38h
5453 ff        rst     38h
5454 ff        rst     38h
5455 ff        rst     38h
5456 ff        rst     38h
5457 ff        rst     38h
5458 ff        rst     38h
5459 ff        rst     38h
545a ff        rst     38h
545b ff        rst     38h
545c ff        rst     38h
545d ff        rst     38h
545e ff        rst     38h
545f ff        rst     38h
5460 ff        rst     38h
5461 ff        rst     38h
5462 ff        rst     38h
5463 ff        rst     38h
5464 ff        rst     38h
5465 ff        rst     38h
5466 ff        rst     38h
5467 ff        rst     38h
5468 ff        rst     38h
5469 ff        rst     38h
546a ff        rst     38h
546b ff        rst     38h
546c ff        rst     38h
546d ff        rst     38h
546e ff        rst     38h
546f ff        rst     38h
5470 ff        rst     38h
5471 ff        rst     38h
5472 ff        rst     38h
5473 ff        rst     38h
5474 ff        rst     38h
5475 ff        rst     38h
5476 ff        rst     38h
5477 ff        rst     38h
5478 ff        rst     38h
5479 ff        rst     38h
547a ff        rst     38h
547b ff        rst     38h
547c ff        rst     38h
547d ff        rst     38h
547e ff        rst     38h
547f ff        rst     38h
5480 ff        rst     38h
5481 ff        rst     38h
5482 ff        rst     38h
5483 ff        rst     38h
5484 ff        rst     38h
5485 ff        rst     38h
5486 ff        rst     38h
5487 ff        rst     38h
5488 ff        rst     38h
5489 ff        rst     38h
548a ff        rst     38h
548b ff        rst     38h
548c ff        rst     38h
548d ff        rst     38h
548e ff        rst     38h
548f ff        rst     38h
5490 ff        rst     38h
5491 ff        rst     38h
5492 ff        rst     38h
5493 ff        rst     38h
5494 ff        rst     38h
5495 ff        rst     38h
5496 ff        rst     38h
5497 ff        rst     38h
5498 ff        rst     38h
5499 ff        rst     38h
549a ff        rst     38h
549b ff        rst     38h
549c ff        rst     38h
549d ff        rst     38h
549e ff        rst     38h
549f ff        rst     38h
54a0 ff        rst     38h
54a1 ff        rst     38h
54a2 ff        rst     38h
54a3 ff        rst     38h
54a4 ff        rst     38h
54a5 ff        rst     38h
54a6 ff        rst     38h
54a7 ff        rst     38h
54a8 ff        rst     38h
54a9 ff        rst     38h
54aa ff        rst     38h
54ab ff        rst     38h
54ac ff        rst     38h
54ad ff        rst     38h
54ae ff        rst     38h
54af ff        rst     38h
54b0 ff        rst     38h
54b1 ff        rst     38h
54b2 ff        rst     38h
54b3 ff        rst     38h
54b4 ff        rst     38h
54b5 ff        rst     38h
54b6 ff        rst     38h
54b7 ff        rst     38h
54b8 ff        rst     38h
54b9 ff        rst     38h
54ba ff        rst     38h
54bb ff        rst     38h
54bc ff        rst     38h
54bd ff        rst     38h
54be ff        rst     38h
54bf ff        rst     38h
54c0 ff        rst     38h
54c1 ff        rst     38h
54c2 ff        rst     38h
54c3 ff        rst     38h
54c4 ff        rst     38h
54c5 ff        rst     38h
54c6 ff        rst     38h
54c7 ff        rst     38h
54c8 ff        rst     38h
54c9 ff        rst     38h
54ca ff        rst     38h
54cb ff        rst     38h
54cc ff        rst     38h
54cd ff        rst     38h
54ce ff        rst     38h
54cf ff        rst     38h
54d0 ff        rst     38h
54d1 ff        rst     38h
54d2 ff        rst     38h
54d3 ff        rst     38h
54d4 ff        rst     38h
54d5 ff        rst     38h
54d6 ff        rst     38h
54d7 ff        rst     38h
54d8 ff        rst     38h
54d9 ff        rst     38h
54da ff        rst     38h
54db ff        rst     38h
54dc ff        rst     38h
54dd ff        rst     38h
54de ff        rst     38h
54df ff        rst     38h
54e0 ff        rst     38h
54e1 ff        rst     38h
54e2 ff        rst     38h
54e3 ff        rst     38h
54e4 ff        rst     38h
54e5 ff        rst     38h
54e6 ff        rst     38h
54e7 ff        rst     38h
54e8 ff        rst     38h
54e9 ff        rst     38h
54ea ff        rst     38h
54eb ff        rst     38h
54ec ff        rst     38h
54ed ff        rst     38h
54ee ff        rst     38h
54ef ff        rst     38h
54f0 ff        rst     38h
54f1 ff        rst     38h
54f2 ff        rst     38h
54f3 ff        rst     38h
54f4 ff        rst     38h
54f5 ff        rst     38h
54f6 ff        rst     38h
54f7 ff        rst     38h
54f8 ff        rst     38h
54f9 ff        rst     38h
54fa ff        rst     38h
54fb ff        rst     38h
54fc ff        rst     38h
54fd ff        rst     38h
54fe ff        rst     38h
54ff ff        rst     38h
5500 ff        rst     38h
5501 ff        rst     38h
5502 ff        rst     38h
5503 ff        rst     38h
5504 ff        rst     38h
5505 ff        rst     38h
5506 ff        rst     38h
5507 ff        rst     38h
5508 ff        rst     38h
5509 ff        rst     38h
550a ff        rst     38h
550b ff        rst     38h
550c ff        rst     38h
550d ff        rst     38h
550e ff        rst     38h
550f ff        rst     38h
5510 ff        rst     38h
5511 ff        rst     38h
5512 ff        rst     38h
5513 ff        rst     38h
5514 ff        rst     38h
5515 ff        rst     38h
5516 ff        rst     38h
5517 ff        rst     38h
5518 ff        rst     38h
5519 ff        rst     38h
551a ff        rst     38h
551b ff        rst     38h
551c ff        rst     38h
551d ff        rst     38h
551e ff        rst     38h
551f ff        rst     38h
5520 ff        rst     38h
5521 ff        rst     38h
5522 ff        rst     38h
5523 ff        rst     38h
5524 ff        rst     38h
5525 ff        rst     38h
5526 ff        rst     38h
5527 ff        rst     38h
5528 ff        rst     38h
5529 ff        rst     38h
552a ff        rst     38h
552b ff        rst     38h
552c ff        rst     38h
552d ff        rst     38h
552e ff        rst     38h
552f ff        rst     38h
5530 ff        rst     38h
5531 ff        rst     38h
5532 ff        rst     38h
5533 ff        rst     38h
5534 ff        rst     38h
5535 ff        rst     38h
5536 ff        rst     38h
5537 ff        rst     38h
5538 ff        rst     38h
5539 ff        rst     38h
553a ff        rst     38h
553b ff        rst     38h
553c ff        rst     38h
553d ff        rst     38h
553e ff        rst     38h
553f ff        rst     38h
5540 ff        rst     38h
5541 ff        rst     38h
5542 ff        rst     38h
5543 ff        rst     38h
5544 ff        rst     38h
5545 ff        rst     38h
5546 ff        rst     38h
5547 ff        rst     38h
5548 ff        rst     38h
5549 ff        rst     38h
554a ff        rst     38h
554b ff        rst     38h
554c ff        rst     38h
554d ff        rst     38h
554e ff        rst     38h
554f ff        rst     38h
5550 ff        rst     38h
5551 ff        rst     38h
5552 ff        rst     38h
5553 ff        rst     38h
5554 ff        rst     38h
5555 ff        rst     38h
5556 ff        rst     38h
5557 ff        rst     38h
5558 ff        rst     38h
5559 ff        rst     38h
555a ff        rst     38h
555b ff        rst     38h
555c ff        rst     38h
555d ff        rst     38h
555e ff        rst     38h
555f ff        rst     38h
5560 ff        rst     38h
5561 ff        rst     38h
5562 ff        rst     38h
5563 ff        rst     38h
5564 ff        rst     38h
5565 ff        rst     38h
5566 ff        rst     38h
5567 ff        rst     38h
5568 ff        rst     38h
5569 ff        rst     38h
556a ff        rst     38h
556b ff        rst     38h
556c ff        rst     38h
556d ff        rst     38h
556e ff        rst     38h
556f ff        rst     38h
5570 ff        rst     38h
5571 ff        rst     38h
5572 ff        rst     38h
5573 ff        rst     38h
5574 ff        rst     38h
5575 ff        rst     38h
5576 ff        rst     38h
5577 ff        rst     38h
5578 ff        rst     38h
5579 ff        rst     38h
557a ff        rst     38h
557b ff        rst     38h
557c ff        rst     38h
557d ff        rst     38h
557e ff        rst     38h
557f ff        rst     38h
5580 ff        rst     38h
5581 ff        rst     38h
5582 ff        rst     38h
5583 ff        rst     38h
5584 ff        rst     38h
5585 ff        rst     38h
5586 ff        rst     38h
5587 ff        rst     38h
5588 ff        rst     38h
5589 ff        rst     38h
558a ff        rst     38h
558b ff        rst     38h
558c ff        rst     38h
558d ff        rst     38h
558e ff        rst     38h
558f ff        rst     38h
5590 ff        rst     38h
5591 ff        rst     38h
5592 ff        rst     38h
5593 ff        rst     38h
5594 ff        rst     38h
5595 ff        rst     38h
5596 ff        rst     38h
5597 ff        rst     38h
5598 ff        rst     38h
5599 ff        rst     38h
559a ff        rst     38h
559b ff        rst     38h
559c ff        rst     38h
559d ff        rst     38h
559e ff        rst     38h
559f ff        rst     38h
55a0 ff        rst     38h
55a1 ff        rst     38h
55a2 ff        rst     38h
55a3 ff        rst     38h
55a4 ff        rst     38h
55a5 ff        rst     38h
55a6 ff        rst     38h
55a7 ff        rst     38h
55a8 ff        rst     38h
55a9 ff        rst     38h
55aa ff        rst     38h
55ab ff        rst     38h
55ac ff        rst     38h
55ad ff        rst     38h
55ae ff        rst     38h
55af ff        rst     38h
55b0 ff        rst     38h
55b1 ff        rst     38h
55b2 ff        rst     38h
55b3 ff        rst     38h
55b4 ff        rst     38h
55b5 ff        rst     38h
55b6 ff        rst     38h
55b7 ff        rst     38h
55b8 ff        rst     38h
55b9 ff        rst     38h
55ba ff        rst     38h
55bb ff        rst     38h
55bc ff        rst     38h
55bd ff        rst     38h
55be ff        rst     38h
55bf ff        rst     38h
55c0 ff        rst     38h
55c1 ff        rst     38h
55c2 ff        rst     38h
55c3 ff        rst     38h
55c4 ff        rst     38h
55c5 ff        rst     38h
55c6 ff        rst     38h
55c7 ff        rst     38h
55c8 ff        rst     38h
55c9 ff        rst     38h
55ca ff        rst     38h
55cb ff        rst     38h
55cc ff        rst     38h
55cd ff        rst     38h
55ce ff        rst     38h
55cf ff        rst     38h
55d0 ff        rst     38h
55d1 ff        rst     38h
55d2 ff        rst     38h
55d3 ff        rst     38h
55d4 ff        rst     38h
55d5 ff        rst     38h
55d6 ff        rst     38h
55d7 ff        rst     38h
55d8 ff        rst     38h
55d9 ff        rst     38h
55da ff        rst     38h
55db ff        rst     38h
55dc ff        rst     38h
55dd ff        rst     38h
55de ff        rst     38h
55df ff        rst     38h
55e0 ff        rst     38h
55e1 ff        rst     38h
55e2 ff        rst     38h
55e3 ff        rst     38h
55e4 ff        rst     38h
55e5 ff        rst     38h
55e6 ff        rst     38h
55e7 ff        rst     38h
55e8 ff        rst     38h
55e9 ff        rst     38h
55ea ff        rst     38h
55eb ff        rst     38h
55ec ff        rst     38h
55ed ff        rst     38h
55ee ff        rst     38h
55ef ff        rst     38h
55f0 ff        rst     38h
55f1 ff        rst     38h
55f2 ff        rst     38h
55f3 ff        rst     38h
55f4 ff        rst     38h
55f5 ff        rst     38h
55f6 ff        rst     38h
55f7 ff        rst     38h
55f8 ff        rst     38h
55f9 ff        rst     38h
55fa ff        rst     38h
55fb ff        rst     38h
55fc ff        rst     38h
55fd ff        rst     38h
55fe ff        rst     38h
55ff ff        rst     38h
5600 ff        rst     38h
5601 ff        rst     38h
5602 ff        rst     38h
5603 ff        rst     38h
5604 ff        rst     38h
5605 ff        rst     38h
5606 ff        rst     38h
5607 ff        rst     38h
5608 ff        rst     38h
5609 ff        rst     38h
560a ff        rst     38h
560b ff        rst     38h
560c ff        rst     38h
560d ff        rst     38h
560e ff        rst     38h
560f ff        rst     38h
5610 ff        rst     38h
5611 ff        rst     38h
5612 ff        rst     38h
5613 ff        rst     38h
5614 ff        rst     38h
5615 ff        rst     38h
5616 ff        rst     38h
5617 ff        rst     38h
5618 ff        rst     38h
5619 ff        rst     38h
561a ff        rst     38h
561b ff        rst     38h
561c ff        rst     38h
561d ff        rst     38h
561e ff        rst     38h
561f ff        rst     38h
5620 ff        rst     38h
5621 ff        rst     38h
5622 ff        rst     38h
5623 ff        rst     38h
5624 ff        rst     38h
5625 ff        rst     38h
5626 ff        rst     38h
5627 ff        rst     38h
5628 ff        rst     38h
5629 ff        rst     38h
562a ff        rst     38h
562b ff        rst     38h
562c ff        rst     38h
562d ff        rst     38h
562e ff        rst     38h
562f ff        rst     38h
5630 ff        rst     38h
5631 ff        rst     38h
5632 ff        rst     38h
5633 ff        rst     38h
5634 ff        rst     38h
5635 ff        rst     38h
5636 ff        rst     38h
5637 ff        rst     38h
5638 ff        rst     38h
5639 ff        rst     38h
563a ff        rst     38h
563b ff        rst     38h
563c ff        rst     38h
563d ff        rst     38h
563e ff        rst     38h
563f ff        rst     38h
5640 ff        rst     38h
5641 ff        rst     38h
5642 ff        rst     38h
5643 ff        rst     38h
5644 ff        rst     38h
5645 ff        rst     38h
5646 ff        rst     38h
5647 ff        rst     38h
5648 ff        rst     38h
5649 ff        rst     38h
564a ff        rst     38h
564b ff        rst     38h
564c ff        rst     38h
564d ff        rst     38h
564e ff        rst     38h
564f ff        rst     38h
5650 ff        rst     38h
5651 ff        rst     38h
5652 ff        rst     38h
5653 ff        rst     38h
5654 ff        rst     38h
5655 ff        rst     38h
5656 ff        rst     38h
5657 ff        rst     38h
5658 ff        rst     38h
5659 ff        rst     38h
565a ff        rst     38h
565b ff        rst     38h
565c ff        rst     38h
565d ff        rst     38h
565e ff        rst     38h
565f ff        rst     38h
5660 ff        rst     38h
5661 ff        rst     38h
5662 ff        rst     38h
5663 ff        rst     38h
5664 ff        rst     38h
5665 ff        rst     38h
5666 ff        rst     38h
5667 ff        rst     38h
5668 ff        rst     38h
5669 ff        rst     38h
566a ff        rst     38h
566b ff        rst     38h
566c ff        rst     38h
566d ff        rst     38h
566e ff        rst     38h
566f ff        rst     38h
5670 ff        rst     38h
5671 ff        rst     38h
5672 ff        rst     38h
5673 ff        rst     38h
5674 ff        rst     38h
5675 ff        rst     38h
5676 ff        rst     38h
5677 ff        rst     38h
5678 ff        rst     38h
5679 ff        rst     38h
567a ff        rst     38h
567b ff        rst     38h
567c ff        rst     38h
567d ff        rst     38h
567e ff        rst     38h
567f ff        rst     38h
5680 ff        rst     38h
5681 ff        rst     38h
5682 ff        rst     38h
5683 ff        rst     38h
5684 ff        rst     38h
5685 ff        rst     38h
5686 ff        rst     38h
5687 ff        rst     38h
5688 ff        rst     38h
5689 ff        rst     38h
568a ff        rst     38h
568b ff        rst     38h
568c ff        rst     38h
568d ff        rst     38h
568e ff        rst     38h
568f ff        rst     38h
5690 ff        rst     38h
5691 ff        rst     38h
5692 ff        rst     38h
5693 ff        rst     38h
5694 ff        rst     38h
5695 ff        rst     38h
5696 ff        rst     38h
5697 ff        rst     38h
5698 ff        rst     38h
5699 ff        rst     38h
569a ff        rst     38h
569b ff        rst     38h
569c ff        rst     38h
569d ff        rst     38h
569e ff        rst     38h
569f ff        rst     38h
56a0 ff        rst     38h
56a1 ff        rst     38h
56a2 ff        rst     38h
56a3 ff        rst     38h
56a4 ff        rst     38h
56a5 ff        rst     38h
56a6 ff        rst     38h
56a7 ff        rst     38h
56a8 ff        rst     38h
56a9 ff        rst     38h
56aa ff        rst     38h
56ab ff        rst     38h
56ac ff        rst     38h
56ad ff        rst     38h
56ae ff        rst     38h
56af ff        rst     38h
56b0 ff        rst     38h
56b1 ff        rst     38h
56b2 ff        rst     38h
56b3 ff        rst     38h
56b4 ff        rst     38h
56b5 ff        rst     38h
56b6 ff        rst     38h
56b7 ff        rst     38h
56b8 ff        rst     38h
56b9 ff        rst     38h
56ba ff        rst     38h
56bb ff        rst     38h
56bc ff        rst     38h
56bd ff        rst     38h
56be ff        rst     38h
56bf ff        rst     38h
56c0 ff        rst     38h
56c1 ff        rst     38h
56c2 ff        rst     38h
56c3 ff        rst     38h
56c4 ff        rst     38h
56c5 ff        rst     38h
56c6 ff        rst     38h
56c7 ff        rst     38h
56c8 ff        rst     38h
56c9 ff        rst     38h
56ca ff        rst     38h
56cb ff        rst     38h
56cc ff        rst     38h
56cd ff        rst     38h
56ce ff        rst     38h
56cf ff        rst     38h
56d0 ff        rst     38h
56d1 ff        rst     38h
56d2 ff        rst     38h
56d3 ff        rst     38h
56d4 ff        rst     38h
56d5 ff        rst     38h
56d6 ff        rst     38h
56d7 ff        rst     38h
56d8 ff        rst     38h
56d9 ff        rst     38h
56da ff        rst     38h
56db ff        rst     38h
56dc ff        rst     38h
56dd ff        rst     38h
56de ff        rst     38h
56df ff        rst     38h
56e0 ff        rst     38h
56e1 ff        rst     38h
56e2 ff        rst     38h
56e3 ff        rst     38h
56e4 ff        rst     38h
56e5 ff        rst     38h
56e6 ff        rst     38h
56e7 ff        rst     38h
56e8 ff        rst     38h
56e9 ff        rst     38h
56ea ff        rst     38h
56eb ff        rst     38h
56ec ff        rst     38h
56ed ff        rst     38h
56ee ff        rst     38h
56ef ff        rst     38h
56f0 ff        rst     38h
56f1 ff        rst     38h
56f2 ff        rst     38h
56f3 ff        rst     38h
56f4 ff        rst     38h
56f5 ff        rst     38h
56f6 ff        rst     38h
56f7 ff        rst     38h
56f8 ff        rst     38h
56f9 ff        rst     38h
56fa ff        rst     38h
56fb ff        rst     38h
56fc ff        rst     38h
56fd ff        rst     38h
56fe ff        rst     38h
56ff ff        rst     38h
5700 ff        rst     38h
5701 ff        rst     38h
5702 ff        rst     38h
5703 ff        rst     38h
5704 ff        rst     38h
5705 ff        rst     38h
5706 ff        rst     38h
5707 ff        rst     38h
5708 ff        rst     38h
5709 ff        rst     38h
570a ff        rst     38h
570b ff        rst     38h
570c ff        rst     38h
570d ff        rst     38h
570e ff        rst     38h
570f ff        rst     38h
5710 ff        rst     38h
5711 ff        rst     38h
5712 ff        rst     38h
5713 ff        rst     38h
5714 ff        rst     38h
5715 ff        rst     38h
5716 ff        rst     38h
5717 ff        rst     38h
5718 ff        rst     38h
5719 ff        rst     38h
571a ff        rst     38h
571b ff        rst     38h
571c ff        rst     38h
571d ff        rst     38h
571e ff        rst     38h
571f ff        rst     38h
5720 ff        rst     38h
5721 ff        rst     38h
5722 ff        rst     38h
5723 ff        rst     38h
5724 ff        rst     38h
5725 ff        rst     38h
5726 ff        rst     38h
5727 ff        rst     38h
5728 ff        rst     38h
5729 ff        rst     38h
572a ff        rst     38h
572b ff        rst     38h
572c ff        rst     38h
572d ff        rst     38h
572e ff        rst     38h
572f ff        rst     38h
5730 ff        rst     38h
5731 ff        rst     38h
5732 ff        rst     38h
5733 ff        rst     38h
5734 ff        rst     38h
5735 ff        rst     38h
5736 ff        rst     38h
5737 ff        rst     38h
5738 ff        rst     38h
5739 ff        rst     38h
573a ff        rst     38h
573b ff        rst     38h
573c ff        rst     38h
573d ff        rst     38h
573e ff        rst     38h
573f ff        rst     38h
5740 ff        rst     38h
5741 ff        rst     38h
5742 ff        rst     38h
5743 ff        rst     38h
5744 ff        rst     38h
5745 ff        rst     38h
5746 ff        rst     38h
5747 ff        rst     38h
5748 ff        rst     38h
5749 ff        rst     38h
574a ff        rst     38h
574b ff        rst     38h
574c ff        rst     38h
574d ff        rst     38h
574e ff        rst     38h
574f ff        rst     38h
5750 ff        rst     38h
5751 ff        rst     38h
5752 ff        rst     38h
5753 ff        rst     38h
5754 ff        rst     38h
5755 ff        rst     38h
5756 ff        rst     38h
5757 ff        rst     38h
5758 ff        rst     38h
5759 ff        rst     38h
575a ff        rst     38h
575b ff        rst     38h
575c ff        rst     38h
575d ff        rst     38h
575e ff        rst     38h
575f ff        rst     38h
5760 ff        rst     38h
5761 ff        rst     38h
5762 ff        rst     38h
5763 ff        rst     38h
5764 ff        rst     38h
5765 ff        rst     38h
5766 ff        rst     38h
5767 ff        rst     38h
5768 ff        rst     38h
5769 ff        rst     38h
576a ff        rst     38h
576b ff        rst     38h
576c ff        rst     38h
576d ff        rst     38h
576e ff        rst     38h
576f ff        rst     38h
5770 ff        rst     38h
5771 ff        rst     38h
5772 ff        rst     38h
5773 ff        rst     38h
5774 ff        rst     38h
5775 ff        rst     38h
5776 ff        rst     38h
5777 ff        rst     38h
5778 ff        rst     38h
5779 ff        rst     38h
577a ff        rst     38h
577b ff        rst     38h
577c ff        rst     38h
577d ff        rst     38h
577e ff        rst     38h
577f ff        rst     38h
5780 ff        rst     38h
5781 ff        rst     38h
5782 ff        rst     38h
5783 ff        rst     38h
5784 ff        rst     38h
5785 ff        rst     38h
5786 ff        rst     38h
5787 ff        rst     38h
5788 ff        rst     38h
5789 ff        rst     38h
578a ff        rst     38h
578b ff        rst     38h
578c ff        rst     38h
578d ff        rst     38h
578e ff        rst     38h
578f ff        rst     38h
5790 ff        rst     38h
5791 ff        rst     38h
5792 ff        rst     38h
5793 ff        rst     38h
5794 ff        rst     38h
5795 ff        rst     38h
5796 ff        rst     38h
5797 ff        rst     38h
5798 ff        rst     38h
5799 ff        rst     38h
579a ff        rst     38h
579b ff        rst     38h
579c ff        rst     38h
579d ff        rst     38h
579e ff        rst     38h
579f ff        rst     38h
57a0 ff        rst     38h
57a1 ff        rst     38h
57a2 ff        rst     38h
57a3 ff        rst     38h
57a4 ff        rst     38h
57a5 ff        rst     38h
57a6 ff        rst     38h
57a7 ff        rst     38h
57a8 ff        rst     38h
57a9 ff        rst     38h
57aa ff        rst     38h
57ab ff        rst     38h
57ac ff        rst     38h
57ad ff        rst     38h
57ae ff        rst     38h
57af ff        rst     38h
57b0 ff        rst     38h
57b1 ff        rst     38h
57b2 ff        rst     38h
57b3 ff        rst     38h
57b4 ff        rst     38h
57b5 ff        rst     38h
57b6 ff        rst     38h
57b7 ff        rst     38h
57b8 ff        rst     38h
57b9 ff        rst     38h
57ba ff        rst     38h
57bb ff        rst     38h
57bc ff        rst     38h
57bd ff        rst     38h
57be ff        rst     38h
57bf ff        rst     38h
57c0 ff        rst     38h
57c1 ff        rst     38h
57c2 ff        rst     38h
57c3 ff        rst     38h
57c4 ff        rst     38h
57c5 ff        rst     38h
57c6 ff        rst     38h
57c7 ff        rst     38h
57c8 ff        rst     38h
57c9 ff        rst     38h
57ca ff        rst     38h
57cb ff        rst     38h
57cc ff        rst     38h
57cd ff        rst     38h
57ce ff        rst     38h
57cf ff        rst     38h
57d0 ff        rst     38h
57d1 ff        rst     38h
57d2 ff        rst     38h
57d3 ff        rst     38h
57d4 ff        rst     38h
57d5 ff        rst     38h
57d6 ff        rst     38h
57d7 ff        rst     38h
57d8 ff        rst     38h
57d9 ff        rst     38h
57da ff        rst     38h
57db ff        rst     38h
57dc ff        rst     38h
57dd ff        rst     38h
57de ff        rst     38h
57df ff        rst     38h
57e0 ff        rst     38h
57e1 ff        rst     38h
57e2 ff        rst     38h
57e3 ff        rst     38h
57e4 ff        rst     38h
57e5 ff        rst     38h
57e6 ff        rst     38h
57e7 ff        rst     38h
57e8 ff        rst     38h
57e9 ff        rst     38h
57ea ff        rst     38h
57eb ff        rst     38h
57ec ff        rst     38h
57ed ff        rst     38h
57ee ff        rst     38h
57ef ff        rst     38h
57f0 ff        rst     38h
57f1 ff        rst     38h
57f2 ff        rst     38h
57f3 ff        rst     38h
57f4 ff        rst     38h
57f5 ff        rst     38h
57f6 ff        rst     38h
57f7 ff        rst     38h
57f8 ff        rst     38h
57f9 ff        rst     38h
57fa ff        rst     38h
57fb ff        rst     38h
57fc ff        rst     38h
57fd ff        rst     38h
57fe ff        rst     38h
57ff ff        rst     38h
5800 ff        rst     38h
5801 ff        rst     38h
5802 ff        rst     38h
5803 ff        rst     38h
5804 ff        rst     38h
5805 ff        rst     38h
5806 ff        rst     38h
5807 ff        rst     38h
5808 ff        rst     38h
5809 ff        rst     38h
580a ff        rst     38h
580b ff        rst     38h
580c ff        rst     38h
580d ff        rst     38h
580e ff        rst     38h
580f ff        rst     38h
5810 ff        rst     38h
5811 ff        rst     38h
5812 ff        rst     38h
5813 ff        rst     38h
5814 ff        rst     38h
5815 ff        rst     38h
5816 ff        rst     38h
5817 ff        rst     38h
5818 ff        rst     38h
5819 ff        rst     38h
581a ff        rst     38h
581b ff        rst     38h
581c ff        rst     38h
581d ff        rst     38h
581e ff        rst     38h
581f ff        rst     38h
5820 ff        rst     38h
5821 ff        rst     38h
5822 ff        rst     38h
5823 ff        rst     38h
5824 ff        rst     38h
5825 ff        rst     38h
5826 ff        rst     38h
5827 ff        rst     38h
5828 ff        rst     38h
5829 ff        rst     38h
582a ff        rst     38h
582b ff        rst     38h
582c ff        rst     38h
582d ff        rst     38h
582e ff        rst     38h
582f ff        rst     38h
5830 ff        rst     38h
5831 ff        rst     38h
5832 ff        rst     38h
5833 ff        rst     38h
5834 ff        rst     38h
5835 ff        rst     38h
5836 ff        rst     38h
5837 ff        rst     38h
5838 ff        rst     38h
5839 ff        rst     38h
583a ff        rst     38h
583b ff        rst     38h
583c ff        rst     38h
583d ff        rst     38h
583e ff        rst     38h
583f ff        rst     38h
5840 ff        rst     38h
5841 ff        rst     38h
5842 ff        rst     38h
5843 ff        rst     38h
5844 ff        rst     38h
5845 ff        rst     38h
5846 ff        rst     38h
5847 ff        rst     38h
5848 ff        rst     38h
5849 ff        rst     38h
584a ff        rst     38h
584b ff        rst     38h
584c ff        rst     38h
584d ff        rst     38h
584e ff        rst     38h
584f ff        rst     38h
5850 ff        rst     38h
5851 ff        rst     38h
5852 ff        rst     38h
5853 ff        rst     38h
5854 ff        rst     38h
5855 ff        rst     38h
5856 ff        rst     38h
5857 ff        rst     38h
5858 ff        rst     38h
5859 ff        rst     38h
585a ff        rst     38h
585b ff        rst     38h
585c ff        rst     38h
585d ff        rst     38h
585e ff        rst     38h
585f ff        rst     38h
5860 ff        rst     38h
5861 ff        rst     38h
5862 ff        rst     38h
5863 ff        rst     38h
5864 ff        rst     38h
5865 ff        rst     38h
5866 ff        rst     38h
5867 ff        rst     38h
5868 ff        rst     38h
5869 ff        rst     38h
586a ff        rst     38h
586b ff        rst     38h
586c ff        rst     38h
586d ff        rst     38h
586e ff        rst     38h
586f ff        rst     38h
5870 ff        rst     38h
5871 ff        rst     38h
5872 ff        rst     38h
5873 ff        rst     38h
5874 ff        rst     38h
5875 ff        rst     38h
5876 ff        rst     38h
5877 ff        rst     38h
5878 ff        rst     38h
5879 ff        rst     38h
587a ff        rst     38h
587b ff        rst     38h
587c ff        rst     38h
587d ff        rst     38h
587e ff        rst     38h
587f ff        rst     38h
5880 ff        rst     38h
5881 ff        rst     38h
5882 ff        rst     38h
5883 ff        rst     38h
5884 ff        rst     38h
5885 ff        rst     38h
5886 ff        rst     38h
5887 ff        rst     38h
5888 ff        rst     38h
5889 ff        rst     38h
588a ff        rst     38h
588b ff        rst     38h
588c ff        rst     38h
588d ff        rst     38h
588e ff        rst     38h
588f ff        rst     38h
5890 ff        rst     38h
5891 ff        rst     38h
5892 ff        rst     38h
5893 ff        rst     38h
5894 ff        rst     38h
5895 ff        rst     38h
5896 ff        rst     38h
5897 ff        rst     38h
5898 ff        rst     38h
5899 ff        rst     38h
589a ff        rst     38h
589b ff        rst     38h
589c ff        rst     38h
589d ff        rst     38h
589e ff        rst     38h
589f ff        rst     38h
58a0 ff        rst     38h
58a1 ff        rst     38h
58a2 ff        rst     38h
58a3 ff        rst     38h
58a4 ff        rst     38h
58a5 ff        rst     38h
58a6 ff        rst     38h
58a7 ff        rst     38h
58a8 ff        rst     38h
58a9 ff        rst     38h
58aa ff        rst     38h
58ab ff        rst     38h
58ac ff        rst     38h
58ad ff        rst     38h
58ae ff        rst     38h
58af ff        rst     38h
58b0 ff        rst     38h
58b1 ff        rst     38h
58b2 ff        rst     38h
58b3 ff        rst     38h
58b4 ff        rst     38h
58b5 ff        rst     38h
58b6 ff        rst     38h
58b7 ff        rst     38h
58b8 ff        rst     38h
58b9 ff        rst     38h
58ba ff        rst     38h
58bb ff        rst     38h
58bc ff        rst     38h
58bd ff        rst     38h
58be ff        rst     38h
58bf ff        rst     38h
58c0 ff        rst     38h
58c1 ff        rst     38h
58c2 ff        rst     38h
58c3 ff        rst     38h
58c4 ff        rst     38h
58c5 ff        rst     38h
58c6 ff        rst     38h
58c7 ff        rst     38h
58c8 ff        rst     38h
58c9 ff        rst     38h
58ca ff        rst     38h
58cb ff        rst     38h
58cc ff        rst     38h
58cd ff        rst     38h
58ce ff        rst     38h
58cf ff        rst     38h
58d0 ff        rst     38h
58d1 ff        rst     38h
58d2 ff        rst     38h
58d3 ff        rst     38h
58d4 ff        rst     38h
58d5 ff        rst     38h
58d6 ff        rst     38h
58d7 ff        rst     38h
58d8 ff        rst     38h
58d9 ff        rst     38h
58da ff        rst     38h
58db ff        rst     38h
58dc ff        rst     38h
58dd ff        rst     38h
58de ff        rst     38h
58df ff        rst     38h
58e0 ff        rst     38h
58e1 ff        rst     38h
58e2 ff        rst     38h
58e3 ff        rst     38h
58e4 ff        rst     38h
58e5 ff        rst     38h
58e6 ff        rst     38h
58e7 ff        rst     38h
58e8 ff        rst     38h
58e9 ff        rst     38h
58ea ff        rst     38h
58eb ff        rst     38h
58ec ff        rst     38h
58ed ff        rst     38h
58ee ff        rst     38h
58ef ff        rst     38h
58f0 ff        rst     38h
58f1 ff        rst     38h
58f2 ff        rst     38h
58f3 ff        rst     38h
58f4 ff        rst     38h
58f5 ff        rst     38h
58f6 ff        rst     38h
58f7 ff        rst     38h
58f8 ff        rst     38h
58f9 ff        rst     38h
58fa ff        rst     38h
58fb ff        rst     38h
58fc ff        rst     38h
58fd ff        rst     38h
58fe ff        rst     38h
58ff ff        rst     38h
5900 ff        rst     38h
5901 ff        rst     38h
5902 ff        rst     38h
5903 ff        rst     38h
5904 ff        rst     38h
5905 ff        rst     38h
5906 ff        rst     38h
5907 ff        rst     38h
5908 ff        rst     38h
5909 ff        rst     38h
590a ff        rst     38h
590b ff        rst     38h
590c ff        rst     38h
590d ff        rst     38h
590e ff        rst     38h
590f ff        rst     38h
5910 ff        rst     38h
5911 ff        rst     38h
5912 ff        rst     38h
5913 ff        rst     38h
5914 ff        rst     38h
5915 ff        rst     38h
5916 ff        rst     38h
5917 ff        rst     38h
5918 ff        rst     38h
5919 ff        rst     38h
591a ff        rst     38h
591b ff        rst     38h
591c ff        rst     38h
591d ff        rst     38h
591e ff        rst     38h
591f ff        rst     38h
5920 ff        rst     38h
5921 ff        rst     38h
5922 ff        rst     38h
5923 ff        rst     38h
5924 ff        rst     38h
5925 ff        rst     38h
5926 ff        rst     38h
5927 ff        rst     38h
5928 ff        rst     38h
5929 ff        rst     38h
592a ff        rst     38h
592b ff        rst     38h
592c ff        rst     38h
592d ff        rst     38h
592e ff        rst     38h
592f ff        rst     38h
5930 ff        rst     38h
5931 ff        rst     38h
5932 ff        rst     38h
5933 ff        rst     38h
5934 ff        rst     38h
5935 ff        rst     38h
5936 ff        rst     38h
5937 ff        rst     38h
5938 ff        rst     38h
5939 ff        rst     38h
593a ff        rst     38h
593b ff        rst     38h
593c ff        rst     38h
593d ff        rst     38h
593e ff        rst     38h
593f ff        rst     38h
5940 ff        rst     38h
5941 ff        rst     38h
5942 ff        rst     38h
5943 ff        rst     38h
5944 ff        rst     38h
5945 ff        rst     38h
5946 ff        rst     38h
5947 ff        rst     38h
5948 ff        rst     38h
5949 ff        rst     38h
594a ff        rst     38h
594b ff        rst     38h
594c ff        rst     38h
594d ff        rst     38h
594e ff        rst     38h
594f ff        rst     38h
5950 ff        rst     38h
5951 ff        rst     38h
5952 ff        rst     38h
5953 ff        rst     38h
5954 ff        rst     38h
5955 ff        rst     38h
5956 ff        rst     38h
5957 ff        rst     38h
5958 ff        rst     38h
5959 ff        rst     38h
595a ff        rst     38h
595b ff        rst     38h
595c ff        rst     38h
595d ff        rst     38h
595e ff        rst     38h
595f ff        rst     38h
5960 ff        rst     38h
5961 ff        rst     38h
5962 ff        rst     38h
5963 ff        rst     38h
5964 ff        rst     38h
5965 ff        rst     38h
5966 ff        rst     38h
5967 ff        rst     38h
5968 ff        rst     38h
5969 ff        rst     38h
596a ff        rst     38h
596b ff        rst     38h
596c ff        rst     38h
596d ff        rst     38h
596e ff        rst     38h
596f ff        rst     38h
5970 ff        rst     38h
5971 ff        rst     38h
5972 ff        rst     38h
5973 ff        rst     38h
5974 ff        rst     38h
5975 ff        rst     38h
5976 ff        rst     38h
5977 ff        rst     38h
5978 ff        rst     38h
5979 ff        rst     38h
597a ff        rst     38h
597b ff        rst     38h
597c ff        rst     38h
597d ff        rst     38h
597e ff        rst     38h
597f ff        rst     38h
5980 ff        rst     38h
5981 ff        rst     38h
5982 ff        rst     38h
5983 ff        rst     38h
5984 ff        rst     38h
5985 ff        rst     38h
5986 ff        rst     38h
5987 ff        rst     38h
5988 ff        rst     38h
5989 ff        rst     38h
598a ff        rst     38h
598b ff        rst     38h
598c ff        rst     38h
598d ff        rst     38h
598e ff        rst     38h
598f ff        rst     38h
5990 ff        rst     38h
5991 ff        rst     38h
5992 ff        rst     38h
5993 ff        rst     38h
5994 ff        rst     38h
5995 ff        rst     38h
5996 ff        rst     38h
5997 ff        rst     38h
5998 ff        rst     38h
5999 ff        rst     38h
599a ff        rst     38h
599b ff        rst     38h
599c ff        rst     38h
599d ff        rst     38h
599e ff        rst     38h
599f ff        rst     38h
59a0 ff        rst     38h
59a1 ff        rst     38h
59a2 ff        rst     38h
59a3 ff        rst     38h
59a4 ff        rst     38h
59a5 ff        rst     38h
59a6 ff        rst     38h
59a7 ff        rst     38h
59a8 ff        rst     38h
59a9 ff        rst     38h
59aa ff        rst     38h
59ab ff        rst     38h
59ac ff        rst     38h
59ad ff        rst     38h
59ae ff        rst     38h
59af ff        rst     38h
59b0 ff        rst     38h
59b1 ff        rst     38h
59b2 ff        rst     38h
59b3 ff        rst     38h
59b4 ff        rst     38h
59b5 ff        rst     38h
59b6 ff        rst     38h
59b7 ff        rst     38h
59b8 ff        rst     38h
59b9 ff        rst     38h
59ba ff        rst     38h
59bb ff        rst     38h
59bc ff        rst     38h
59bd ff        rst     38h
59be ff        rst     38h
59bf ff        rst     38h
59c0 ff        rst     38h
59c1 ff        rst     38h
59c2 ff        rst     38h
59c3 ff        rst     38h
59c4 ff        rst     38h
59c5 ff        rst     38h
59c6 ff        rst     38h
59c7 ff        rst     38h
59c8 ff        rst     38h
59c9 ff        rst     38h
59ca ff        rst     38h
59cb ff        rst     38h
59cc ff        rst     38h
59cd ff        rst     38h
59ce ff        rst     38h
59cf ff        rst     38h
59d0 ff        rst     38h
59d1 ff        rst     38h
59d2 ff        rst     38h
59d3 ff        rst     38h
59d4 ff        rst     38h
59d5 ff        rst     38h
59d6 ff        rst     38h
59d7 ff        rst     38h
59d8 ff        rst     38h
59d9 ff        rst     38h
59da ff        rst     38h
59db ff        rst     38h
59dc ff        rst     38h
59dd ff        rst     38h
59de ff        rst     38h
59df ff        rst     38h
59e0 ff        rst     38h
59e1 ff        rst     38h
59e2 ff        rst     38h
59e3 ff        rst     38h
59e4 ff        rst     38h
59e5 ff        rst     38h
59e6 ff        rst     38h
59e7 ff        rst     38h
59e8 ff        rst     38h
59e9 ff        rst     38h
59ea ff        rst     38h
59eb ff        rst     38h
59ec ff        rst     38h
59ed ff        rst     38h
59ee ff        rst     38h
59ef ff        rst     38h
59f0 ff        rst     38h
59f1 ff        rst     38h
59f2 ff        rst     38h
59f3 ff        rst     38h
59f4 ff        rst     38h
59f5 ff        rst     38h
59f6 ff        rst     38h
59f7 ff        rst     38h
59f8 ff        rst     38h
59f9 ff        rst     38h
59fa ff        rst     38h
59fb ff        rst     38h
59fc ff        rst     38h
59fd ff        rst     38h
59fe ff        rst     38h
59ff ff        rst     38h
5a00 ff        rst     38h
5a01 ff        rst     38h
5a02 ff        rst     38h
5a03 ff        rst     38h
5a04 ff        rst     38h
5a05 ff        rst     38h
5a06 ff        rst     38h
5a07 ff        rst     38h
5a08 ff        rst     38h
5a09 ff        rst     38h
5a0a ff        rst     38h
5a0b ff        rst     38h
5a0c ff        rst     38h
5a0d ff        rst     38h
5a0e ff        rst     38h
5a0f ff        rst     38h
5a10 ff        rst     38h
5a11 ff        rst     38h
5a12 ff        rst     38h
5a13 ff        rst     38h
5a14 ff        rst     38h
5a15 ff        rst     38h
5a16 ff        rst     38h
5a17 ff        rst     38h
5a18 ff        rst     38h
5a19 ff        rst     38h
5a1a ff        rst     38h
5a1b ff        rst     38h
5a1c ff        rst     38h
5a1d ff        rst     38h
5a1e ff        rst     38h
5a1f ff        rst     38h
5a20 ff        rst     38h
5a21 ff        rst     38h
5a22 ff        rst     38h
5a23 ff        rst     38h
5a24 ff        rst     38h
5a25 ff        rst     38h
5a26 ff        rst     38h
5a27 ff        rst     38h
5a28 ff        rst     38h
5a29 ff        rst     38h
5a2a ff        rst     38h
5a2b ff        rst     38h
5a2c ff        rst     38h
5a2d ff        rst     38h
5a2e ff        rst     38h
5a2f ff        rst     38h
5a30 ff        rst     38h
5a31 ff        rst     38h
5a32 ff        rst     38h
5a33 ff        rst     38h
5a34 ff        rst     38h
5a35 ff        rst     38h
5a36 ff        rst     38h
5a37 ff        rst     38h
5a38 ff        rst     38h
5a39 ff        rst     38h
5a3a ff        rst     38h
5a3b ff        rst     38h
5a3c ff        rst     38h
5a3d ff        rst     38h
5a3e ff        rst     38h
5a3f ff        rst     38h
5a40 ff        rst     38h
5a41 ff        rst     38h
5a42 ff        rst     38h
5a43 ff        rst     38h
5a44 ff        rst     38h
5a45 ff        rst     38h
5a46 ff        rst     38h
5a47 ff        rst     38h
5a48 ff        rst     38h
5a49 ff        rst     38h
5a4a ff        rst     38h
5a4b ff        rst     38h
5a4c ff        rst     38h
5a4d ff        rst     38h
5a4e ff        rst     38h
5a4f ff        rst     38h
5a50 ff        rst     38h
5a51 ff        rst     38h
5a52 ff        rst     38h
5a53 ff        rst     38h
5a54 ff        rst     38h
5a55 ff        rst     38h
5a56 ff        rst     38h
5a57 ff        rst     38h
5a58 ff        rst     38h
5a59 ff        rst     38h
5a5a ff        rst     38h
5a5b ff        rst     38h
5a5c ff        rst     38h
5a5d ff        rst     38h
5a5e ff        rst     38h
5a5f ff        rst     38h
5a60 ff        rst     38h
5a61 ff        rst     38h
5a62 ff        rst     38h
5a63 ff        rst     38h
5a64 ff        rst     38h
5a65 ff        rst     38h
5a66 ff        rst     38h
5a67 ff        rst     38h
5a68 ff        rst     38h
5a69 ff        rst     38h
5a6a ff        rst     38h
5a6b ff        rst     38h
5a6c ff        rst     38h
5a6d ff        rst     38h
5a6e ff        rst     38h
5a6f ff        rst     38h
5a70 ff        rst     38h
5a71 ff        rst     38h
5a72 ff        rst     38h
5a73 ff        rst     38h
5a74 ff        rst     38h
5a75 ff        rst     38h
5a76 ff        rst     38h
5a77 ff        rst     38h
5a78 ff        rst     38h
5a79 ff        rst     38h
5a7a ff        rst     38h
5a7b ff        rst     38h
5a7c ff        rst     38h
5a7d ff        rst     38h
5a7e ff        rst     38h
5a7f ff        rst     38h
5a80 ff        rst     38h
5a81 ff        rst     38h
5a82 ff        rst     38h
5a83 ff        rst     38h
5a84 ff        rst     38h
5a85 ff        rst     38h
5a86 ff        rst     38h
5a87 ff        rst     38h
5a88 ff        rst     38h
5a89 ff        rst     38h
5a8a ff        rst     38h
5a8b ff        rst     38h
5a8c ff        rst     38h
5a8d ff        rst     38h
5a8e ff        rst     38h
5a8f ff        rst     38h
5a90 ff        rst     38h
5a91 ff        rst     38h
5a92 ff        rst     38h
5a93 ff        rst     38h
5a94 ff        rst     38h
5a95 ff        rst     38h
5a96 ff        rst     38h
5a97 ff        rst     38h
5a98 ff        rst     38h
5a99 ff        rst     38h
5a9a ff        rst     38h
5a9b ff        rst     38h
5a9c ff        rst     38h
5a9d ff        rst     38h
5a9e ff        rst     38h
5a9f ff        rst     38h
5aa0 ff        rst     38h
5aa1 ff        rst     38h
5aa2 ff        rst     38h
5aa3 ff        rst     38h
5aa4 ff        rst     38h
5aa5 ff        rst     38h
5aa6 ff        rst     38h
5aa7 ff        rst     38h
5aa8 ff        rst     38h
5aa9 ff        rst     38h
5aaa ff        rst     38h
5aab ff        rst     38h
5aac ff        rst     38h
5aad ff        rst     38h
5aae ff        rst     38h
5aaf ff        rst     38h
5ab0 ff        rst     38h
5ab1 ff        rst     38h
5ab2 ff        rst     38h
5ab3 ff        rst     38h
5ab4 ff        rst     38h
5ab5 ff        rst     38h
5ab6 ff        rst     38h
5ab7 ff        rst     38h
5ab8 ff        rst     38h
5ab9 ff        rst     38h
5aba ff        rst     38h
5abb ff        rst     38h
5abc ff        rst     38h
5abd ff        rst     38h
5abe ff        rst     38h
5abf ff        rst     38h
5ac0 ff        rst     38h
5ac1 ff        rst     38h
5ac2 ff        rst     38h
5ac3 ff        rst     38h
5ac4 ff        rst     38h
5ac5 ff        rst     38h
5ac6 ff        rst     38h
5ac7 ff        rst     38h
5ac8 ff        rst     38h
5ac9 ff        rst     38h
5aca ff        rst     38h
5acb ff        rst     38h
5acc ff        rst     38h
5acd ff        rst     38h
5ace ff        rst     38h
5acf ff        rst     38h
5ad0 ff        rst     38h
5ad1 ff        rst     38h
5ad2 ff        rst     38h
5ad3 ff        rst     38h
5ad4 ff        rst     38h
5ad5 ff        rst     38h
5ad6 ff        rst     38h
5ad7 ff        rst     38h
5ad8 ff        rst     38h
5ad9 ff        rst     38h
5ada ff        rst     38h
5adb ff        rst     38h
5adc ff        rst     38h
5add ff        rst     38h
5ade ff        rst     38h
5adf ff        rst     38h
5ae0 ff        rst     38h
5ae1 ff        rst     38h
5ae2 ff        rst     38h
5ae3 ff        rst     38h
5ae4 ff        rst     38h
5ae5 ff        rst     38h
5ae6 ff        rst     38h
5ae7 ff        rst     38h
5ae8 ff        rst     38h
5ae9 ff        rst     38h
5aea ff        rst     38h
5aeb ff        rst     38h
5aec ff        rst     38h
5aed ff        rst     38h
5aee ff        rst     38h
5aef ff        rst     38h
5af0 ff        rst     38h
5af1 ff        rst     38h
5af2 ff        rst     38h
5af3 ff        rst     38h
5af4 ff        rst     38h
5af5 ff        rst     38h
5af6 ff        rst     38h
5af7 ff        rst     38h
5af8 ff        rst     38h
5af9 ff        rst     38h
5afa ff        rst     38h
5afb ff        rst     38h
5afc ff        rst     38h
5afd ff        rst     38h
5afe ff        rst     38h
5aff ff        rst     38h
5b00 ff        rst     38h
5b01 ff        rst     38h
5b02 ff        rst     38h
5b03 ff        rst     38h
5b04 ff        rst     38h
5b05 ff        rst     38h
5b06 ff        rst     38h
5b07 ff        rst     38h
5b08 ff        rst     38h
5b09 ff        rst     38h
5b0a ff        rst     38h
5b0b ff        rst     38h
5b0c ff        rst     38h
5b0d ff        rst     38h
5b0e ff        rst     38h
5b0f ff        rst     38h
5b10 ff        rst     38h
5b11 ff        rst     38h
5b12 ff        rst     38h
5b13 ff        rst     38h
5b14 ff        rst     38h
5b15 ff        rst     38h
5b16 ff        rst     38h
5b17 ff        rst     38h
5b18 ff        rst     38h
5b19 ff        rst     38h
5b1a ff        rst     38h
5b1b ff        rst     38h
5b1c ff        rst     38h
5b1d ff        rst     38h
5b1e ff        rst     38h
5b1f ff        rst     38h
5b20 ff        rst     38h
5b21 ff        rst     38h
5b22 ff        rst     38h
5b23 ff        rst     38h
5b24 ff        rst     38h
5b25 ff        rst     38h
5b26 ff        rst     38h
5b27 ff        rst     38h
5b28 ff        rst     38h
5b29 ff        rst     38h
5b2a ff        rst     38h
5b2b ff        rst     38h
5b2c ff        rst     38h
5b2d ff        rst     38h
5b2e ff        rst     38h
5b2f ff        rst     38h
5b30 ff        rst     38h
5b31 ff        rst     38h
5b32 ff        rst     38h
5b33 ff        rst     38h
5b34 ff        rst     38h
5b35 ff        rst     38h
5b36 ff        rst     38h
5b37 ff        rst     38h
5b38 ff        rst     38h
5b39 ff        rst     38h
5b3a ff        rst     38h
5b3b ff        rst     38h
5b3c ff        rst     38h
5b3d ff        rst     38h
5b3e ff        rst     38h
5b3f ff        rst     38h
5b40 ff        rst     38h
5b41 ff        rst     38h
5b42 ff        rst     38h
5b43 ff        rst     38h
5b44 ff        rst     38h
5b45 ff        rst     38h
5b46 ff        rst     38h
5b47 ff        rst     38h
5b48 ff        rst     38h
5b49 ff        rst     38h
5b4a ff        rst     38h
5b4b ff        rst     38h
5b4c ff        rst     38h
5b4d ff        rst     38h
5b4e ff        rst     38h
5b4f ff        rst     38h
5b50 ff        rst     38h
5b51 ff        rst     38h
5b52 ff        rst     38h
5b53 ff        rst     38h
5b54 ff        rst     38h
5b55 ff        rst     38h
5b56 ff        rst     38h
5b57 ff        rst     38h
5b58 ff        rst     38h
5b59 ff        rst     38h
5b5a ff        rst     38h
5b5b ff        rst     38h
5b5c ff        rst     38h
5b5d ff        rst     38h
5b5e ff        rst     38h
5b5f ff        rst     38h
5b60 ff        rst     38h
5b61 ff        rst     38h
5b62 ff        rst     38h
5b63 ff        rst     38h
5b64 ff        rst     38h
5b65 ff        rst     38h
5b66 ff        rst     38h
5b67 ff        rst     38h
5b68 ff        rst     38h
5b69 ff        rst     38h
5b6a ff        rst     38h
5b6b ff        rst     38h
5b6c ff        rst     38h
5b6d ff        rst     38h
5b6e ff        rst     38h
5b6f ff        rst     38h
5b70 ff        rst     38h
5b71 ff        rst     38h
5b72 ff        rst     38h
5b73 ff        rst     38h
5b74 ff        rst     38h
5b75 ff        rst     38h
5b76 ff        rst     38h
5b77 ff        rst     38h
5b78 ff        rst     38h
5b79 ff        rst     38h
5b7a ff        rst     38h
5b7b ff        rst     38h
5b7c ff        rst     38h
5b7d ff        rst     38h
5b7e ff        rst     38h
5b7f ff        rst     38h
5b80 ff        rst     38h
5b81 ff        rst     38h
5b82 ff        rst     38h
5b83 ff        rst     38h
5b84 ff        rst     38h
5b85 ff        rst     38h
5b86 ff        rst     38h
5b87 ff        rst     38h
5b88 ff        rst     38h
5b89 ff        rst     38h
5b8a ff        rst     38h
5b8b ff        rst     38h
5b8c ff        rst     38h
5b8d ff        rst     38h
5b8e ff        rst     38h
5b8f ff        rst     38h
5b90 ff        rst     38h
5b91 ff        rst     38h
5b92 ff        rst     38h
5b93 ff        rst     38h
5b94 ff        rst     38h
5b95 ff        rst     38h
5b96 ff        rst     38h
5b97 ff        rst     38h
5b98 ff        rst     38h
5b99 ff        rst     38h
5b9a ff        rst     38h
5b9b ff        rst     38h
5b9c ff        rst     38h
5b9d ff        rst     38h
5b9e ff        rst     38h
5b9f ff        rst     38h
5ba0 ff        rst     38h
5ba1 ff        rst     38h
5ba2 ff        rst     38h
5ba3 ff        rst     38h
5ba4 ff        rst     38h
5ba5 ff        rst     38h
5ba6 ff        rst     38h
5ba7 ff        rst     38h
5ba8 ff        rst     38h
5ba9 ff        rst     38h
5baa ff        rst     38h
5bab ff        rst     38h
5bac ff        rst     38h
5bad ff        rst     38h
5bae ff        rst     38h
5baf ff        rst     38h
5bb0 ff        rst     38h
5bb1 ff        rst     38h
5bb2 ff        rst     38h
5bb3 ff        rst     38h
5bb4 ff        rst     38h
5bb5 ff        rst     38h
5bb6 ff        rst     38h
5bb7 ff        rst     38h
5bb8 ff        rst     38h
5bb9 ff        rst     38h
5bba ff        rst     38h
5bbb ff        rst     38h
5bbc ff        rst     38h
5bbd ff        rst     38h
5bbe ff        rst     38h
5bbf ff        rst     38h
5bc0 ff        rst     38h
5bc1 ff        rst     38h
5bc2 ff        rst     38h
5bc3 ff        rst     38h
5bc4 ff        rst     38h
5bc5 ff        rst     38h
5bc6 ff        rst     38h
5bc7 ff        rst     38h
5bc8 ff        rst     38h
5bc9 ff        rst     38h
5bca ff        rst     38h
5bcb ff        rst     38h
5bcc ff        rst     38h
5bcd ff        rst     38h
5bce ff        rst     38h
5bcf ff        rst     38h
5bd0 ff        rst     38h
5bd1 ff        rst     38h
5bd2 ff        rst     38h
5bd3 ff        rst     38h
5bd4 ff        rst     38h
5bd5 ff        rst     38h
5bd6 ff        rst     38h
5bd7 ff        rst     38h
5bd8 ff        rst     38h
5bd9 ff        rst     38h
5bda ff        rst     38h
5bdb ff        rst     38h
5bdc ff        rst     38h
5bdd ff        rst     38h
5bde ff        rst     38h
5bdf ff        rst     38h
5be0 ff        rst     38h
5be1 ff        rst     38h
5be2 ff        rst     38h
5be3 ff        rst     38h
5be4 ff        rst     38h
5be5 ff        rst     38h
5be6 ff        rst     38h
5be7 ff        rst     38h
5be8 ff        rst     38h
5be9 ff        rst     38h
5bea ff        rst     38h
5beb ff        rst     38h
5bec ff        rst     38h
5bed ff        rst     38h
5bee ff        rst     38h
5bef ff        rst     38h
5bf0 ff        rst     38h
5bf1 ff        rst     38h
5bf2 ff        rst     38h
5bf3 ff        rst     38h
5bf4 ff        rst     38h
5bf5 ff        rst     38h
5bf6 ff        rst     38h
5bf7 ff        rst     38h
5bf8 ff        rst     38h
5bf9 ff        rst     38h
5bfa ff        rst     38h
5bfb ff        rst     38h
5bfc ff        rst     38h
5bfd ff        rst     38h
5bfe ff        rst     38h
5bff ff        rst     38h
5c00 ff        rst     38h
5c01 ff        rst     38h
5c02 ff        rst     38h
5c03 ff        rst     38h
5c04 ff        rst     38h
5c05 ff        rst     38h
5c06 ff        rst     38h
5c07 ff        rst     38h
5c08 ff        rst     38h
5c09 ff        rst     38h
5c0a ff        rst     38h
5c0b ff        rst     38h
5c0c ff        rst     38h
5c0d ff        rst     38h
5c0e ff        rst     38h
5c0f ff        rst     38h
5c10 ff        rst     38h
5c11 ff        rst     38h
5c12 ff        rst     38h
5c13 ff        rst     38h
5c14 ff        rst     38h
5c15 ff        rst     38h
5c16 ff        rst     38h
5c17 ff        rst     38h
5c18 ff        rst     38h
5c19 ff        rst     38h
5c1a ff        rst     38h
5c1b ff        rst     38h
5c1c ff        rst     38h
5c1d ff        rst     38h
5c1e ff        rst     38h
5c1f ff        rst     38h
5c20 ff        rst     38h
5c21 ff        rst     38h
5c22 ff        rst     38h
5c23 ff        rst     38h
5c24 ff        rst     38h
5c25 ff        rst     38h
5c26 ff        rst     38h
5c27 ff        rst     38h
5c28 ff        rst     38h
5c29 ff        rst     38h
5c2a ff        rst     38h
5c2b ff        rst     38h
5c2c ff        rst     38h
5c2d ff        rst     38h
5c2e ff        rst     38h
5c2f ff        rst     38h
5c30 ff        rst     38h
5c31 ff        rst     38h
5c32 ff        rst     38h
5c33 ff        rst     38h
5c34 ff        rst     38h
5c35 ff        rst     38h
5c36 ff        rst     38h
5c37 ff        rst     38h
5c38 ff        rst     38h
5c39 ff        rst     38h
5c3a ff        rst     38h
5c3b ff        rst     38h
5c3c ff        rst     38h
5c3d ff        rst     38h
5c3e ff        rst     38h
5c3f ff        rst     38h
5c40 ff        rst     38h
5c41 ff        rst     38h
5c42 ff        rst     38h
5c43 ff        rst     38h
5c44 ff        rst     38h
5c45 ff        rst     38h
5c46 ff        rst     38h
5c47 ff        rst     38h
5c48 ff        rst     38h
5c49 ff        rst     38h
5c4a ff        rst     38h
5c4b ff        rst     38h
5c4c ff        rst     38h
5c4d ff        rst     38h
5c4e ff        rst     38h
5c4f ff        rst     38h
5c50 ff        rst     38h
5c51 ff        rst     38h
5c52 ff        rst     38h
5c53 ff        rst     38h
5c54 ff        rst     38h
5c55 ff        rst     38h
5c56 ff        rst     38h
5c57 ff        rst     38h
5c58 ff        rst     38h
5c59 ff        rst     38h
5c5a ff        rst     38h
5c5b ff        rst     38h
5c5c ff        rst     38h
5c5d ff        rst     38h
5c5e ff        rst     38h
5c5f ff        rst     38h
5c60 ff        rst     38h
5c61 ff        rst     38h
5c62 ff        rst     38h
5c63 ff        rst     38h
5c64 ff        rst     38h
5c65 ff        rst     38h
5c66 ff        rst     38h
5c67 ff        rst     38h
5c68 ff        rst     38h
5c69 ff        rst     38h
5c6a ff        rst     38h
5c6b ff        rst     38h
5c6c ff        rst     38h
5c6d ff        rst     38h
5c6e ff        rst     38h
5c6f ff        rst     38h
5c70 ff        rst     38h
5c71 ff        rst     38h
5c72 ff        rst     38h
5c73 ff        rst     38h
5c74 ff        rst     38h
5c75 ff        rst     38h
5c76 ff        rst     38h
5c77 ff        rst     38h
5c78 ff        rst     38h
5c79 ff        rst     38h
5c7a ff        rst     38h
5c7b ff        rst     38h
5c7c ff        rst     38h
5c7d ff        rst     38h
5c7e ff        rst     38h
5c7f ff        rst     38h
5c80 ff        rst     38h
5c81 ff        rst     38h
5c82 ff        rst     38h
5c83 ff        rst     38h
5c84 ff        rst     38h
5c85 ff        rst     38h
5c86 ff        rst     38h
5c87 ff        rst     38h
5c88 ff        rst     38h
5c89 ff        rst     38h
5c8a ff        rst     38h
5c8b ff        rst     38h
5c8c ff        rst     38h
5c8d ff        rst     38h
5c8e ff        rst     38h
5c8f ff        rst     38h
5c90 ff        rst     38h
5c91 ff        rst     38h
5c92 ff        rst     38h
5c93 ff        rst     38h
5c94 ff        rst     38h
5c95 ff        rst     38h
5c96 ff        rst     38h
5c97 ff        rst     38h
5c98 ff        rst     38h
5c99 ff        rst     38h
5c9a ff        rst     38h
5c9b ff        rst     38h
5c9c ff        rst     38h
5c9d ff        rst     38h
5c9e ff        rst     38h
5c9f ff        rst     38h
5ca0 ff        rst     38h
5ca1 ff        rst     38h
5ca2 ff        rst     38h
5ca3 ff        rst     38h
5ca4 ff        rst     38h
5ca5 ff        rst     38h
5ca6 ff        rst     38h
5ca7 ff        rst     38h
5ca8 ff        rst     38h
5ca9 ff        rst     38h
5caa ff        rst     38h
5cab ff        rst     38h
5cac ff        rst     38h
5cad ff        rst     38h
5cae ff        rst     38h
5caf ff        rst     38h
5cb0 ff        rst     38h
5cb1 ff        rst     38h
5cb2 ff        rst     38h
5cb3 ff        rst     38h
5cb4 ff        rst     38h
5cb5 ff        rst     38h
5cb6 ff        rst     38h
5cb7 ff        rst     38h
5cb8 ff        rst     38h
5cb9 ff        rst     38h
5cba ff        rst     38h
5cbb ff        rst     38h
5cbc ff        rst     38h
5cbd ff        rst     38h
5cbe ff        rst     38h
5cbf ff        rst     38h
5cc0 ff        rst     38h
5cc1 ff        rst     38h
5cc2 ff        rst     38h
5cc3 ff        rst     38h
5cc4 ff        rst     38h
5cc5 ff        rst     38h
5cc6 ff        rst     38h
5cc7 ff        rst     38h
5cc8 ff        rst     38h
5cc9 ff        rst     38h
5cca ff        rst     38h
5ccb ff        rst     38h
5ccc ff        rst     38h
5ccd ff        rst     38h
5cce ff        rst     38h
5ccf ff        rst     38h
5cd0 ff        rst     38h
5cd1 ff        rst     38h
5cd2 ff        rst     38h
5cd3 ff        rst     38h
5cd4 ff        rst     38h
5cd5 ff        rst     38h
5cd6 ff        rst     38h
5cd7 ff        rst     38h
5cd8 ff        rst     38h
5cd9 ff        rst     38h
5cda ff        rst     38h
5cdb ff        rst     38h
5cdc ff        rst     38h
5cdd ff        rst     38h
5cde ff        rst     38h
5cdf ff        rst     38h
5ce0 ff        rst     38h
5ce1 ff        rst     38h
5ce2 ff        rst     38h
5ce3 ff        rst     38h
5ce4 ff        rst     38h
5ce5 ff        rst     38h
5ce6 ff        rst     38h
5ce7 ff        rst     38h
5ce8 ff        rst     38h
5ce9 ff        rst     38h
5cea ff        rst     38h
5ceb ff        rst     38h
5cec ff        rst     38h
5ced ff        rst     38h
5cee ff        rst     38h
5cef ff        rst     38h
5cf0 ff        rst     38h
5cf1 ff        rst     38h
5cf2 ff        rst     38h
5cf3 ff        rst     38h
5cf4 ff        rst     38h
5cf5 ff        rst     38h
5cf6 ff        rst     38h
5cf7 ff        rst     38h
5cf8 ff        rst     38h
5cf9 ff        rst     38h
5cfa ff        rst     38h
5cfb ff        rst     38h
5cfc ff        rst     38h
5cfd ff        rst     38h
5cfe ff        rst     38h
5cff ff        rst     38h
5d00 ff        rst     38h
5d01 ff        rst     38h
5d02 ff        rst     38h
5d03 ff        rst     38h
5d04 ff        rst     38h
5d05 ff        rst     38h
5d06 ff        rst     38h
5d07 ff        rst     38h
5d08 ff        rst     38h
5d09 ff        rst     38h
5d0a ff        rst     38h
5d0b ff        rst     38h
5d0c ff        rst     38h
5d0d ff        rst     38h
5d0e ff        rst     38h
5d0f ff        rst     38h
5d10 ff        rst     38h
5d11 ff        rst     38h
5d12 ff        rst     38h
5d13 ff        rst     38h
5d14 ff        rst     38h
5d15 ff        rst     38h
5d16 ff        rst     38h
5d17 ff        rst     38h
5d18 ff        rst     38h
5d19 ff        rst     38h
5d1a ff        rst     38h
5d1b ff        rst     38h
5d1c ff        rst     38h
5d1d ff        rst     38h
5d1e ff        rst     38h
5d1f ff        rst     38h
5d20 ff        rst     38h
5d21 ff        rst     38h
5d22 ff        rst     38h
5d23 ff        rst     38h
5d24 ff        rst     38h
5d25 ff        rst     38h
5d26 ff        rst     38h
5d27 ff        rst     38h
5d28 ff        rst     38h
5d29 ff        rst     38h
5d2a ff        rst     38h
5d2b ff        rst     38h
5d2c ff        rst     38h
5d2d ff        rst     38h
5d2e ff        rst     38h
5d2f ff        rst     38h
5d30 ff        rst     38h
5d31 ff        rst     38h
5d32 ff        rst     38h
5d33 ff        rst     38h
5d34 ff        rst     38h
5d35 ff        rst     38h
5d36 ff        rst     38h
5d37 ff        rst     38h
5d38 ff        rst     38h
5d39 ff        rst     38h
5d3a ff        rst     38h
5d3b ff        rst     38h
5d3c ff        rst     38h
5d3d ff        rst     38h
5d3e ff        rst     38h
5d3f ff        rst     38h
5d40 ff        rst     38h
5d41 ff        rst     38h
5d42 ff        rst     38h
5d43 ff        rst     38h
5d44 ff        rst     38h
5d45 ff        rst     38h
5d46 ff        rst     38h
5d47 ff        rst     38h
5d48 ff        rst     38h
5d49 ff        rst     38h
5d4a ff        rst     38h
5d4b ff        rst     38h
5d4c ff        rst     38h
5d4d ff        rst     38h
5d4e ff        rst     38h
5d4f ff        rst     38h
5d50 ff        rst     38h
5d51 ff        rst     38h
5d52 ff        rst     38h
5d53 ff        rst     38h
5d54 ff        rst     38h
5d55 ff        rst     38h
5d56 ff        rst     38h
5d57 ff        rst     38h
5d58 ff        rst     38h
5d59 ff        rst     38h
5d5a ff        rst     38h
5d5b ff        rst     38h
5d5c ff        rst     38h
5d5d ff        rst     38h
5d5e ff        rst     38h
5d5f ff        rst     38h
5d60 ff        rst     38h
5d61 ff        rst     38h
5d62 ff        rst     38h
5d63 ff        rst     38h
5d64 ff        rst     38h
5d65 ff        rst     38h
5d66 ff        rst     38h
5d67 ff        rst     38h
5d68 ff        rst     38h
5d69 ff        rst     38h
5d6a ff        rst     38h
5d6b ff        rst     38h
5d6c ff        rst     38h
5d6d ff        rst     38h
5d6e ff        rst     38h
5d6f ff        rst     38h
5d70 ff        rst     38h
5d71 ff        rst     38h
5d72 ff        rst     38h
5d73 ff        rst     38h
5d74 ff        rst     38h
5d75 ff        rst     38h
5d76 ff        rst     38h
5d77 ff        rst     38h
5d78 ff        rst     38h
5d79 ff        rst     38h
5d7a ff        rst     38h
5d7b ff        rst     38h
5d7c ff        rst     38h
5d7d ff        rst     38h
5d7e ff        rst     38h
5d7f ff        rst     38h
5d80 ff        rst     38h
5d81 ff        rst     38h
5d82 ff        rst     38h
5d83 ff        rst     38h
5d84 ff        rst     38h
5d85 ff        rst     38h
5d86 ff        rst     38h
5d87 ff        rst     38h
5d88 ff        rst     38h
5d89 ff        rst     38h
5d8a ff        rst     38h
5d8b ff        rst     38h
5d8c ff        rst     38h
5d8d ff        rst     38h
5d8e ff        rst     38h
5d8f ff        rst     38h
5d90 ff        rst     38h
5d91 ff        rst     38h
5d92 ff        rst     38h
5d93 ff        rst     38h
5d94 ff        rst     38h
5d95 ff        rst     38h
5d96 ff        rst     38h
5d97 ff        rst     38h
5d98 ff        rst     38h
5d99 ff        rst     38h
5d9a ff        rst     38h
5d9b ff        rst     38h
5d9c ff        rst     38h
5d9d ff        rst     38h
5d9e ff        rst     38h
5d9f ff        rst     38h
5da0 ff        rst     38h
5da1 ff        rst     38h
5da2 ff        rst     38h
5da3 ff        rst     38h
5da4 ff        rst     38h
5da5 ff        rst     38h
5da6 ff        rst     38h
5da7 ff        rst     38h
5da8 ff        rst     38h
5da9 ff        rst     38h
5daa ff        rst     38h
5dab ff        rst     38h
5dac ff        rst     38h
5dad ff        rst     38h
5dae ff        rst     38h
5daf ff        rst     38h
5db0 ff        rst     38h
5db1 ff        rst     38h
5db2 ff        rst     38h
5db3 ff        rst     38h
5db4 ff        rst     38h
5db5 ff        rst     38h
5db6 ff        rst     38h
5db7 ff        rst     38h
5db8 ff        rst     38h
5db9 ff        rst     38h
5dba ff        rst     38h
5dbb ff        rst     38h
5dbc ff        rst     38h
5dbd ff        rst     38h
5dbe ff        rst     38h
5dbf ff        rst     38h
5dc0 ff        rst     38h
5dc1 ff        rst     38h
5dc2 ff        rst     38h
5dc3 ff        rst     38h
5dc4 ff        rst     38h
5dc5 ff        rst     38h
5dc6 ff        rst     38h
5dc7 ff        rst     38h
5dc8 ff        rst     38h
5dc9 ff        rst     38h
5dca ff        rst     38h
5dcb ff        rst     38h
5dcc ff        rst     38h
5dcd ff        rst     38h
5dce ff        rst     38h
5dcf ff        rst     38h
5dd0 ff        rst     38h
5dd1 ff        rst     38h
5dd2 ff        rst     38h
5dd3 ff        rst     38h
5dd4 ff        rst     38h
5dd5 ff        rst     38h
5dd6 ff        rst     38h
5dd7 ff        rst     38h
5dd8 ff        rst     38h
5dd9 ff        rst     38h
5dda ff        rst     38h
5ddb ff        rst     38h
5ddc ff        rst     38h
5ddd ff        rst     38h
5dde ff        rst     38h
5ddf ff        rst     38h
5de0 ff        rst     38h
5de1 ff        rst     38h
5de2 ff        rst     38h
5de3 ff        rst     38h
5de4 ff        rst     38h
5de5 ff        rst     38h
5de6 ff        rst     38h
5de7 ff        rst     38h
5de8 ff        rst     38h
5de9 ff        rst     38h
5dea ff        rst     38h
5deb ff        rst     38h
5dec ff        rst     38h
5ded ff        rst     38h
5dee ff        rst     38h
5def ff        rst     38h
5df0 ff        rst     38h
5df1 ff        rst     38h
5df2 ff        rst     38h
5df3 ff        rst     38h
5df4 ff        rst     38h
5df5 ff        rst     38h
5df6 ff        rst     38h
5df7 ff        rst     38h
5df8 ff        rst     38h
5df9 ff        rst     38h
5dfa ff        rst     38h
5dfb ff        rst     38h
5dfc ff        rst     38h
5dfd ff        rst     38h
5dfe ff        rst     38h
5dff ff        rst     38h
5e00 ff        rst     38h
5e01 ff        rst     38h
5e02 ff        rst     38h
5e03 ff        rst     38h
5e04 ff        rst     38h
5e05 ff        rst     38h
5e06 ff        rst     38h
5e07 ff        rst     38h
5e08 ff        rst     38h
5e09 ff        rst     38h
5e0a ff        rst     38h
5e0b ff        rst     38h
5e0c ff        rst     38h
5e0d ff        rst     38h
5e0e ff        rst     38h
5e0f ff        rst     38h
5e10 ff        rst     38h
5e11 ff        rst     38h
5e12 ff        rst     38h
5e13 ff        rst     38h
5e14 ff        rst     38h
5e15 ff        rst     38h
5e16 ff        rst     38h
5e17 ff        rst     38h
5e18 ff        rst     38h
5e19 ff        rst     38h
5e1a ff        rst     38h
5e1b ff        rst     38h
5e1c ff        rst     38h
5e1d ff        rst     38h
5e1e ff        rst     38h
5e1f ff        rst     38h
5e20 ff        rst     38h
5e21 ff        rst     38h
5e22 ff        rst     38h
5e23 ff        rst     38h
5e24 ff        rst     38h
5e25 ff        rst     38h
5e26 ff        rst     38h
5e27 ff        rst     38h
5e28 ff        rst     38h
5e29 ff        rst     38h
5e2a ff        rst     38h
5e2b ff        rst     38h
5e2c ff        rst     38h
5e2d ff        rst     38h
5e2e ff        rst     38h
5e2f ff        rst     38h
5e30 ff        rst     38h
5e31 ff        rst     38h
5e32 ff        rst     38h
5e33 ff        rst     38h
5e34 ff        rst     38h
5e35 ff        rst     38h
5e36 ff        rst     38h
5e37 ff        rst     38h
5e38 ff        rst     38h
5e39 ff        rst     38h
5e3a ff        rst     38h
5e3b ff        rst     38h
5e3c ff        rst     38h
5e3d ff        rst     38h
5e3e ff        rst     38h
5e3f ff        rst     38h
5e40 ff        rst     38h
5e41 ff        rst     38h
5e42 ff        rst     38h
5e43 ff        rst     38h
5e44 ff        rst     38h
5e45 ff        rst     38h
5e46 ff        rst     38h
5e47 ff        rst     38h
5e48 ff        rst     38h
5e49 ff        rst     38h
5e4a ff        rst     38h
5e4b ff        rst     38h
5e4c ff        rst     38h
5e4d ff        rst     38h
5e4e ff        rst     38h
5e4f ff        rst     38h
5e50 ff        rst     38h
5e51 ff        rst     38h
5e52 ff        rst     38h
5e53 ff        rst     38h
5e54 ff        rst     38h
5e55 ff        rst     38h
5e56 ff        rst     38h
5e57 ff        rst     38h
5e58 ff        rst     38h
5e59 ff        rst     38h
5e5a ff        rst     38h
5e5b ff        rst     38h
5e5c ff        rst     38h
5e5d ff        rst     38h
5e5e ff        rst     38h
5e5f ff        rst     38h
5e60 ff        rst     38h
5e61 ff        rst     38h
5e62 ff        rst     38h
5e63 ff        rst     38h
5e64 ff        rst     38h
5e65 ff        rst     38h
5e66 ff        rst     38h
5e67 ff        rst     38h
5e68 ff        rst     38h
5e69 ff        rst     38h
5e6a ff        rst     38h
5e6b ff        rst     38h
5e6c ff        rst     38h
5e6d ff        rst     38h
5e6e ff        rst     38h
5e6f ff        rst     38h
5e70 ff        rst     38h
5e71 ff        rst     38h
5e72 ff        rst     38h
5e73 ff        rst     38h
5e74 ff        rst     38h
5e75 ff        rst     38h
5e76 ff        rst     38h
5e77 ff        rst     38h
5e78 ff        rst     38h
5e79 ff        rst     38h
5e7a ff        rst     38h
5e7b ff        rst     38h
5e7c ff        rst     38h
5e7d ff        rst     38h
5e7e ff        rst     38h
5e7f ff        rst     38h
5e80 ff        rst     38h
5e81 ff        rst     38h
5e82 ff        rst     38h
5e83 ff        rst     38h
5e84 ff        rst     38h
5e85 ff        rst     38h
5e86 ff        rst     38h
5e87 ff        rst     38h
5e88 ff        rst     38h
5e89 ff        rst     38h
5e8a ff        rst     38h
5e8b ff        rst     38h
5e8c ff        rst     38h
5e8d ff        rst     38h
5e8e ff        rst     38h
5e8f ff        rst     38h
5e90 ff        rst     38h
5e91 ff        rst     38h
5e92 ff        rst     38h
5e93 ff        rst     38h
5e94 ff        rst     38h
5e95 ff        rst     38h
5e96 ff        rst     38h
5e97 ff        rst     38h
5e98 ff        rst     38h
5e99 ff        rst     38h
5e9a ff        rst     38h
5e9b ff        rst     38h
5e9c ff        rst     38h
5e9d ff        rst     38h
5e9e ff        rst     38h
5e9f ff        rst     38h
5ea0 ff        rst     38h
5ea1 ff        rst     38h
5ea2 ff        rst     38h
5ea3 ff        rst     38h
5ea4 ff        rst     38h
5ea5 ff        rst     38h
5ea6 ff        rst     38h
5ea7 ff        rst     38h
5ea8 ff        rst     38h
5ea9 ff        rst     38h
5eaa ff        rst     38h
5eab ff        rst     38h
5eac ff        rst     38h
5ead ff        rst     38h
5eae ff        rst     38h
5eaf ff        rst     38h
5eb0 ff        rst     38h
5eb1 ff        rst     38h
5eb2 ff        rst     38h
5eb3 ff        rst     38h
5eb4 ff        rst     38h
5eb5 ff        rst     38h
5eb6 ff        rst     38h
5eb7 ff        rst     38h
5eb8 ff        rst     38h
5eb9 ff        rst     38h
5eba ff        rst     38h
5ebb ff        rst     38h
5ebc ff        rst     38h
5ebd ff        rst     38h
5ebe ff        rst     38h
5ebf ff        rst     38h
5ec0 ff        rst     38h
5ec1 ff        rst     38h
5ec2 ff        rst     38h
5ec3 ff        rst     38h
5ec4 ff        rst     38h
5ec5 ff        rst     38h
5ec6 ff        rst     38h
5ec7 ff        rst     38h
5ec8 ff        rst     38h
5ec9 ff        rst     38h
5eca ff        rst     38h
5ecb ff        rst     38h
5ecc ff        rst     38h
5ecd ff        rst     38h
5ece ff        rst     38h
5ecf ff        rst     38h
5ed0 ff        rst     38h
5ed1 ff        rst     38h
5ed2 ff        rst     38h
5ed3 ff        rst     38h
5ed4 ff        rst     38h
5ed5 ff        rst     38h
5ed6 ff        rst     38h
5ed7 ff        rst     38h
5ed8 ff        rst     38h
5ed9 ff        rst     38h
5eda ff        rst     38h
5edb ff        rst     38h
5edc ff        rst     38h
5edd ff        rst     38h
5ede ff        rst     38h
5edf ff        rst     38h
5ee0 ff        rst     38h
5ee1 ff        rst     38h
5ee2 ff        rst     38h
5ee3 ff        rst     38h
5ee4 ff        rst     38h
5ee5 ff        rst     38h
5ee6 ff        rst     38h
5ee7 ff        rst     38h
5ee8 ff        rst     38h
5ee9 ff        rst     38h
5eea ff        rst     38h
5eeb ff        rst     38h
5eec ff        rst     38h
5eed ff        rst     38h
5eee ff        rst     38h
5eef ff        rst     38h
5ef0 ff        rst     38h
5ef1 ff        rst     38h
5ef2 ff        rst     38h
5ef3 ff        rst     38h
5ef4 ff        rst     38h
5ef5 ff        rst     38h
5ef6 ff        rst     38h
5ef7 ff        rst     38h
5ef8 ff        rst     38h
5ef9 ff        rst     38h
5efa ff        rst     38h
5efb ff        rst     38h
5efc ff        rst     38h
5efd ff        rst     38h
5efe ff        rst     38h
5eff ff        rst     38h
5f00 ff        rst     38h
5f01 ff        rst     38h
5f02 ff        rst     38h
5f03 ff        rst     38h
5f04 ff        rst     38h
5f05 ff        rst     38h
5f06 ff        rst     38h
5f07 ff        rst     38h
5f08 ff        rst     38h
5f09 ff        rst     38h
5f0a ff        rst     38h
5f0b ff        rst     38h
5f0c ff        rst     38h
5f0d ff        rst     38h
5f0e ff        rst     38h
5f0f ff        rst     38h
5f10 ff        rst     38h
5f11 ff        rst     38h
5f12 ff        rst     38h
5f13 ff        rst     38h
5f14 ff        rst     38h
5f15 ff        rst     38h
5f16 ff        rst     38h
5f17 ff        rst     38h
5f18 ff        rst     38h
5f19 ff        rst     38h
5f1a ff        rst     38h
5f1b ff        rst     38h
5f1c ff        rst     38h
5f1d ff        rst     38h
5f1e ff        rst     38h
5f1f ff        rst     38h
5f20 ff        rst     38h
5f21 ff        rst     38h
5f22 ff        rst     38h
5f23 ff        rst     38h
5f24 ff        rst     38h
5f25 ff        rst     38h
5f26 ff        rst     38h
5f27 ff        rst     38h
5f28 ff        rst     38h
5f29 ff        rst     38h
5f2a ff        rst     38h
5f2b ff        rst     38h
5f2c ff        rst     38h
5f2d ff        rst     38h
5f2e ff        rst     38h
5f2f ff        rst     38h
5f30 ff        rst     38h
5f31 ff        rst     38h
5f32 ff        rst     38h
5f33 ff        rst     38h
5f34 ff        rst     38h
5f35 ff        rst     38h
5f36 ff        rst     38h
5f37 ff        rst     38h
5f38 ff        rst     38h
5f39 ff        rst     38h
5f3a ff        rst     38h
5f3b ff        rst     38h
5f3c ff        rst     38h
5f3d ff        rst     38h
5f3e ff        rst     38h
5f3f ff        rst     38h
5f40 ff        rst     38h
5f41 ff        rst     38h
5f42 ff        rst     38h
5f43 ff        rst     38h
5f44 ff        rst     38h
5f45 ff        rst     38h
5f46 ff        rst     38h
5f47 ff        rst     38h
5f48 ff        rst     38h
5f49 ff        rst     38h
5f4a ff        rst     38h
5f4b ff        rst     38h
5f4c ff        rst     38h
5f4d ff        rst     38h
5f4e ff        rst     38h
5f4f ff        rst     38h
5f50 ff        rst     38h
5f51 ff        rst     38h
5f52 ff        rst     38h
5f53 ff        rst     38h
5f54 ff        rst     38h
5f55 ff        rst     38h
5f56 ff        rst     38h
5f57 ff        rst     38h
5f58 ff        rst     38h
5f59 ff        rst     38h
5f5a ff        rst     38h
5f5b ff        rst     38h
5f5c ff        rst     38h
5f5d ff        rst     38h
5f5e ff        rst     38h
5f5f ff        rst     38h
5f60 ff        rst     38h
5f61 ff        rst     38h
5f62 ff        rst     38h
5f63 ff        rst     38h
5f64 ff        rst     38h
5f65 ff        rst     38h
5f66 ff        rst     38h
5f67 ff        rst     38h
5f68 ff        rst     38h
5f69 ff        rst     38h
5f6a ff        rst     38h
5f6b ff        rst     38h
5f6c ff        rst     38h
5f6d ff        rst     38h
5f6e ff        rst     38h
5f6f ff        rst     38h
5f70 ff        rst     38h
5f71 ff        rst     38h
5f72 ff        rst     38h
5f73 ff        rst     38h
5f74 ff        rst     38h
5f75 ff        rst     38h
5f76 ff        rst     38h
5f77 ff        rst     38h
5f78 ff        rst     38h
5f79 ff        rst     38h
5f7a ff        rst     38h
5f7b ff        rst     38h
5f7c ff        rst     38h
5f7d ff        rst     38h
5f7e ff        rst     38h
5f7f ff        rst     38h
5f80 ff        rst     38h
5f81 ff        rst     38h
5f82 ff        rst     38h
5f83 ff        rst     38h
5f84 ff        rst     38h
5f85 ff        rst     38h
5f86 ff        rst     38h
5f87 ff        rst     38h
5f88 ff        rst     38h
5f89 ff        rst     38h
5f8a ff        rst     38h
5f8b ff        rst     38h
5f8c ff        rst     38h
5f8d ff        rst     38h
5f8e ff        rst     38h
5f8f ff        rst     38h
5f90 ff        rst     38h
5f91 ff        rst     38h
5f92 ff        rst     38h
5f93 ff        rst     38h
5f94 ff        rst     38h
5f95 ff        rst     38h
5f96 ff        rst     38h
5f97 ff        rst     38h
5f98 ff        rst     38h
5f99 ff        rst     38h
5f9a ff        rst     38h
5f9b ff        rst     38h
5f9c ff        rst     38h
5f9d ff        rst     38h
5f9e ff        rst     38h
5f9f ff        rst     38h
5fa0 ff        rst     38h
5fa1 ff        rst     38h
5fa2 ff        rst     38h
5fa3 ff        rst     38h
5fa4 ff        rst     38h
5fa5 ff        rst     38h
5fa6 ff        rst     38h
5fa7 ff        rst     38h
5fa8 ff        rst     38h
5fa9 ff        rst     38h
5faa ff        rst     38h
5fab ff        rst     38h
5fac ff        rst     38h
5fad ff        rst     38h
5fae ff        rst     38h
5faf ff        rst     38h
5fb0 ff        rst     38h
5fb1 ff        rst     38h
5fb2 ff        rst     38h
5fb3 ff        rst     38h
5fb4 ff        rst     38h
5fb5 ff        rst     38h
5fb6 ff        rst     38h
5fb7 ff        rst     38h
5fb8 ff        rst     38h
5fb9 ff        rst     38h
5fba ff        rst     38h
5fbb ff        rst     38h
5fbc ff        rst     38h
5fbd ff        rst     38h
5fbe ff        rst     38h
5fbf ff        rst     38h
5fc0 ff        rst     38h
5fc1 ff        rst     38h
5fc2 ff        rst     38h
5fc3 ff        rst     38h
5fc4 ff        rst     38h
5fc5 ff        rst     38h
5fc6 ff        rst     38h
5fc7 ff        rst     38h
5fc8 ff        rst     38h
5fc9 ff        rst     38h
5fca ff        rst     38h
5fcb ff        rst     38h
5fcc ff        rst     38h
5fcd ff        rst     38h
5fce ff        rst     38h
5fcf ff        rst     38h
5fd0 ff        rst     38h
5fd1 ff        rst     38h
5fd2 ff        rst     38h
5fd3 ff        rst     38h
5fd4 ff        rst     38h
5fd5 ff        rst     38h
5fd6 ff        rst     38h
5fd7 ff        rst     38h
5fd8 ff        rst     38h
5fd9 ff        rst     38h
5fda ff        rst     38h
5fdb ff        rst     38h
5fdc ff        rst     38h
5fdd ff        rst     38h
5fde ff        rst     38h
5fdf ff        rst     38h
5fe0 ff        rst     38h
5fe1 ff        rst     38h
5fe2 ff        rst     38h
5fe3 ff        rst     38h
5fe4 ff        rst     38h
5fe5 ff        rst     38h
5fe6 ff        rst     38h
5fe7 ff        rst     38h
5fe8 ff        rst     38h
5fe9 ff        rst     38h
5fea ff        rst     38h
5feb ff        rst     38h
5fec ff        rst     38h
5fed ff        rst     38h
5fee ff        rst     38h
5fef ff        rst     38h
5ff0 ff        rst     38h
5ff1 ff        rst     38h
5ff2 ff        rst     38h
5ff3 ff        rst     38h
5ff4 ff        rst     38h
5ff5 ff        rst     38h
5ff6 ff        rst     38h
5ff7 ff        rst     38h
5ff8 ff        rst     38h
5ff9 ff        rst     38h
5ffa ff        rst     38h
5ffb ff        rst     38h
5ffc ff        rst     38h
5ffd ff        rst     38h
5ffe ff        rst     38h
5fff ff        rst     38h
6000 ff        rst     38h
6001 ff        rst     38h
6002 ff        rst     38h
6003 ff        rst     38h
6004 ff        rst     38h
6005 ff        rst     38h
6006 ff        rst     38h
6007 ff        rst     38h
6008 ff        rst     38h
6009 ff        rst     38h
600a ff        rst     38h
600b ff        rst     38h
600c ff        rst     38h
600d ff        rst     38h
600e ff        rst     38h
600f ff        rst     38h
6010 ff        rst     38h
6011 ff        rst     38h
6012 ff        rst     38h
6013 ff        rst     38h
6014 ff        rst     38h
6015 ff        rst     38h
6016 ff        rst     38h
6017 ff        rst     38h
6018 ff        rst     38h
6019 ff        rst     38h
601a ff        rst     38h
601b ff        rst     38h
601c ff        rst     38h
601d ff        rst     38h
601e ff        rst     38h
601f ff        rst     38h
6020 ff        rst     38h
6021 ff        rst     38h
6022 ff        rst     38h
6023 ff        rst     38h
6024 ff        rst     38h
6025 ff        rst     38h
6026 ff        rst     38h
6027 ff        rst     38h
6028 ff        rst     38h
6029 ff        rst     38h
602a ff        rst     38h
602b ff        rst     38h
602c ff        rst     38h
602d ff        rst     38h
602e ff        rst     38h
602f ff        rst     38h
6030 ff        rst     38h
6031 ff        rst     38h
6032 ff        rst     38h
6033 ff        rst     38h
6034 ff        rst     38h
6035 ff        rst     38h
6036 ff        rst     38h
6037 ff        rst     38h
6038 ff        rst     38h
6039 ff        rst     38h
603a ff        rst     38h
603b ff        rst     38h
603c ff        rst     38h
603d ff        rst     38h
603e ff        rst     38h
603f ff        rst     38h
6040 ff        rst     38h
6041 ff        rst     38h
6042 ff        rst     38h
6043 ff        rst     38h
6044 ff        rst     38h
6045 ff        rst     38h
6046 ff        rst     38h
6047 ff        rst     38h
6048 ff        rst     38h
6049 ff        rst     38h
604a ff        rst     38h
604b ff        rst     38h
604c ff        rst     38h
604d ff        rst     38h
604e ff        rst     38h
604f ff        rst     38h
6050 ff        rst     38h
6051 ff        rst     38h
6052 ff        rst     38h
6053 ff        rst     38h
6054 ff        rst     38h
6055 ff        rst     38h
6056 ff        rst     38h
6057 ff        rst     38h
6058 ff        rst     38h
6059 ff        rst     38h
605a ff        rst     38h
605b ff        rst     38h
605c ff        rst     38h
605d ff        rst     38h
605e ff        rst     38h
605f ff        rst     38h
6060 ff        rst     38h
6061 ff        rst     38h
6062 ff        rst     38h
6063 ff        rst     38h
6064 ff        rst     38h
6065 ff        rst     38h
6066 ff        rst     38h
6067 ff        rst     38h
6068 ff        rst     38h
6069 ff        rst     38h
606a ff        rst     38h
606b ff        rst     38h
606c ff        rst     38h
606d ff        rst     38h
606e ff        rst     38h
606f ff        rst     38h
6070 ff        rst     38h
6071 ff        rst     38h
6072 ff        rst     38h
6073 ff        rst     38h
6074 ff        rst     38h
6075 ff        rst     38h
6076 ff        rst     38h
6077 ff        rst     38h
6078 ff        rst     38h
6079 ff        rst     38h
607a ff        rst     38h
607b ff        rst     38h
607c ff        rst     38h
607d ff        rst     38h
607e ff        rst     38h
607f ff        rst     38h
6080 ff        rst     38h
6081 ff        rst     38h
6082 ff        rst     38h
6083 ff        rst     38h
6084 ff        rst     38h
6085 ff        rst     38h
6086 ff        rst     38h
6087 ff        rst     38h
6088 ff        rst     38h
6089 ff        rst     38h
608a ff        rst     38h
608b ff        rst     38h
608c ff        rst     38h
608d ff        rst     38h
608e ff        rst     38h
608f ff        rst     38h
6090 ff        rst     38h
6091 ff        rst     38h
6092 ff        rst     38h
6093 ff        rst     38h
6094 ff        rst     38h
6095 ff        rst     38h
6096 ff        rst     38h
6097 ff        rst     38h
6098 ff        rst     38h
6099 ff        rst     38h
609a ff        rst     38h
609b ff        rst     38h
609c ff        rst     38h
609d ff        rst     38h
609e ff        rst     38h
609f ff        rst     38h
60a0 ff        rst     38h
60a1 ff        rst     38h
60a2 ff        rst     38h
60a3 ff        rst     38h
60a4 ff        rst     38h
60a5 ff        rst     38h
60a6 ff        rst     38h
60a7 ff        rst     38h
60a8 ff        rst     38h
60a9 ff        rst     38h
60aa ff        rst     38h
60ab ff        rst     38h
60ac ff        rst     38h
60ad ff        rst     38h
60ae ff        rst     38h
60af ff        rst     38h
60b0 ff        rst     38h
60b1 ff        rst     38h
60b2 ff        rst     38h
60b3 ff        rst     38h
60b4 ff        rst     38h
60b5 ff        rst     38h
60b6 ff        rst     38h
60b7 ff        rst     38h
60b8 ff        rst     38h
60b9 ff        rst     38h
60ba ff        rst     38h
60bb ff        rst     38h
60bc ff        rst     38h
60bd ff        rst     38h
60be ff        rst     38h
60bf ff        rst     38h
60c0 ff        rst     38h
60c1 ff        rst     38h
60c2 ff        rst     38h
60c3 ff        rst     38h
60c4 ff        rst     38h
60c5 ff        rst     38h
60c6 ff        rst     38h
60c7 ff        rst     38h
60c8 ff        rst     38h
60c9 ff        rst     38h
60ca ff        rst     38h
60cb ff        rst     38h
60cc ff        rst     38h
60cd ff        rst     38h
60ce ff        rst     38h
60cf ff        rst     38h
60d0 ff        rst     38h
60d1 ff        rst     38h
60d2 ff        rst     38h
60d3 ff        rst     38h
60d4 ff        rst     38h
60d5 ff        rst     38h
60d6 ff        rst     38h
60d7 ff        rst     38h
60d8 ff        rst     38h
60d9 ff        rst     38h
60da ff        rst     38h
60db ff        rst     38h
60dc ff        rst     38h
60dd ff        rst     38h
60de ff        rst     38h
60df ff        rst     38h
60e0 ff        rst     38h
60e1 ff        rst     38h
60e2 ff        rst     38h
60e3 ff        rst     38h
60e4 ff        rst     38h
60e5 ff        rst     38h
60e6 ff        rst     38h
60e7 ff        rst     38h
60e8 ff        rst     38h
60e9 ff        rst     38h
60ea ff        rst     38h
60eb ff        rst     38h
60ec ff        rst     38h
60ed ff        rst     38h
60ee ff        rst     38h
60ef ff        rst     38h
60f0 ff        rst     38h
60f1 ff        rst     38h
60f2 ff        rst     38h
60f3 ff        rst     38h
60f4 ff        rst     38h
60f5 ff        rst     38h
60f6 ff        rst     38h
60f7 ff        rst     38h
60f8 ff        rst     38h
60f9 ff        rst     38h
60fa ff        rst     38h
60fb ff        rst     38h
60fc ff        rst     38h
60fd ff        rst     38h
60fe ff        rst     38h
60ff ff        rst     38h
6100 ff        rst     38h
6101 ff        rst     38h
6102 ff        rst     38h
6103 ff        rst     38h
6104 ff        rst     38h
6105 ff        rst     38h
6106 ff        rst     38h
6107 ff        rst     38h
6108 ff        rst     38h
6109 ff        rst     38h
610a ff        rst     38h
610b ff        rst     38h
610c ff        rst     38h
610d ff        rst     38h
610e ff        rst     38h
610f ff        rst     38h
6110 ff        rst     38h
6111 ff        rst     38h
6112 ff        rst     38h
6113 ff        rst     38h
6114 ff        rst     38h
6115 ff        rst     38h
6116 ff        rst     38h
6117 ff        rst     38h
6118 ff        rst     38h
6119 ff        rst     38h
611a ff        rst     38h
611b ff        rst     38h
611c ff        rst     38h
611d ff        rst     38h
611e ff        rst     38h
611f ff        rst     38h
6120 ff        rst     38h
6121 ff        rst     38h
6122 ff        rst     38h
6123 ff        rst     38h
6124 ff        rst     38h
6125 ff        rst     38h
6126 ff        rst     38h
6127 ff        rst     38h
6128 ff        rst     38h
6129 ff        rst     38h
612a ff        rst     38h
612b ff        rst     38h
612c ff        rst     38h
612d ff        rst     38h
612e ff        rst     38h
612f ff        rst     38h
6130 ff        rst     38h
6131 ff        rst     38h
6132 ff        rst     38h
6133 ff        rst     38h
6134 ff        rst     38h
6135 ff        rst     38h
6136 ff        rst     38h
6137 ff        rst     38h
6138 ff        rst     38h
6139 ff        rst     38h
613a ff        rst     38h
613b ff        rst     38h
613c ff        rst     38h
613d ff        rst     38h
613e ff        rst     38h
613f ff        rst     38h
6140 ff        rst     38h
6141 ff        rst     38h
6142 ff        rst     38h
6143 ff        rst     38h
6144 ff        rst     38h
6145 ff        rst     38h
6146 ff        rst     38h
6147 ff        rst     38h
6148 ff        rst     38h
6149 ff        rst     38h
614a ff        rst     38h
614b ff        rst     38h
614c ff        rst     38h
614d ff        rst     38h
614e ff        rst     38h
614f ff        rst     38h
6150 ff        rst     38h
6151 ff        rst     38h
6152 ff        rst     38h
6153 ff        rst     38h
6154 ff        rst     38h
6155 ff        rst     38h
6156 ff        rst     38h
6157 ff        rst     38h
6158 ff        rst     38h
6159 ff        rst     38h
615a ff        rst     38h
615b ff        rst     38h
615c ff        rst     38h
615d ff        rst     38h
615e ff        rst     38h
615f ff        rst     38h
6160 ff        rst     38h
6161 ff        rst     38h
6162 ff        rst     38h
6163 ff        rst     38h
6164 ff        rst     38h
6165 ff        rst     38h
6166 ff        rst     38h
6167 ff        rst     38h
6168 ff        rst     38h
6169 ff        rst     38h
616a ff        rst     38h
616b ff        rst     38h
616c ff        rst     38h
616d ff        rst     38h
616e ff        rst     38h
616f ff        rst     38h
6170 ff        rst     38h
6171 ff        rst     38h
6172 ff        rst     38h
6173 ff        rst     38h
6174 ff        rst     38h
6175 ff        rst     38h
6176 ff        rst     38h
6177 ff        rst     38h
6178 ff        rst     38h
6179 ff        rst     38h
617a ff        rst     38h
617b ff        rst     38h
617c ff        rst     38h
617d ff        rst     38h
617e ff        rst     38h
617f ff        rst     38h
6180 ff        rst     38h
6181 ff        rst     38h
6182 ff        rst     38h
6183 ff        rst     38h
6184 ff        rst     38h
6185 ff        rst     38h
6186 ff        rst     38h
6187 ff        rst     38h
6188 ff        rst     38h
6189 ff        rst     38h
618a ff        rst     38h
618b ff        rst     38h
618c ff        rst     38h
618d ff        rst     38h
618e ff        rst     38h
618f ff        rst     38h
6190 ff        rst     38h
6191 ff        rst     38h
6192 ff        rst     38h
6193 ff        rst     38h
6194 ff        rst     38h
6195 ff        rst     38h
6196 ff        rst     38h
6197 ff        rst     38h
6198 ff        rst     38h
6199 ff        rst     38h
619a ff        rst     38h
619b ff        rst     38h
619c ff        rst     38h
619d ff        rst     38h
619e ff        rst     38h
619f ff        rst     38h
61a0 ff        rst     38h
61a1 ff        rst     38h
61a2 ff        rst     38h
61a3 ff        rst     38h
61a4 ff        rst     38h
61a5 ff        rst     38h
61a6 ff        rst     38h
61a7 ff        rst     38h
61a8 ff        rst     38h
61a9 ff        rst     38h
61aa ff        rst     38h
61ab ff        rst     38h
61ac ff        rst     38h
61ad ff        rst     38h
61ae ff        rst     38h
61af ff        rst     38h
61b0 ff        rst     38h
61b1 ff        rst     38h
61b2 ff        rst     38h
61b3 ff        rst     38h
61b4 ff        rst     38h
61b5 ff        rst     38h
61b6 ff        rst     38h
61b7 ff        rst     38h
61b8 ff        rst     38h
61b9 ff        rst     38h
61ba ff        rst     38h
61bb ff        rst     38h
61bc ff        rst     38h
61bd ff        rst     38h
61be ff        rst     38h
61bf ff        rst     38h
61c0 ff        rst     38h
61c1 ff        rst     38h
61c2 ff        rst     38h
61c3 ff        rst     38h
61c4 ff        rst     38h
61c5 ff        rst     38h
61c6 ff        rst     38h
61c7 ff        rst     38h
61c8 ff        rst     38h
61c9 ff        rst     38h
61ca ff        rst     38h
61cb ff        rst     38h
61cc ff        rst     38h
61cd ff        rst     38h
61ce ff        rst     38h
61cf ff        rst     38h
61d0 ff        rst     38h
61d1 ff        rst     38h
61d2 ff        rst     38h
61d3 ff        rst     38h
61d4 ff        rst     38h
61d5 ff        rst     38h
61d6 ff        rst     38h
61d7 ff        rst     38h
61d8 ff        rst     38h
61d9 ff        rst     38h
61da ff        rst     38h
61db ff        rst     38h
61dc ff        rst     38h
61dd ff        rst     38h
61de ff        rst     38h
61df ff        rst     38h
61e0 ff        rst     38h
61e1 ff        rst     38h
61e2 ff        rst     38h
61e3 ff        rst     38h
61e4 ff        rst     38h
61e5 ff        rst     38h
61e6 ff        rst     38h
61e7 ff        rst     38h
61e8 ff        rst     38h
61e9 ff        rst     38h
61ea ff        rst     38h
61eb ff        rst     38h
61ec ff        rst     38h
61ed ff        rst     38h
61ee ff        rst     38h
61ef ff        rst     38h
61f0 ff        rst     38h
61f1 ff        rst     38h
61f2 ff        rst     38h
61f3 ff        rst     38h
61f4 ff        rst     38h
61f5 ff        rst     38h
61f6 ff        rst     38h
61f7 ff        rst     38h
61f8 ff        rst     38h
61f9 ff        rst     38h
61fa ff        rst     38h
61fb ff        rst     38h
61fc ff        rst     38h
61fd ff        rst     38h
61fe ff        rst     38h
61ff ff        rst     38h
6200 ff        rst     38h
6201 ff        rst     38h
6202 ff        rst     38h
6203 ff        rst     38h
6204 ff        rst     38h
6205 ff        rst     38h
6206 ff        rst     38h
6207 ff        rst     38h
6208 ff        rst     38h
6209 ff        rst     38h
620a ff        rst     38h
620b ff        rst     38h
620c ff        rst     38h
620d ff        rst     38h
620e ff        rst     38h
620f ff        rst     38h
6210 ff        rst     38h
6211 ff        rst     38h
6212 ff        rst     38h
6213 ff        rst     38h
6214 ff        rst     38h
6215 ff        rst     38h
6216 ff        rst     38h
6217 ff        rst     38h
6218 ff        rst     38h
6219 ff        rst     38h
621a ff        rst     38h
621b ff        rst     38h
621c ff        rst     38h
621d ff        rst     38h
621e ff        rst     38h
621f ff        rst     38h
6220 ff        rst     38h
6221 ff        rst     38h
6222 ff        rst     38h
6223 ff        rst     38h
6224 ff        rst     38h
6225 ff        rst     38h
6226 ff        rst     38h
6227 ff        rst     38h
6228 ff        rst     38h
6229 ff        rst     38h
622a ff        rst     38h
622b ff        rst     38h
622c ff        rst     38h
622d ff        rst     38h
622e ff        rst     38h
622f ff        rst     38h
6230 ff        rst     38h
6231 ff        rst     38h
6232 ff        rst     38h
6233 ff        rst     38h
6234 ff        rst     38h
6235 ff        rst     38h
6236 ff        rst     38h
6237 ff        rst     38h
6238 ff        rst     38h
6239 ff        rst     38h
623a ff        rst     38h
623b ff        rst     38h
623c ff        rst     38h
623d ff        rst     38h
623e ff        rst     38h
623f ff        rst     38h
6240 ff        rst     38h
6241 ff        rst     38h
6242 ff        rst     38h
6243 ff        rst     38h
6244 ff        rst     38h
6245 ff        rst     38h
6246 ff        rst     38h
6247 ff        rst     38h
6248 ff        rst     38h
6249 ff        rst     38h
624a ff        rst     38h
624b ff        rst     38h
624c ff        rst     38h
624d ff        rst     38h
624e ff        rst     38h
624f ff        rst     38h
6250 ff        rst     38h
6251 ff        rst     38h
6252 ff        rst     38h
6253 ff        rst     38h
6254 ff        rst     38h
6255 ff        rst     38h
6256 ff        rst     38h
6257 ff        rst     38h
6258 ff        rst     38h
6259 ff        rst     38h
625a ff        rst     38h
625b ff        rst     38h
625c ff        rst     38h
625d ff        rst     38h
625e ff        rst     38h
625f ff        rst     38h
6260 ff        rst     38h
6261 ff        rst     38h
6262 ff        rst     38h
6263 ff        rst     38h
6264 ff        rst     38h
6265 ff        rst     38h
6266 ff        rst     38h
6267 ff        rst     38h
6268 ff        rst     38h
6269 ff        rst     38h
626a ff        rst     38h
626b ff        rst     38h
626c ff        rst     38h
626d ff        rst     38h
626e ff        rst     38h
626f ff        rst     38h
6270 ff        rst     38h
6271 ff        rst     38h
6272 ff        rst     38h
6273 ff        rst     38h
6274 ff        rst     38h
6275 ff        rst     38h
6276 ff        rst     38h
6277 ff        rst     38h
6278 ff        rst     38h
6279 ff        rst     38h
627a ff        rst     38h
627b ff        rst     38h
627c ff        rst     38h
627d ff        rst     38h
627e ff        rst     38h
627f ff        rst     38h
6280 ff        rst     38h
6281 ff        rst     38h
6282 ff        rst     38h
6283 ff        rst     38h
6284 ff        rst     38h
6285 ff        rst     38h
6286 ff        rst     38h
6287 ff        rst     38h
6288 ff        rst     38h
6289 ff        rst     38h
628a ff        rst     38h
628b ff        rst     38h
628c ff        rst     38h
628d ff        rst     38h
628e ff        rst     38h
628f ff        rst     38h
6290 ff        rst     38h
6291 ff        rst     38h
6292 ff        rst     38h
6293 ff        rst     38h
6294 ff        rst     38h
6295 ff        rst     38h
6296 ff        rst     38h
6297 ff        rst     38h
6298 ff        rst     38h
6299 ff        rst     38h
629a ff        rst     38h
629b ff        rst     38h
629c ff        rst     38h
629d ff        rst     38h
629e ff        rst     38h
629f ff        rst     38h
62a0 ff        rst     38h
62a1 ff        rst     38h
62a2 ff        rst     38h
62a3 ff        rst     38h
62a4 ff        rst     38h
62a5 ff        rst     38h
62a6 ff        rst     38h
62a7 ff        rst     38h
62a8 ff        rst     38h
62a9 ff        rst     38h
62aa ff        rst     38h
62ab ff        rst     38h
62ac ff        rst     38h
62ad ff        rst     38h
62ae ff        rst     38h
62af ff        rst     38h
62b0 ff        rst     38h
62b1 ff        rst     38h
62b2 ff        rst     38h
62b3 ff        rst     38h
62b4 ff        rst     38h
62b5 ff        rst     38h
62b6 ff        rst     38h
62b7 ff        rst     38h
62b8 ff        rst     38h
62b9 ff        rst     38h
62ba ff        rst     38h
62bb ff        rst     38h
62bc ff        rst     38h
62bd ff        rst     38h
62be ff        rst     38h
62bf ff        rst     38h
62c0 ff        rst     38h
62c1 ff        rst     38h
62c2 ff        rst     38h
62c3 ff        rst     38h
62c4 ff        rst     38h
62c5 ff        rst     38h
62c6 ff        rst     38h
62c7 ff        rst     38h
62c8 ff        rst     38h
62c9 ff        rst     38h
62ca ff        rst     38h
62cb ff        rst     38h
62cc ff        rst     38h
62cd ff        rst     38h
62ce ff        rst     38h
62cf ff        rst     38h
62d0 ff        rst     38h
62d1 ff        rst     38h
62d2 ff        rst     38h
62d3 ff        rst     38h
62d4 ff        rst     38h
62d5 ff        rst     38h
62d6 ff        rst     38h
62d7 ff        rst     38h
62d8 ff        rst     38h
62d9 ff        rst     38h
62da ff        rst     38h
62db ff        rst     38h
62dc ff        rst     38h
62dd ff        rst     38h
62de ff        rst     38h
62df ff        rst     38h
62e0 ff        rst     38h
62e1 ff        rst     38h
62e2 ff        rst     38h
62e3 ff        rst     38h
62e4 ff        rst     38h
62e5 ff        rst     38h
62e6 ff        rst     38h
62e7 ff        rst     38h
62e8 ff        rst     38h
62e9 ff        rst     38h
62ea ff        rst     38h
62eb ff        rst     38h
62ec ff        rst     38h
62ed ff        rst     38h
62ee ff        rst     38h
62ef ff        rst     38h
62f0 ff        rst     38h
62f1 ff        rst     38h
62f2 ff        rst     38h
62f3 ff        rst     38h
62f4 ff        rst     38h
62f5 ff        rst     38h
62f6 ff        rst     38h
62f7 ff        rst     38h
62f8 ff        rst     38h
62f9 ff        rst     38h
62fa ff        rst     38h
62fb ff        rst     38h
62fc ff        rst     38h
62fd ff        rst     38h
62fe ff        rst     38h
62ff ff        rst     38h
6300 ff        rst     38h
6301 ff        rst     38h
6302 ff        rst     38h
6303 ff        rst     38h
6304 ff        rst     38h
6305 ff        rst     38h
6306 ff        rst     38h
6307 ff        rst     38h
6308 ff        rst     38h
6309 ff        rst     38h
630a ff        rst     38h
630b ff        rst     38h
630c ff        rst     38h
630d ff        rst     38h
630e ff        rst     38h
630f ff        rst     38h
6310 ff        rst     38h
6311 ff        rst     38h
6312 ff        rst     38h
6313 ff        rst     38h
6314 ff        rst     38h
6315 ff        rst     38h
6316 ff        rst     38h
6317 ff        rst     38h
6318 ff        rst     38h
6319 ff        rst     38h
631a ff        rst     38h
631b ff        rst     38h
631c ff        rst     38h
631d ff        rst     38h
631e ff        rst     38h
631f ff        rst     38h
6320 ff        rst     38h
6321 ff        rst     38h
6322 ff        rst     38h
6323 ff        rst     38h
6324 ff        rst     38h
6325 ff        rst     38h
6326 ff        rst     38h
6327 ff        rst     38h
6328 ff        rst     38h
6329 ff        rst     38h
632a ff        rst     38h
632b ff        rst     38h
632c ff        rst     38h
632d ff        rst     38h
632e ff        rst     38h
632f ff        rst     38h
6330 ff        rst     38h
6331 ff        rst     38h
6332 ff        rst     38h
6333 ff        rst     38h
6334 ff        rst     38h
6335 ff        rst     38h
6336 ff        rst     38h
6337 ff        rst     38h
6338 ff        rst     38h
6339 ff        rst     38h
633a ff        rst     38h
633b ff        rst     38h
633c ff        rst     38h
633d ff        rst     38h
633e ff        rst     38h
633f ff        rst     38h
6340 ff        rst     38h
6341 ff        rst     38h
6342 ff        rst     38h
6343 ff        rst     38h
6344 ff        rst     38h
6345 ff        rst     38h
6346 ff        rst     38h
6347 ff        rst     38h
6348 ff        rst     38h
6349 ff        rst     38h
634a ff        rst     38h
634b ff        rst     38h
634c ff        rst     38h
634d ff        rst     38h
634e ff        rst     38h
634f ff        rst     38h
6350 ff        rst     38h
6351 ff        rst     38h
6352 ff        rst     38h
6353 ff        rst     38h
6354 ff        rst     38h
6355 ff        rst     38h
6356 ff        rst     38h
6357 ff        rst     38h
6358 ff        rst     38h
6359 ff        rst     38h
635a ff        rst     38h
635b ff        rst     38h
635c ff        rst     38h
635d ff        rst     38h
635e ff        rst     38h
635f ff        rst     38h
6360 ff        rst     38h
6361 ff        rst     38h
6362 ff        rst     38h
6363 ff        rst     38h
6364 ff        rst     38h
6365 ff        rst     38h
6366 ff        rst     38h
6367 ff        rst     38h
6368 ff        rst     38h
6369 ff        rst     38h
636a ff        rst     38h
636b ff        rst     38h
636c ff        rst     38h
636d ff        rst     38h
636e ff        rst     38h
636f ff        rst     38h
6370 ff        rst     38h
6371 ff        rst     38h
6372 ff        rst     38h
6373 ff        rst     38h
6374 ff        rst     38h
6375 ff        rst     38h
6376 ff        rst     38h
6377 ff        rst     38h
6378 ff        rst     38h
6379 ff        rst     38h
637a ff        rst     38h
637b ff        rst     38h
637c ff        rst     38h
637d ff        rst     38h
637e ff        rst     38h
637f ff        rst     38h
6380 ff        rst     38h
6381 ff        rst     38h
6382 ff        rst     38h
6383 ff        rst     38h
6384 ff        rst     38h
6385 ff        rst     38h
6386 ff        rst     38h
6387 ff        rst     38h
6388 ff        rst     38h
6389 ff        rst     38h
638a ff        rst     38h
638b ff        rst     38h
638c ff        rst     38h
638d ff        rst     38h
638e ff        rst     38h
638f ff        rst     38h
6390 ff        rst     38h
6391 ff        rst     38h
6392 ff        rst     38h
6393 ff        rst     38h
6394 ff        rst     38h
6395 ff        rst     38h
6396 ff        rst     38h
6397 ff        rst     38h
6398 ff        rst     38h
6399 ff        rst     38h
639a ff        rst     38h
639b ff        rst     38h
639c ff        rst     38h
639d ff        rst     38h
639e ff        rst     38h
639f ff        rst     38h
63a0 ff        rst     38h
63a1 ff        rst     38h
63a2 ff        rst     38h
63a3 ff        rst     38h
63a4 ff        rst     38h
63a5 ff        rst     38h
63a6 ff        rst     38h
63a7 ff        rst     38h
63a8 ff        rst     38h
63a9 ff        rst     38h
63aa ff        rst     38h
63ab ff        rst     38h
63ac ff        rst     38h
63ad ff        rst     38h
63ae ff        rst     38h
63af ff        rst     38h
63b0 ff        rst     38h
63b1 ff        rst     38h
63b2 ff        rst     38h
63b3 ff        rst     38h
63b4 ff        rst     38h
63b5 ff        rst     38h
63b6 ff        rst     38h
63b7 ff        rst     38h
63b8 ff        rst     38h
63b9 ff        rst     38h
63ba ff        rst     38h
63bb ff        rst     38h
63bc ff        rst     38h
63bd ff        rst     38h
63be ff        rst     38h
63bf ff        rst     38h
63c0 ff        rst     38h
63c1 ff        rst     38h
63c2 ff        rst     38h
63c3 ff        rst     38h
63c4 ff        rst     38h
63c5 ff        rst     38h
63c6 ff        rst     38h
63c7 ff        rst     38h
63c8 ff        rst     38h
63c9 ff        rst     38h
63ca ff        rst     38h
63cb ff        rst     38h
63cc ff        rst     38h
63cd ff        rst     38h
63ce ff        rst     38h
63cf ff        rst     38h
63d0 ff        rst     38h
63d1 ff        rst     38h
63d2 ff        rst     38h
63d3 ff        rst     38h
63d4 ff        rst     38h
63d5 ff        rst     38h
63d6 ff        rst     38h
63d7 ff        rst     38h
63d8 ff        rst     38h
63d9 ff        rst     38h
63da ff        rst     38h
63db ff        rst     38h
63dc ff        rst     38h
63dd ff        rst     38h
63de ff        rst     38h
63df ff        rst     38h
63e0 ff        rst     38h
63e1 ff        rst     38h
63e2 ff        rst     38h
63e3 ff        rst     38h
63e4 ff        rst     38h
63e5 ff        rst     38h
63e6 ff        rst     38h
63e7 ff        rst     38h
63e8 ff        rst     38h
63e9 ff        rst     38h
63ea ff        rst     38h
63eb ff        rst     38h
63ec ff        rst     38h
63ed ff        rst     38h
63ee ff        rst     38h
63ef ff        rst     38h
63f0 ff        rst     38h
63f1 ff        rst     38h
63f2 ff        rst     38h
63f3 ff        rst     38h
63f4 ff        rst     38h
63f5 ff        rst     38h
63f6 ff        rst     38h
63f7 ff        rst     38h
63f8 ff        rst     38h
63f9 ff        rst     38h
63fa ff        rst     38h
63fb ff        rst     38h
63fc ff        rst     38h
63fd ff        rst     38h
63fe ff        rst     38h
63ff ff        rst     38h
6400 ff        rst     38h
6401 ff        rst     38h
6402 ff        rst     38h
6403 ff        rst     38h
6404 ff        rst     38h
6405 ff        rst     38h
6406 ff        rst     38h
6407 ff        rst     38h
6408 ff        rst     38h
6409 ff        rst     38h
640a ff        rst     38h
640b ff        rst     38h
640c ff        rst     38h
640d ff        rst     38h
640e ff        rst     38h
640f ff        rst     38h
6410 ff        rst     38h
6411 ff        rst     38h
6412 ff        rst     38h
6413 ff        rst     38h
6414 ff        rst     38h
6415 ff        rst     38h
6416 ff        rst     38h
6417 ff        rst     38h
6418 ff        rst     38h
6419 ff        rst     38h
641a ff        rst     38h
641b ff        rst     38h
641c ff        rst     38h
641d ff        rst     38h
641e ff        rst     38h
641f ff        rst     38h
6420 ff        rst     38h
6421 ff        rst     38h
6422 ff        rst     38h
6423 ff        rst     38h
6424 ff        rst     38h
6425 ff        rst     38h
6426 ff        rst     38h
6427 ff        rst     38h
6428 ff        rst     38h
6429 ff        rst     38h
642a ff        rst     38h
642b ff        rst     38h
642c ff        rst     38h
642d ff        rst     38h
642e ff        rst     38h
642f ff        rst     38h
6430 ff        rst     38h
6431 ff        rst     38h
6432 ff        rst     38h
6433 ff        rst     38h
6434 ff        rst     38h
6435 ff        rst     38h
6436 ff        rst     38h
6437 ff        rst     38h
6438 ff        rst     38h
6439 ff        rst     38h
643a ff        rst     38h
643b ff        rst     38h
643c ff        rst     38h
643d ff        rst     38h
643e ff        rst     38h
643f ff        rst     38h
6440 ff        rst     38h
6441 ff        rst     38h
6442 ff        rst     38h
6443 ff        rst     38h
6444 ff        rst     38h
6445 ff        rst     38h
6446 ff        rst     38h
6447 ff        rst     38h
6448 ff        rst     38h
6449 ff        rst     38h
644a ff        rst     38h
644b ff        rst     38h
644c ff        rst     38h
644d ff        rst     38h
644e ff        rst     38h
644f ff        rst     38h
6450 ff        rst     38h
6451 ff        rst     38h
6452 ff        rst     38h
6453 ff        rst     38h
6454 ff        rst     38h
6455 ff        rst     38h
6456 ff        rst     38h
6457 ff        rst     38h
6458 ff        rst     38h
6459 ff        rst     38h
645a ff        rst     38h
645b ff        rst     38h
645c ff        rst     38h
645d ff        rst     38h
645e ff        rst     38h
645f ff        rst     38h
6460 ff        rst     38h
6461 ff        rst     38h
6462 ff        rst     38h
6463 ff        rst     38h
6464 ff        rst     38h
6465 ff        rst     38h
6466 ff        rst     38h
6467 ff        rst     38h
6468 ff        rst     38h
6469 ff        rst     38h
646a ff        rst     38h
646b ff        rst     38h
646c ff        rst     38h
646d ff        rst     38h
646e ff        rst     38h
646f ff        rst     38h
6470 ff        rst     38h
6471 ff        rst     38h
6472 ff        rst     38h
6473 ff        rst     38h
6474 ff        rst     38h
6475 ff        rst     38h
6476 ff        rst     38h
6477 ff        rst     38h
6478 ff        rst     38h
6479 ff        rst     38h
647a ff        rst     38h
647b ff        rst     38h
647c ff        rst     38h
647d ff        rst     38h
647e ff        rst     38h
647f ff        rst     38h
6480 ff        rst     38h
6481 ff        rst     38h
6482 ff        rst     38h
6483 ff        rst     38h
6484 ff        rst     38h
6485 ff        rst     38h
6486 ff        rst     38h
6487 ff        rst     38h
6488 ff        rst     38h
6489 ff        rst     38h
648a ff        rst     38h
648b ff        rst     38h
648c ff        rst     38h
648d ff        rst     38h
648e ff        rst     38h
648f ff        rst     38h
6490 ff        rst     38h
6491 ff        rst     38h
6492 ff        rst     38h
6493 ff        rst     38h
6494 ff        rst     38h
6495 ff        rst     38h
6496 ff        rst     38h
6497 ff        rst     38h
6498 ff        rst     38h
6499 ff        rst     38h
649a ff        rst     38h
649b ff        rst     38h
649c ff        rst     38h
649d ff        rst     38h
649e ff        rst     38h
649f ff        rst     38h
64a0 ff        rst     38h
64a1 ff        rst     38h
64a2 ff        rst     38h
64a3 ff        rst     38h
64a4 ff        rst     38h
64a5 ff        rst     38h
64a6 ff        rst     38h
64a7 ff        rst     38h
64a8 ff        rst     38h
64a9 ff        rst     38h
64aa ff        rst     38h
64ab ff        rst     38h
64ac ff        rst     38h
64ad ff        rst     38h
64ae ff        rst     38h
64af ff        rst     38h
64b0 ff        rst     38h
64b1 ff        rst     38h
64b2 ff        rst     38h
64b3 ff        rst     38h
64b4 ff        rst     38h
64b5 ff        rst     38h
64b6 ff        rst     38h
64b7 ff        rst     38h
64b8 ff        rst     38h
64b9 ff        rst     38h
64ba ff        rst     38h
64bb ff        rst     38h
64bc ff        rst     38h
64bd ff        rst     38h
64be ff        rst     38h
64bf ff        rst     38h
64c0 ff        rst     38h
64c1 ff        rst     38h
64c2 ff        rst     38h
64c3 ff        rst     38h
64c4 ff        rst     38h
64c5 ff        rst     38h
64c6 ff        rst     38h
64c7 ff        rst     38h
64c8 ff        rst     38h
64c9 ff        rst     38h
64ca ff        rst     38h
64cb ff        rst     38h
64cc ff        rst     38h
64cd ff        rst     38h
64ce ff        rst     38h
64cf ff        rst     38h
64d0 ff        rst     38h
64d1 ff        rst     38h
64d2 ff        rst     38h
64d3 ff        rst     38h
64d4 ff        rst     38h
64d5 ff        rst     38h
64d6 ff        rst     38h
64d7 ff        rst     38h
64d8 ff        rst     38h
64d9 ff        rst     38h
64da ff        rst     38h
64db ff        rst     38h
64dc ff        rst     38h
64dd ff        rst     38h
64de ff        rst     38h
64df ff        rst     38h
64e0 ff        rst     38h
64e1 ff        rst     38h
64e2 ff        rst     38h
64e3 ff        rst     38h
64e4 ff        rst     38h
64e5 ff        rst     38h
64e6 ff        rst     38h
64e7 ff        rst     38h
64e8 ff        rst     38h
64e9 ff        rst     38h
64ea ff        rst     38h
64eb ff        rst     38h
64ec ff        rst     38h
64ed ff        rst     38h
64ee ff        rst     38h
64ef ff        rst     38h
64f0 ff        rst     38h
64f1 ff        rst     38h
64f2 ff        rst     38h
64f3 ff        rst     38h
64f4 ff        rst     38h
64f5 ff        rst     38h
64f6 ff        rst     38h
64f7 ff        rst     38h
64f8 ff        rst     38h
64f9 ff        rst     38h
64fa ff        rst     38h
64fb ff        rst     38h
64fc ff        rst     38h
64fd ff        rst     38h
64fe ff        rst     38h
64ff ff        rst     38h
6500 ff        rst     38h
6501 ff        rst     38h
6502 ff        rst     38h
6503 ff        rst     38h
6504 ff        rst     38h
6505 ff        rst     38h
6506 ff        rst     38h
6507 ff        rst     38h
6508 ff        rst     38h
6509 ff        rst     38h
650a ff        rst     38h
650b ff        rst     38h
650c ff        rst     38h
650d ff        rst     38h
650e ff        rst     38h
650f ff        rst     38h
6510 ff        rst     38h
6511 ff        rst     38h
6512 ff        rst     38h
6513 ff        rst     38h
6514 ff        rst     38h
6515 ff        rst     38h
6516 ff        rst     38h
6517 ff        rst     38h
6518 ff        rst     38h
6519 ff        rst     38h
651a ff        rst     38h
651b ff        rst     38h
651c ff        rst     38h
651d ff        rst     38h
651e ff        rst     38h
651f ff        rst     38h
6520 ff        rst     38h
6521 ff        rst     38h
6522 ff        rst     38h
6523 ff        rst     38h
6524 ff        rst     38h
6525 ff        rst     38h
6526 ff        rst     38h
6527 ff        rst     38h
6528 ff        rst     38h
6529 ff        rst     38h
652a ff        rst     38h
652b ff        rst     38h
652c ff        rst     38h
652d ff        rst     38h
652e ff        rst     38h
652f ff        rst     38h
6530 ff        rst     38h
6531 ff        rst     38h
6532 ff        rst     38h
6533 ff        rst     38h
6534 ff        rst     38h
6535 ff        rst     38h
6536 ff        rst     38h
6537 ff        rst     38h
6538 ff        rst     38h
6539 ff        rst     38h
653a ff        rst     38h
653b ff        rst     38h
653c ff        rst     38h
653d ff        rst     38h
653e ff        rst     38h
653f ff        rst     38h
6540 ff        rst     38h
6541 ff        rst     38h
6542 ff        rst     38h
6543 ff        rst     38h
6544 ff        rst     38h
6545 ff        rst     38h
6546 ff        rst     38h
6547 ff        rst     38h
6548 ff        rst     38h
6549 ff        rst     38h
654a ff        rst     38h
654b ff        rst     38h
654c ff        rst     38h
654d ff        rst     38h
654e ff        rst     38h
654f ff        rst     38h
6550 ff        rst     38h
6551 ff        rst     38h
6552 ff        rst     38h
6553 ff        rst     38h
6554 ff        rst     38h
6555 ff        rst     38h
6556 ff        rst     38h
6557 ff        rst     38h
6558 ff        rst     38h
6559 ff        rst     38h
655a ff        rst     38h
655b ff        rst     38h
655c ff        rst     38h
655d ff        rst     38h
655e ff        rst     38h
655f ff        rst     38h
6560 ff        rst     38h
6561 ff        rst     38h
6562 ff        rst     38h
6563 ff        rst     38h
6564 ff        rst     38h
6565 ff        rst     38h
6566 ff        rst     38h
6567 ff        rst     38h
6568 ff        rst     38h
6569 ff        rst     38h
656a ff        rst     38h
656b ff        rst     38h
656c ff        rst     38h
656d ff        rst     38h
656e ff        rst     38h
656f ff        rst     38h
6570 ff        rst     38h
6571 ff        rst     38h
6572 ff        rst     38h
6573 ff        rst     38h
6574 ff        rst     38h
6575 ff        rst     38h
6576 ff        rst     38h
6577 ff        rst     38h
6578 ff        rst     38h
6579 ff        rst     38h
657a ff        rst     38h
657b ff        rst     38h
657c ff        rst     38h
657d ff        rst     38h
657e ff        rst     38h
657f ff        rst     38h
6580 ff        rst     38h
6581 ff        rst     38h
6582 ff        rst     38h
6583 ff        rst     38h
6584 ff        rst     38h
6585 ff        rst     38h
6586 ff        rst     38h
6587 ff        rst     38h
6588 ff        rst     38h
6589 ff        rst     38h
658a ff        rst     38h
658b ff        rst     38h
658c ff        rst     38h
658d ff        rst     38h
658e ff        rst     38h
658f ff        rst     38h
6590 ff        rst     38h
6591 ff        rst     38h
6592 ff        rst     38h
6593 ff        rst     38h
6594 ff        rst     38h
6595 ff        rst     38h
6596 ff        rst     38h
6597 ff        rst     38h
6598 ff        rst     38h
6599 ff        rst     38h
659a ff        rst     38h
659b ff        rst     38h
659c ff        rst     38h
659d ff        rst     38h
659e ff        rst     38h
659f ff        rst     38h
65a0 ff        rst     38h
65a1 ff        rst     38h
65a2 ff        rst     38h
65a3 ff        rst     38h
65a4 ff        rst     38h
65a5 ff        rst     38h
65a6 ff        rst     38h
65a7 ff        rst     38h
65a8 ff        rst     38h
65a9 ff        rst     38h
65aa ff        rst     38h
65ab ff        rst     38h
65ac ff        rst     38h
65ad ff        rst     38h
65ae ff        rst     38h
65af ff        rst     38h
65b0 ff        rst     38h
65b1 ff        rst     38h
65b2 ff        rst     38h
65b3 ff        rst     38h
65b4 ff        rst     38h
65b5 ff        rst     38h
65b6 ff        rst     38h
65b7 ff        rst     38h
65b8 ff        rst     38h
65b9 ff        rst     38h
65ba ff        rst     38h
65bb ff        rst     38h
65bc ff        rst     38h
65bd ff        rst     38h
65be ff        rst     38h
65bf ff        rst     38h
65c0 ff        rst     38h
65c1 ff        rst     38h
65c2 ff        rst     38h
65c3 ff        rst     38h
65c4 ff        rst     38h
65c5 ff        rst     38h
65c6 ff        rst     38h
65c7 ff        rst     38h
65c8 ff        rst     38h
65c9 ff        rst     38h
65ca ff        rst     38h
65cb ff        rst     38h
65cc ff        rst     38h
65cd ff        rst     38h
65ce ff        rst     38h
65cf ff        rst     38h
65d0 ff        rst     38h
65d1 ff        rst     38h
65d2 ff        rst     38h
65d3 ff        rst     38h
65d4 ff        rst     38h
65d5 ff        rst     38h
65d6 ff        rst     38h
65d7 ff        rst     38h
65d8 ff        rst     38h
65d9 ff        rst     38h
65da ff        rst     38h
65db ff        rst     38h
65dc ff        rst     38h
65dd ff        rst     38h
65de ff        rst     38h
65df ff        rst     38h
65e0 ff        rst     38h
65e1 ff        rst     38h
65e2 ff        rst     38h
65e3 ff        rst     38h
65e4 ff        rst     38h
65e5 ff        rst     38h
65e6 ff        rst     38h
65e7 ff        rst     38h
65e8 ff        rst     38h
65e9 ff        rst     38h
65ea ff        rst     38h
65eb ff        rst     38h
65ec ff        rst     38h
65ed ff        rst     38h
65ee ff        rst     38h
65ef ff        rst     38h
65f0 ff        rst     38h
65f1 ff        rst     38h
65f2 ff        rst     38h
65f3 ff        rst     38h
65f4 ff        rst     38h
65f5 ff        rst     38h
65f6 ff        rst     38h
65f7 ff        rst     38h
65f8 ff        rst     38h
65f9 ff        rst     38h
65fa ff        rst     38h
65fb ff        rst     38h
65fc ff        rst     38h
65fd ff        rst     38h
65fe ff        rst     38h
65ff ff        rst     38h
6600 ff        rst     38h
6601 ff        rst     38h
6602 ff        rst     38h
6603 ff        rst     38h
6604 ff        rst     38h
6605 ff        rst     38h
6606 ff        rst     38h
6607 ff        rst     38h
6608 ff        rst     38h
6609 ff        rst     38h
660a ff        rst     38h
660b ff        rst     38h
660c ff        rst     38h
660d ff        rst     38h
660e ff        rst     38h
660f ff        rst     38h
6610 ff        rst     38h
6611 ff        rst     38h
6612 ff        rst     38h
6613 ff        rst     38h
6614 ff        rst     38h
6615 ff        rst     38h
6616 ff        rst     38h
6617 ff        rst     38h
6618 ff        rst     38h
6619 ff        rst     38h
661a ff        rst     38h
661b ff        rst     38h
661c ff        rst     38h
661d ff        rst     38h
661e ff        rst     38h
661f ff        rst     38h
6620 ff        rst     38h
6621 ff        rst     38h
6622 ff        rst     38h
6623 ff        rst     38h
6624 ff        rst     38h
6625 ff        rst     38h
6626 ff        rst     38h
6627 ff        rst     38h
6628 ff        rst     38h
6629 ff        rst     38h
662a ff        rst     38h
662b ff        rst     38h
662c ff        rst     38h
662d ff        rst     38h
662e ff        rst     38h
662f ff        rst     38h
6630 ff        rst     38h
6631 ff        rst     38h
6632 ff        rst     38h
6633 ff        rst     38h
6634 ff        rst     38h
6635 ff        rst     38h
6636 ff        rst     38h
6637 ff        rst     38h
6638 ff        rst     38h
6639 ff        rst     38h
663a ff        rst     38h
663b ff        rst     38h
663c ff        rst     38h
663d ff        rst     38h
663e ff        rst     38h
663f ff        rst     38h
6640 ff        rst     38h
6641 ff        rst     38h
6642 ff        rst     38h
6643 ff        rst     38h
6644 ff        rst     38h
6645 ff        rst     38h
6646 ff        rst     38h
6647 ff        rst     38h
6648 ff        rst     38h
6649 ff        rst     38h
664a ff        rst     38h
664b ff        rst     38h
664c ff        rst     38h
664d ff        rst     38h
664e ff        rst     38h
664f ff        rst     38h
6650 ff        rst     38h
6651 ff        rst     38h
6652 ff        rst     38h
6653 ff        rst     38h
6654 ff        rst     38h
6655 ff        rst     38h
6656 ff        rst     38h
6657 ff        rst     38h
6658 ff        rst     38h
6659 ff        rst     38h
665a ff        rst     38h
665b ff        rst     38h
665c ff        rst     38h
665d ff        rst     38h
665e ff        rst     38h
665f ff        rst     38h
6660 ff        rst     38h
6661 ff        rst     38h
6662 ff        rst     38h
6663 ff        rst     38h
6664 ff        rst     38h
6665 ff        rst     38h
6666 ff        rst     38h
6667 ff        rst     38h
6668 ff        rst     38h
6669 ff        rst     38h
666a ff        rst     38h
666b ff        rst     38h
666c ff        rst     38h
666d ff        rst     38h
666e ff        rst     38h
666f ff        rst     38h
6670 ff        rst     38h
6671 ff        rst     38h
6672 ff        rst     38h
6673 ff        rst     38h
6674 ff        rst     38h
6675 ff        rst     38h
6676 ff        rst     38h
6677 ff        rst     38h
6678 ff        rst     38h
6679 ff        rst     38h
667a ff        rst     38h
667b ff        rst     38h
667c ff        rst     38h
667d ff        rst     38h
667e ff        rst     38h
667f ff        rst     38h
6680 ff        rst     38h
6681 ff        rst     38h
6682 ff        rst     38h
6683 ff        rst     38h
6684 ff        rst     38h
6685 ff        rst     38h
6686 ff        rst     38h
6687 ff        rst     38h
6688 ff        rst     38h
6689 ff        rst     38h
668a ff        rst     38h
668b ff        rst     38h
668c ff        rst     38h
668d ff        rst     38h
668e ff        rst     38h
668f ff        rst     38h
6690 ff        rst     38h
6691 ff        rst     38h
6692 ff        rst     38h
6693 ff        rst     38h
6694 ff        rst     38h
6695 ff        rst     38h
6696 ff        rst     38h
6697 ff        rst     38h
6698 ff        rst     38h
6699 ff        rst     38h
669a ff        rst     38h
669b ff        rst     38h
669c ff        rst     38h
669d ff        rst     38h
669e ff        rst     38h
669f ff        rst     38h
66a0 ff        rst     38h
66a1 ff        rst     38h
66a2 ff        rst     38h
66a3 ff        rst     38h
66a4 ff        rst     38h
66a5 ff        rst     38h
66a6 ff        rst     38h
66a7 ff        rst     38h
66a8 ff        rst     38h
66a9 ff        rst     38h
66aa ff        rst     38h
66ab ff        rst     38h
66ac ff        rst     38h
66ad ff        rst     38h
66ae ff        rst     38h
66af ff        rst     38h
66b0 ff        rst     38h
66b1 ff        rst     38h
66b2 ff        rst     38h
66b3 ff        rst     38h
66b4 ff        rst     38h
66b5 ff        rst     38h
66b6 ff        rst     38h
66b7 ff        rst     38h
66b8 ff        rst     38h
66b9 ff        rst     38h
66ba ff        rst     38h
66bb ff        rst     38h
66bc ff        rst     38h
66bd ff        rst     38h
66be ff        rst     38h
66bf ff        rst     38h
66c0 ff        rst     38h
66c1 ff        rst     38h
66c2 ff        rst     38h
66c3 ff        rst     38h
66c4 ff        rst     38h
66c5 ff        rst     38h
66c6 ff        rst     38h
66c7 ff        rst     38h
66c8 ff        rst     38h
66c9 ff        rst     38h
66ca ff        rst     38h
66cb ff        rst     38h
66cc ff        rst     38h
66cd ff        rst     38h
66ce ff        rst     38h
66cf ff        rst     38h
66d0 ff        rst     38h
66d1 ff        rst     38h
66d2 ff        rst     38h
66d3 ff        rst     38h
66d4 ff        rst     38h
66d5 ff        rst     38h
66d6 ff        rst     38h
66d7 ff        rst     38h
66d8 ff        rst     38h
66d9 ff        rst     38h
66da ff        rst     38h
66db ff        rst     38h
66dc ff        rst     38h
66dd ff        rst     38h
66de ff        rst     38h
66df ff        rst     38h
66e0 ff        rst     38h
66e1 ff        rst     38h
66e2 ff        rst     38h
66e3 ff        rst     38h
66e4 ff        rst     38h
66e5 ff        rst     38h
66e6 ff        rst     38h
66e7 ff        rst     38h
66e8 ff        rst     38h
66e9 ff        rst     38h
66ea ff        rst     38h
66eb ff        rst     38h
66ec ff        rst     38h
66ed ff        rst     38h
66ee ff        rst     38h
66ef ff        rst     38h
66f0 ff        rst     38h
66f1 ff        rst     38h
66f2 ff        rst     38h
66f3 ff        rst     38h
66f4 ff        rst     38h
66f5 ff        rst     38h
66f6 ff        rst     38h
66f7 ff        rst     38h
66f8 ff        rst     38h
66f9 ff        rst     38h
66fa ff        rst     38h
66fb ff        rst     38h
66fc ff        rst     38h
66fd ff        rst     38h
66fe ff        rst     38h
66ff ff        rst     38h
6700 ff        rst     38h
6701 ff        rst     38h
6702 ff        rst     38h
6703 ff        rst     38h
6704 ff        rst     38h
6705 ff        rst     38h
6706 ff        rst     38h
6707 ff        rst     38h
6708 ff        rst     38h
6709 ff        rst     38h
670a ff        rst     38h
670b ff        rst     38h
670c ff        rst     38h
670d ff        rst     38h
670e ff        rst     38h
670f ff        rst     38h
6710 ff        rst     38h
6711 ff        rst     38h
6712 ff        rst     38h
6713 ff        rst     38h
6714 ff        rst     38h
6715 ff        rst     38h
6716 ff        rst     38h
6717 ff        rst     38h
6718 ff        rst     38h
6719 ff        rst     38h
671a ff        rst     38h
671b ff        rst     38h
671c ff        rst     38h
671d ff        rst     38h
671e ff        rst     38h
671f ff        rst     38h
6720 ff        rst     38h
6721 ff        rst     38h
6722 ff        rst     38h
6723 ff        rst     38h
6724 ff        rst     38h
6725 ff        rst     38h
6726 ff        rst     38h
6727 ff        rst     38h
6728 ff        rst     38h
6729 ff        rst     38h
672a ff        rst     38h
672b ff        rst     38h
672c ff        rst     38h
672d ff        rst     38h
672e ff        rst     38h
672f ff        rst     38h
6730 ff        rst     38h
6731 ff        rst     38h
6732 ff        rst     38h
6733 ff        rst     38h
6734 ff        rst     38h
6735 ff        rst     38h
6736 ff        rst     38h
6737 ff        rst     38h
6738 ff        rst     38h
6739 ff        rst     38h
673a ff        rst     38h
673b ff        rst     38h
673c ff        rst     38h
673d ff        rst     38h
673e ff        rst     38h
673f ff        rst     38h
6740 ff        rst     38h
6741 ff        rst     38h
6742 ff        rst     38h
6743 ff        rst     38h
6744 ff        rst     38h
6745 ff        rst     38h
6746 ff        rst     38h
6747 ff        rst     38h
6748 ff        rst     38h
6749 ff        rst     38h
674a ff        rst     38h
674b ff        rst     38h
674c ff        rst     38h
674d ff        rst     38h
674e ff        rst     38h
674f ff        rst     38h
6750 ff        rst     38h
6751 ff        rst     38h
6752 ff        rst     38h
6753 ff        rst     38h
6754 ff        rst     38h
6755 ff        rst     38h
6756 ff        rst     38h
6757 ff        rst     38h
6758 ff        rst     38h
6759 ff        rst     38h
675a ff        rst     38h
675b ff        rst     38h
675c ff        rst     38h
675d ff        rst     38h
675e ff        rst     38h
675f ff        rst     38h
6760 ff        rst     38h
6761 ff        rst     38h
6762 ff        rst     38h
6763 ff        rst     38h
6764 ff        rst     38h
6765 ff        rst     38h
6766 ff        rst     38h
6767 ff        rst     38h
6768 ff        rst     38h
6769 ff        rst     38h
676a ff        rst     38h
676b ff        rst     38h
676c ff        rst     38h
676d ff        rst     38h
676e ff        rst     38h
676f ff        rst     38h
6770 ff        rst     38h
6771 ff        rst     38h
6772 ff        rst     38h
6773 ff        rst     38h
6774 ff        rst     38h
6775 ff        rst     38h
6776 ff        rst     38h
6777 ff        rst     38h
6778 ff        rst     38h
6779 ff        rst     38h
677a ff        rst     38h
677b ff        rst     38h
677c ff        rst     38h
677d ff        rst     38h
677e ff        rst     38h
677f ff        rst     38h
6780 ff        rst     38h
6781 ff        rst     38h
6782 ff        rst     38h
6783 ff        rst     38h
6784 ff        rst     38h
6785 ff        rst     38h
6786 ff        rst     38h
6787 ff        rst     38h
6788 ff        rst     38h
6789 ff        rst     38h
678a ff        rst     38h
678b ff        rst     38h
678c ff        rst     38h
678d ff        rst     38h
678e ff        rst     38h
678f ff        rst     38h
6790 ff        rst     38h
6791 ff        rst     38h
6792 ff        rst     38h
6793 ff        rst     38h
6794 ff        rst     38h
6795 ff        rst     38h
6796 ff        rst     38h
6797 ff        rst     38h
6798 ff        rst     38h
6799 ff        rst     38h
679a ff        rst     38h
679b ff        rst     38h
679c ff        rst     38h
679d ff        rst     38h
679e ff        rst     38h
679f ff        rst     38h
67a0 ff        rst     38h
67a1 ff        rst     38h
67a2 ff        rst     38h
67a3 ff        rst     38h
67a4 ff        rst     38h
67a5 ff        rst     38h
67a6 ff        rst     38h
67a7 ff        rst     38h
67a8 ff        rst     38h
67a9 ff        rst     38h
67aa ff        rst     38h
67ab ff        rst     38h
67ac ff        rst     38h
67ad ff        rst     38h
67ae ff        rst     38h
67af ff        rst     38h
67b0 ff        rst     38h
67b1 ff        rst     38h
67b2 ff        rst     38h
67b3 ff        rst     38h
67b4 ff        rst     38h
67b5 ff        rst     38h
67b6 ff        rst     38h
67b7 ff        rst     38h
67b8 ff        rst     38h
67b9 ff        rst     38h
67ba ff        rst     38h
67bb ff        rst     38h
67bc ff        rst     38h
67bd ff        rst     38h
67be ff        rst     38h
67bf ff        rst     38h
67c0 ff        rst     38h
67c1 ff        rst     38h
67c2 ff        rst     38h
67c3 ff        rst     38h
67c4 ff        rst     38h
67c5 ff        rst     38h
67c6 ff        rst     38h
67c7 ff        rst     38h
67c8 ff        rst     38h
67c9 ff        rst     38h
67ca ff        rst     38h
67cb ff        rst     38h
67cc ff        rst     38h
67cd ff        rst     38h
67ce ff        rst     38h
67cf ff        rst     38h
67d0 ff        rst     38h
67d1 ff        rst     38h
67d2 ff        rst     38h
67d3 ff        rst     38h
67d4 ff        rst     38h
67d5 ff        rst     38h
67d6 ff        rst     38h
67d7 ff        rst     38h
67d8 ff        rst     38h
67d9 ff        rst     38h
67da ff        rst     38h
67db ff        rst     38h
67dc ff        rst     38h
67dd ff        rst     38h
67de ff        rst     38h
67df ff        rst     38h
67e0 ff        rst     38h
67e1 ff        rst     38h
67e2 ff        rst     38h
67e3 ff        rst     38h
67e4 ff        rst     38h
67e5 ff        rst     38h
67e6 ff        rst     38h
67e7 ff        rst     38h
67e8 ff        rst     38h
67e9 ff        rst     38h
67ea ff        rst     38h
67eb ff        rst     38h
67ec ff        rst     38h
67ed ff        rst     38h
67ee ff        rst     38h
67ef ff        rst     38h
67f0 ff        rst     38h
67f1 ff        rst     38h
67f2 ff        rst     38h
67f3 ff        rst     38h
67f4 ff        rst     38h
67f5 ff        rst     38h
67f6 ff        rst     38h
67f7 ff        rst     38h
67f8 ff        rst     38h
67f9 ff        rst     38h
67fa ff        rst     38h
67fb ff        rst     38h
67fc ff        rst     38h
67fd ff        rst     38h
67fe ff        rst     38h
67ff ff        rst     38h
6800 ff        rst     38h
6801 ff        rst     38h
6802 ff        rst     38h
6803 ff        rst     38h
6804 ff        rst     38h
6805 ff        rst     38h
6806 ff        rst     38h
6807 ff        rst     38h
6808 ff        rst     38h
6809 ff        rst     38h
680a ff        rst     38h
680b ff        rst     38h
680c ff        rst     38h
680d ff        rst     38h
680e ff        rst     38h
680f ff        rst     38h
6810 ff        rst     38h
6811 ff        rst     38h
6812 ff        rst     38h
6813 ff        rst     38h
6814 ff        rst     38h
6815 ff        rst     38h
6816 ff        rst     38h
6817 ff        rst     38h
6818 ff        rst     38h
6819 ff        rst     38h
681a ff        rst     38h
681b ff        rst     38h
681c ff        rst     38h
681d ff        rst     38h
681e ff        rst     38h
681f ff        rst     38h
6820 ff        rst     38h
6821 ff        rst     38h
6822 ff        rst     38h
6823 ff        rst     38h
6824 ff        rst     38h
6825 ff        rst     38h
6826 ff        rst     38h
6827 ff        rst     38h
6828 ff        rst     38h
6829 ff        rst     38h
682a ff        rst     38h
682b ff        rst     38h
682c ff        rst     38h
682d ff        rst     38h
682e ff        rst     38h
682f ff        rst     38h
6830 ff        rst     38h
6831 ff        rst     38h
6832 ff        rst     38h
6833 ff        rst     38h
6834 ff        rst     38h
6835 ff        rst     38h
6836 ff        rst     38h
6837 ff        rst     38h
6838 ff        rst     38h
6839 ff        rst     38h
683a ff        rst     38h
683b ff        rst     38h
683c ff        rst     38h
683d ff        rst     38h
683e ff        rst     38h
683f ff        rst     38h
6840 ff        rst     38h
6841 ff        rst     38h
6842 ff        rst     38h
6843 ff        rst     38h
6844 ff        rst     38h
6845 ff        rst     38h
6846 ff        rst     38h
6847 ff        rst     38h
6848 ff        rst     38h
6849 ff        rst     38h
684a ff        rst     38h
684b ff        rst     38h
684c ff        rst     38h
684d ff        rst     38h
684e ff        rst     38h
684f ff        rst     38h
6850 ff        rst     38h
6851 ff        rst     38h
6852 ff        rst     38h
6853 ff        rst     38h
6854 ff        rst     38h
6855 ff        rst     38h
6856 ff        rst     38h
6857 ff        rst     38h
6858 ff        rst     38h
6859 ff        rst     38h
685a ff        rst     38h
685b ff        rst     38h
685c ff        rst     38h
685d ff        rst     38h
685e ff        rst     38h
685f ff        rst     38h
6860 ff        rst     38h
6861 ff        rst     38h
6862 ff        rst     38h
6863 ff        rst     38h
6864 ff        rst     38h
6865 ff        rst     38h
6866 ff        rst     38h
6867 ff        rst     38h
6868 ff        rst     38h
6869 ff        rst     38h
686a ff        rst     38h
686b ff        rst     38h
686c ff        rst     38h
686d ff        rst     38h
686e ff        rst     38h
686f ff        rst     38h
6870 ff        rst     38h
6871 ff        rst     38h
6872 ff        rst     38h
6873 ff        rst     38h
6874 ff        rst     38h
6875 ff        rst     38h
6876 ff        rst     38h
6877 ff        rst     38h
6878 ff        rst     38h
6879 ff        rst     38h
687a ff        rst     38h
687b ff        rst     38h
687c ff        rst     38h
687d ff        rst     38h
687e ff        rst     38h
687f ff        rst     38h
6880 ff        rst     38h
6881 ff        rst     38h
6882 ff        rst     38h
6883 ff        rst     38h
6884 ff        rst     38h
6885 ff        rst     38h
6886 ff        rst     38h
6887 ff        rst     38h
6888 ff        rst     38h
6889 ff        rst     38h
688a ff        rst     38h
688b ff        rst     38h
688c ff        rst     38h
688d ff        rst     38h
688e ff        rst     38h
688f ff        rst     38h
6890 ff        rst     38h
6891 ff        rst     38h
6892 ff        rst     38h
6893 ff        rst     38h
6894 ff        rst     38h
6895 ff        rst     38h
6896 ff        rst     38h
6897 ff        rst     38h
6898 ff        rst     38h
6899 ff        rst     38h
689a ff        rst     38h
689b ff        rst     38h
689c ff        rst     38h
689d ff        rst     38h
689e ff        rst     38h
689f ff        rst     38h
68a0 ff        rst     38h
68a1 ff        rst     38h
68a2 ff        rst     38h
68a3 ff        rst     38h
68a4 ff        rst     38h
68a5 ff        rst     38h
68a6 ff        rst     38h
68a7 ff        rst     38h
68a8 ff        rst     38h
68a9 ff        rst     38h
68aa ff        rst     38h
68ab ff        rst     38h
68ac ff        rst     38h
68ad ff        rst     38h
68ae ff        rst     38h
68af ff        rst     38h
68b0 ff        rst     38h
68b1 ff        rst     38h
68b2 ff        rst     38h
68b3 ff        rst     38h
68b4 ff        rst     38h
68b5 ff        rst     38h
68b6 ff        rst     38h
68b7 ff        rst     38h
68b8 ff        rst     38h
68b9 ff        rst     38h
68ba ff        rst     38h
68bb ff        rst     38h
68bc ff        rst     38h
68bd ff        rst     38h
68be ff        rst     38h
68bf ff        rst     38h
68c0 ff        rst     38h
68c1 ff        rst     38h
68c2 ff        rst     38h
68c3 ff        rst     38h
68c4 ff        rst     38h
68c5 ff        rst     38h
68c6 ff        rst     38h
68c7 ff        rst     38h
68c8 ff        rst     38h
68c9 ff        rst     38h
68ca ff        rst     38h
68cb ff        rst     38h
68cc ff        rst     38h
68cd ff        rst     38h
68ce ff        rst     38h
68cf ff        rst     38h
68d0 ff        rst     38h
68d1 ff        rst     38h
68d2 ff        rst     38h
68d3 ff        rst     38h
68d4 ff        rst     38h
68d5 ff        rst     38h
68d6 ff        rst     38h
68d7 ff        rst     38h
68d8 ff        rst     38h
68d9 ff        rst     38h
68da ff        rst     38h
68db ff        rst     38h
68dc ff        rst     38h
68dd ff        rst     38h
68de ff        rst     38h
68df ff        rst     38h
68e0 ff        rst     38h
68e1 ff        rst     38h
68e2 ff        rst     38h
68e3 ff        rst     38h
68e4 ff        rst     38h
68e5 ff        rst     38h
68e6 ff        rst     38h
68e7 ff        rst     38h
68e8 ff        rst     38h
68e9 ff        rst     38h
68ea ff        rst     38h
68eb ff        rst     38h
68ec ff        rst     38h
68ed ff        rst     38h
68ee ff        rst     38h
68ef ff        rst     38h
68f0 ff        rst     38h
68f1 ff        rst     38h
68f2 ff        rst     38h
68f3 ff        rst     38h
68f4 ff        rst     38h
68f5 ff        rst     38h
68f6 ff        rst     38h
68f7 ff        rst     38h
68f8 ff        rst     38h
68f9 ff        rst     38h
68fa ff        rst     38h
68fb ff        rst     38h
68fc ff        rst     38h
68fd ff        rst     38h
68fe ff        rst     38h
68ff ff        rst     38h
6900 ff        rst     38h
6901 ff        rst     38h
6902 ff        rst     38h
6903 ff        rst     38h
6904 ff        rst     38h
6905 ff        rst     38h
6906 ff        rst     38h
6907 ff        rst     38h
6908 ff        rst     38h
6909 ff        rst     38h
690a ff        rst     38h
690b ff        rst     38h
690c ff        rst     38h
690d ff        rst     38h
690e ff        rst     38h
690f ff        rst     38h
6910 ff        rst     38h
6911 ff        rst     38h
6912 ff        rst     38h
6913 ff        rst     38h
6914 ff        rst     38h
6915 ff        rst     38h
6916 ff        rst     38h
6917 ff        rst     38h
6918 ff        rst     38h
6919 ff        rst     38h
691a ff        rst     38h
691b ff        rst     38h
691c ff        rst     38h
691d ff        rst     38h
691e ff        rst     38h
691f ff        rst     38h
6920 ff        rst     38h
6921 ff        rst     38h
6922 ff        rst     38h
6923 ff        rst     38h
6924 ff        rst     38h
6925 ff        rst     38h
6926 ff        rst     38h
6927 ff        rst     38h
6928 ff        rst     38h
6929 ff        rst     38h
692a ff        rst     38h
692b ff        rst     38h
692c ff        rst     38h
692d ff        rst     38h
692e ff        rst     38h
692f ff        rst     38h
6930 ff        rst     38h
6931 ff        rst     38h
6932 ff        rst     38h
6933 ff        rst     38h
6934 ff        rst     38h
6935 ff        rst     38h
6936 ff        rst     38h
6937 ff        rst     38h
6938 ff        rst     38h
6939 ff        rst     38h
693a ff        rst     38h
693b ff        rst     38h
693c ff        rst     38h
693d ff        rst     38h
693e ff        rst     38h
693f ff        rst     38h
6940 ff        rst     38h
6941 ff        rst     38h
6942 ff        rst     38h
6943 ff        rst     38h
6944 ff        rst     38h
6945 ff        rst     38h
6946 ff        rst     38h
6947 ff        rst     38h
6948 ff        rst     38h
6949 ff        rst     38h
694a ff        rst     38h
694b ff        rst     38h
694c ff        rst     38h
694d ff        rst     38h
694e ff        rst     38h
694f ff        rst     38h
6950 ff        rst     38h
6951 ff        rst     38h
6952 ff        rst     38h
6953 ff        rst     38h
6954 ff        rst     38h
6955 ff        rst     38h
6956 ff        rst     38h
6957 ff        rst     38h
6958 ff        rst     38h
6959 ff        rst     38h
695a ff        rst     38h
695b ff        rst     38h
695c ff        rst     38h
695d ff        rst     38h
695e ff        rst     38h
695f ff        rst     38h
6960 ff        rst     38h
6961 ff        rst     38h
6962 ff        rst     38h
6963 ff        rst     38h
6964 ff        rst     38h
6965 ff        rst     38h
6966 ff        rst     38h
6967 ff        rst     38h
6968 ff        rst     38h
6969 ff        rst     38h
696a ff        rst     38h
696b ff        rst     38h
696c ff        rst     38h
696d ff        rst     38h
696e ff        rst     38h
696f ff        rst     38h
6970 ff        rst     38h
6971 ff        rst     38h
6972 ff        rst     38h
6973 ff        rst     38h
6974 ff        rst     38h
6975 ff        rst     38h
6976 ff        rst     38h
6977 ff        rst     38h
6978 ff        rst     38h
6979 ff        rst     38h
697a ff        rst     38h
697b ff        rst     38h
697c ff        rst     38h
697d ff        rst     38h
697e ff        rst     38h
697f ff        rst     38h
6980 ff        rst     38h
6981 ff        rst     38h
6982 ff        rst     38h
6983 ff        rst     38h
6984 ff        rst     38h
6985 ff        rst     38h
6986 ff        rst     38h
6987 ff        rst     38h
6988 ff        rst     38h
6989 ff        rst     38h
698a ff        rst     38h
698b ff        rst     38h
698c ff        rst     38h
698d ff        rst     38h
698e ff        rst     38h
698f ff        rst     38h
6990 ff        rst     38h
6991 ff        rst     38h
6992 ff        rst     38h
6993 ff        rst     38h
6994 ff        rst     38h
6995 ff        rst     38h
6996 ff        rst     38h
6997 ff        rst     38h
6998 ff        rst     38h
6999 ff        rst     38h
699a ff        rst     38h
699b ff        rst     38h
699c ff        rst     38h
699d ff        rst     38h
699e ff        rst     38h
699f ff        rst     38h
69a0 ff        rst     38h
69a1 ff        rst     38h
69a2 ff        rst     38h
69a3 ff        rst     38h
69a4 ff        rst     38h
69a5 ff        rst     38h
69a6 ff        rst     38h
69a7 ff        rst     38h
69a8 ff        rst     38h
69a9 ff        rst     38h
69aa ff        rst     38h
69ab ff        rst     38h
69ac ff        rst     38h
69ad ff        rst     38h
69ae ff        rst     38h
69af ff        rst     38h
69b0 ff        rst     38h
69b1 ff        rst     38h
69b2 ff        rst     38h
69b3 ff        rst     38h
69b4 ff        rst     38h
69b5 ff        rst     38h
69b6 ff        rst     38h
69b7 ff        rst     38h
69b8 ff        rst     38h
69b9 ff        rst     38h
69ba ff        rst     38h
69bb ff        rst     38h
69bc ff        rst     38h
69bd ff        rst     38h
69be ff        rst     38h
69bf ff        rst     38h
69c0 ff        rst     38h
69c1 ff        rst     38h
69c2 ff        rst     38h
69c3 ff        rst     38h
69c4 ff        rst     38h
69c5 ff        rst     38h
69c6 ff        rst     38h
69c7 ff        rst     38h
69c8 ff        rst     38h
69c9 ff        rst     38h
69ca ff        rst     38h
69cb ff        rst     38h
69cc ff        rst     38h
69cd ff        rst     38h
69ce ff        rst     38h
69cf ff        rst     38h
69d0 ff        rst     38h
69d1 ff        rst     38h
69d2 ff        rst     38h
69d3 ff        rst     38h
69d4 ff        rst     38h
69d5 ff        rst     38h
69d6 ff        rst     38h
69d7 ff        rst     38h
69d8 ff        rst     38h
69d9 ff        rst     38h
69da ff        rst     38h
69db ff        rst     38h
69dc ff        rst     38h
69dd ff        rst     38h
69de ff        rst     38h
69df ff        rst     38h
69e0 ff        rst     38h
69e1 ff        rst     38h
69e2 ff        rst     38h
69e3 ff        rst     38h
69e4 ff        rst     38h
69e5 ff        rst     38h
69e6 ff        rst     38h
69e7 ff        rst     38h
69e8 ff        rst     38h
69e9 ff        rst     38h
69ea ff        rst     38h
69eb ff        rst     38h
69ec ff        rst     38h
69ed ff        rst     38h
69ee ff        rst     38h
69ef ff        rst     38h
69f0 ff        rst     38h
69f1 ff        rst     38h
69f2 ff        rst     38h
69f3 ff        rst     38h
69f4 ff        rst     38h
69f5 ff        rst     38h
69f6 ff        rst     38h
69f7 ff        rst     38h
69f8 ff        rst     38h
69f9 ff        rst     38h
69fa ff        rst     38h
69fb ff        rst     38h
69fc ff        rst     38h
69fd ff        rst     38h
69fe ff        rst     38h
69ff ff        rst     38h
6a00 ff        rst     38h
6a01 ff        rst     38h
6a02 ff        rst     38h
6a03 ff        rst     38h
6a04 ff        rst     38h
6a05 ff        rst     38h
6a06 ff        rst     38h
6a07 ff        rst     38h
6a08 ff        rst     38h
6a09 ff        rst     38h
6a0a ff        rst     38h
6a0b ff        rst     38h
6a0c ff        rst     38h
6a0d ff        rst     38h
6a0e ff        rst     38h
6a0f ff        rst     38h
6a10 ff        rst     38h
6a11 ff        rst     38h
6a12 ff        rst     38h
6a13 ff        rst     38h
6a14 ff        rst     38h
6a15 ff        rst     38h
6a16 ff        rst     38h
6a17 ff        rst     38h
6a18 ff        rst     38h
6a19 ff        rst     38h
6a1a ff        rst     38h
6a1b ff        rst     38h
6a1c ff        rst     38h
6a1d ff        rst     38h
6a1e ff        rst     38h
6a1f ff        rst     38h
6a20 ff        rst     38h
6a21 ff        rst     38h
6a22 ff        rst     38h
6a23 ff        rst     38h
6a24 ff        rst     38h
6a25 ff        rst     38h
6a26 ff        rst     38h
6a27 ff        rst     38h
6a28 ff        rst     38h
6a29 ff        rst     38h
6a2a ff        rst     38h
6a2b ff        rst     38h
6a2c ff        rst     38h
6a2d ff        rst     38h
6a2e ff        rst     38h
6a2f ff        rst     38h
6a30 ff        rst     38h
6a31 ff        rst     38h
6a32 ff        rst     38h
6a33 ff        rst     38h
6a34 ff        rst     38h
6a35 ff        rst     38h
6a36 ff        rst     38h
6a37 ff        rst     38h
6a38 ff        rst     38h
6a39 ff        rst     38h
6a3a ff        rst     38h
6a3b ff        rst     38h
6a3c ff        rst     38h
6a3d ff        rst     38h
6a3e ff        rst     38h
6a3f ff        rst     38h
6a40 ff        rst     38h
6a41 ff        rst     38h
6a42 ff        rst     38h
6a43 ff        rst     38h
6a44 ff        rst     38h
6a45 ff        rst     38h
6a46 ff        rst     38h
6a47 ff        rst     38h
6a48 ff        rst     38h
6a49 ff        rst     38h
6a4a ff        rst     38h
6a4b ff        rst     38h
6a4c ff        rst     38h
6a4d ff        rst     38h
6a4e ff        rst     38h
6a4f ff        rst     38h
6a50 ff        rst     38h
6a51 ff        rst     38h
6a52 ff        rst     38h
6a53 ff        rst     38h
6a54 ff        rst     38h
6a55 ff        rst     38h
6a56 ff        rst     38h
6a57 ff        rst     38h
6a58 ff        rst     38h
6a59 ff        rst     38h
6a5a ff        rst     38h
6a5b ff        rst     38h
6a5c ff        rst     38h
6a5d ff        rst     38h
6a5e ff        rst     38h
6a5f ff        rst     38h
6a60 ff        rst     38h
6a61 ff        rst     38h
6a62 ff        rst     38h
6a63 ff        rst     38h
6a64 ff        rst     38h
6a65 ff        rst     38h
6a66 ff        rst     38h
6a67 ff        rst     38h
6a68 ff        rst     38h
6a69 ff        rst     38h
6a6a ff        rst     38h
6a6b ff        rst     38h
6a6c ff        rst     38h
6a6d ff        rst     38h
6a6e ff        rst     38h
6a6f ff        rst     38h
6a70 ff        rst     38h
6a71 ff        rst     38h
6a72 ff        rst     38h
6a73 ff        rst     38h
6a74 ff        rst     38h
6a75 ff        rst     38h
6a76 ff        rst     38h
6a77 ff        rst     38h
6a78 ff        rst     38h
6a79 ff        rst     38h
6a7a ff        rst     38h
6a7b ff        rst     38h
6a7c ff        rst     38h
6a7d ff        rst     38h
6a7e ff        rst     38h
6a7f ff        rst     38h
6a80 ff        rst     38h
6a81 ff        rst     38h
6a82 ff        rst     38h
6a83 ff        rst     38h
6a84 ff        rst     38h
6a85 ff        rst     38h
6a86 ff        rst     38h
6a87 ff        rst     38h
6a88 ff        rst     38h
6a89 ff        rst     38h
6a8a ff        rst     38h
6a8b ff        rst     38h
6a8c ff        rst     38h
6a8d ff        rst     38h
6a8e ff        rst     38h
6a8f ff        rst     38h
6a90 ff        rst     38h
6a91 ff        rst     38h
6a92 ff        rst     38h
6a93 ff        rst     38h
6a94 ff        rst     38h
6a95 ff        rst     38h
6a96 ff        rst     38h
6a97 ff        rst     38h
6a98 ff        rst     38h
6a99 ff        rst     38h
6a9a ff        rst     38h
6a9b ff        rst     38h
6a9c ff        rst     38h
6a9d ff        rst     38h
6a9e ff        rst     38h
6a9f ff        rst     38h
6aa0 ff        rst     38h
6aa1 ff        rst     38h
6aa2 ff        rst     38h
6aa3 ff        rst     38h
6aa4 ff        rst     38h
6aa5 ff        rst     38h
6aa6 ff        rst     38h
6aa7 ff        rst     38h
6aa8 ff        rst     38h
6aa9 ff        rst     38h
6aaa ff        rst     38h
6aab ff        rst     38h
6aac ff        rst     38h
6aad ff        rst     38h
6aae ff        rst     38h
6aaf ff        rst     38h
6ab0 ff        rst     38h
6ab1 ff        rst     38h
6ab2 ff        rst     38h
6ab3 ff        rst     38h
6ab4 ff        rst     38h
6ab5 ff        rst     38h
6ab6 ff        rst     38h
6ab7 ff        rst     38h
6ab8 ff        rst     38h
6ab9 ff        rst     38h
6aba ff        rst     38h
6abb ff        rst     38h
6abc ff        rst     38h
6abd ff        rst     38h
6abe ff        rst     38h
6abf ff        rst     38h
6ac0 ff        rst     38h
6ac1 ff        rst     38h
6ac2 ff        rst     38h
6ac3 ff        rst     38h
6ac4 ff        rst     38h
6ac5 ff        rst     38h
6ac6 ff        rst     38h
6ac7 ff        rst     38h
6ac8 ff        rst     38h
6ac9 ff        rst     38h
6aca ff        rst     38h
6acb ff        rst     38h
6acc ff        rst     38h
6acd ff        rst     38h
6ace ff        rst     38h
6acf ff        rst     38h
6ad0 ff        rst     38h
6ad1 ff        rst     38h
6ad2 ff        rst     38h
6ad3 ff        rst     38h
6ad4 ff        rst     38h
6ad5 ff        rst     38h
6ad6 ff        rst     38h
6ad7 ff        rst     38h
6ad8 ff        rst     38h
6ad9 ff        rst     38h
6ada ff        rst     38h
6adb ff        rst     38h
6adc ff        rst     38h
6add ff        rst     38h
6ade ff        rst     38h
6adf ff        rst     38h
6ae0 ff        rst     38h
6ae1 ff        rst     38h
6ae2 ff        rst     38h
6ae3 ff        rst     38h
6ae4 ff        rst     38h
6ae5 ff        rst     38h
6ae6 ff        rst     38h
6ae7 ff        rst     38h
6ae8 ff        rst     38h
6ae9 ff        rst     38h
6aea ff        rst     38h
6aeb ff        rst     38h
6aec ff        rst     38h
6aed ff        rst     38h
6aee ff        rst     38h
6aef ff        rst     38h
6af0 ff        rst     38h
6af1 ff        rst     38h
6af2 ff        rst     38h
6af3 ff        rst     38h
6af4 ff        rst     38h
6af5 ff        rst     38h
6af6 ff        rst     38h
6af7 ff        rst     38h
6af8 ff        rst     38h
6af9 ff        rst     38h
6afa ff        rst     38h
6afb ff        rst     38h
6afc ff        rst     38h
6afd ff        rst     38h
6afe ff        rst     38h
6aff ff        rst     38h
6b00 ff        rst     38h
6b01 ff        rst     38h
6b02 ff        rst     38h
6b03 ff        rst     38h
6b04 ff        rst     38h
6b05 ff        rst     38h
6b06 ff        rst     38h
6b07 ff        rst     38h
6b08 ff        rst     38h
6b09 ff        rst     38h
6b0a ff        rst     38h
6b0b ff        rst     38h
6b0c ff        rst     38h
6b0d ff        rst     38h
6b0e ff        rst     38h
6b0f ff        rst     38h
6b10 ff        rst     38h
6b11 ff        rst     38h
6b12 ff        rst     38h
6b13 ff        rst     38h
6b14 ff        rst     38h
6b15 ff        rst     38h
6b16 ff        rst     38h
6b17 ff        rst     38h
6b18 ff        rst     38h
6b19 ff        rst     38h
6b1a ff        rst     38h
6b1b ff        rst     38h
6b1c ff        rst     38h
6b1d ff        rst     38h
6b1e ff        rst     38h
6b1f ff        rst     38h
6b20 ff        rst     38h
6b21 ff        rst     38h
6b22 ff        rst     38h
6b23 ff        rst     38h
6b24 ff        rst     38h
6b25 ff        rst     38h
6b26 ff        rst     38h
6b27 ff        rst     38h
6b28 ff        rst     38h
6b29 ff        rst     38h
6b2a ff        rst     38h
6b2b ff        rst     38h
6b2c ff        rst     38h
6b2d ff        rst     38h
6b2e ff        rst     38h
6b2f ff        rst     38h
6b30 ff        rst     38h
6b31 ff        rst     38h
6b32 ff        rst     38h
6b33 ff        rst     38h
6b34 ff        rst     38h
6b35 ff        rst     38h
6b36 ff        rst     38h
6b37 ff        rst     38h
6b38 ff        rst     38h
6b39 ff        rst     38h
6b3a ff        rst     38h
6b3b ff        rst     38h
6b3c ff        rst     38h
6b3d ff        rst     38h
6b3e ff        rst     38h
6b3f ff        rst     38h
6b40 ff        rst     38h
6b41 ff        rst     38h
6b42 ff        rst     38h
6b43 ff        rst     38h
6b44 ff        rst     38h
6b45 ff        rst     38h
6b46 ff        rst     38h
6b47 ff        rst     38h
6b48 ff        rst     38h
6b49 ff        rst     38h
6b4a ff        rst     38h
6b4b ff        rst     38h
6b4c ff        rst     38h
6b4d ff        rst     38h
6b4e ff        rst     38h
6b4f ff        rst     38h
6b50 ff        rst     38h
6b51 ff        rst     38h
6b52 ff        rst     38h
6b53 ff        rst     38h
6b54 ff        rst     38h
6b55 ff        rst     38h
6b56 ff        rst     38h
6b57 ff        rst     38h
6b58 ff        rst     38h
6b59 ff        rst     38h
6b5a ff        rst     38h
6b5b ff        rst     38h
6b5c ff        rst     38h
6b5d ff        rst     38h
6b5e ff        rst     38h
6b5f ff        rst     38h
6b60 ff        rst     38h
6b61 ff        rst     38h
6b62 ff        rst     38h
6b63 ff        rst     38h
6b64 ff        rst     38h
6b65 ff        rst     38h
6b66 ff        rst     38h
6b67 ff        rst     38h
6b68 ff        rst     38h
6b69 ff        rst     38h
6b6a ff        rst     38h
6b6b ff        rst     38h
6b6c ff        rst     38h
6b6d ff        rst     38h
6b6e ff        rst     38h
6b6f ff        rst     38h
6b70 ff        rst     38h
6b71 ff        rst     38h
6b72 ff        rst     38h
6b73 ff        rst     38h
6b74 ff        rst     38h
6b75 ff        rst     38h
6b76 ff        rst     38h
6b77 ff        rst     38h
6b78 ff        rst     38h
6b79 ff        rst     38h
6b7a ff        rst     38h
6b7b ff        rst     38h
6b7c ff        rst     38h
6b7d ff        rst     38h
6b7e ff        rst     38h
6b7f ff        rst     38h
6b80 ff        rst     38h
6b81 ff        rst     38h
6b82 ff        rst     38h
6b83 ff        rst     38h
6b84 ff        rst     38h
6b85 ff        rst     38h
6b86 ff        rst     38h
6b87 ff        rst     38h
6b88 ff        rst     38h
6b89 ff        rst     38h
6b8a ff        rst     38h
6b8b ff        rst     38h
6b8c ff        rst     38h
6b8d ff        rst     38h
6b8e ff        rst     38h
6b8f ff        rst     38h
6b90 ff        rst     38h
6b91 ff        rst     38h
6b92 ff        rst     38h
6b93 ff        rst     38h
6b94 ff        rst     38h
6b95 ff        rst     38h
6b96 ff        rst     38h
6b97 ff        rst     38h
6b98 ff        rst     38h
6b99 ff        rst     38h
6b9a ff        rst     38h
6b9b ff        rst     38h
6b9c ff        rst     38h
6b9d ff        rst     38h
6b9e ff        rst     38h
6b9f ff        rst     38h
6ba0 ff        rst     38h
6ba1 ff        rst     38h
6ba2 ff        rst     38h
6ba3 ff        rst     38h
6ba4 ff        rst     38h
6ba5 ff        rst     38h
6ba6 ff        rst     38h
6ba7 ff        rst     38h
6ba8 ff        rst     38h
6ba9 ff        rst     38h
6baa ff        rst     38h
6bab ff        rst     38h
6bac ff        rst     38h
6bad ff        rst     38h
6bae ff        rst     38h
6baf ff        rst     38h
6bb0 ff        rst     38h
6bb1 ff        rst     38h
6bb2 ff        rst     38h
6bb3 ff        rst     38h
6bb4 ff        rst     38h
6bb5 ff        rst     38h
6bb6 ff        rst     38h
6bb7 ff        rst     38h
6bb8 ff        rst     38h
6bb9 ff        rst     38h
6bba ff        rst     38h
6bbb ff        rst     38h
6bbc ff        rst     38h
6bbd ff        rst     38h
6bbe ff        rst     38h
6bbf ff        rst     38h
6bc0 ff        rst     38h
6bc1 ff        rst     38h
6bc2 ff        rst     38h
6bc3 ff        rst     38h
6bc4 ff        rst     38h
6bc5 ff        rst     38h
6bc6 ff        rst     38h
6bc7 ff        rst     38h
6bc8 ff        rst     38h
6bc9 ff        rst     38h
6bca ff        rst     38h
6bcb ff        rst     38h
6bcc ff        rst     38h
6bcd ff        rst     38h
6bce ff        rst     38h
6bcf ff        rst     38h
6bd0 ff        rst     38h
6bd1 ff        rst     38h
6bd2 ff        rst     38h
6bd3 ff        rst     38h
6bd4 ff        rst     38h
6bd5 ff        rst     38h
6bd6 ff        rst     38h
6bd7 ff        rst     38h
6bd8 ff        rst     38h
6bd9 ff        rst     38h
6bda ff        rst     38h
6bdb ff        rst     38h
6bdc ff        rst     38h
6bdd ff        rst     38h
6bde ff        rst     38h
6bdf ff        rst     38h
6be0 ff        rst     38h
6be1 ff        rst     38h
6be2 ff        rst     38h
6be3 ff        rst     38h
6be4 ff        rst     38h
6be5 ff        rst     38h
6be6 ff        rst     38h
6be7 ff        rst     38h
6be8 ff        rst     38h
6be9 ff        rst     38h
6bea ff        rst     38h
6beb ff        rst     38h
6bec ff        rst     38h
6bed ff        rst     38h
6bee ff        rst     38h
6bef ff        rst     38h
6bf0 ff        rst     38h
6bf1 ff        rst     38h
6bf2 ff        rst     38h
6bf3 ff        rst     38h
6bf4 ff        rst     38h
6bf5 ff        rst     38h
6bf6 ff        rst     38h
6bf7 ff        rst     38h
6bf8 ff        rst     38h
6bf9 ff        rst     38h
6bfa ff        rst     38h
6bfb ff        rst     38h
6bfc ff        rst     38h
6bfd ff        rst     38h
6bfe ff        rst     38h
6bff ff        rst     38h
6c00 ff        rst     38h
6c01 ff        rst     38h
6c02 ff        rst     38h
6c03 ff        rst     38h
6c04 ff        rst     38h
6c05 ff        rst     38h
6c06 ff        rst     38h
6c07 ff        rst     38h
6c08 ff        rst     38h
6c09 ff        rst     38h
6c0a ff        rst     38h
6c0b ff        rst     38h
6c0c ff        rst     38h
6c0d ff        rst     38h
6c0e ff        rst     38h
6c0f ff        rst     38h
6c10 ff        rst     38h
6c11 ff        rst     38h
6c12 ff        rst     38h
6c13 ff        rst     38h
6c14 ff        rst     38h
6c15 ff        rst     38h
6c16 ff        rst     38h
6c17 ff        rst     38h
6c18 ff        rst     38h
6c19 ff        rst     38h
6c1a ff        rst     38h
6c1b ff        rst     38h
6c1c ff        rst     38h
6c1d ff        rst     38h
6c1e ff        rst     38h
6c1f ff        rst     38h
6c20 ff        rst     38h
6c21 ff        rst     38h
6c22 ff        rst     38h
6c23 ff        rst     38h
6c24 ff        rst     38h
6c25 ff        rst     38h
6c26 ff        rst     38h
6c27 ff        rst     38h
6c28 ff        rst     38h
6c29 ff        rst     38h
6c2a ff        rst     38h
6c2b ff        rst     38h
6c2c ff        rst     38h
6c2d ff        rst     38h
6c2e ff        rst     38h
6c2f ff        rst     38h
6c30 ff        rst     38h
6c31 ff        rst     38h
6c32 ff        rst     38h
6c33 ff        rst     38h
6c34 ff        rst     38h
6c35 ff        rst     38h
6c36 ff        rst     38h
6c37 ff        rst     38h
6c38 ff        rst     38h
6c39 ff        rst     38h
6c3a ff        rst     38h
6c3b ff        rst     38h
6c3c ff        rst     38h
6c3d ff        rst     38h
6c3e ff        rst     38h
6c3f ff        rst     38h
6c40 ff        rst     38h
6c41 ff        rst     38h
6c42 ff        rst     38h
6c43 ff        rst     38h
6c44 ff        rst     38h
6c45 ff        rst     38h
6c46 ff        rst     38h
6c47 ff        rst     38h
6c48 ff        rst     38h
6c49 ff        rst     38h
6c4a ff        rst     38h
6c4b ff        rst     38h
6c4c ff        rst     38h
6c4d ff        rst     38h
6c4e ff        rst     38h
6c4f ff        rst     38h
6c50 ff        rst     38h
6c51 ff        rst     38h
6c52 ff        rst     38h
6c53 ff        rst     38h
6c54 ff        rst     38h
6c55 ff        rst     38h
6c56 ff        rst     38h
6c57 ff        rst     38h
6c58 ff        rst     38h
6c59 ff        rst     38h
6c5a ff        rst     38h
6c5b ff        rst     38h
6c5c ff        rst     38h
6c5d ff        rst     38h
6c5e ff        rst     38h
6c5f ff        rst     38h
6c60 ff        rst     38h
6c61 ff        rst     38h
6c62 ff        rst     38h
6c63 ff        rst     38h
6c64 ff        rst     38h
6c65 ff        rst     38h
6c66 ff        rst     38h
6c67 ff        rst     38h
6c68 ff        rst     38h
6c69 ff        rst     38h
6c6a ff        rst     38h
6c6b ff        rst     38h
6c6c ff        rst     38h
6c6d ff        rst     38h
6c6e ff        rst     38h
6c6f ff        rst     38h
6c70 ff        rst     38h
6c71 ff        rst     38h
6c72 ff        rst     38h
6c73 ff        rst     38h
6c74 ff        rst     38h
6c75 ff        rst     38h
6c76 ff        rst     38h
6c77 ff        rst     38h
6c78 ff        rst     38h
6c79 ff        rst     38h
6c7a ff        rst     38h
6c7b ff        rst     38h
6c7c ff        rst     38h
6c7d ff        rst     38h
6c7e ff        rst     38h
6c7f ff        rst     38h
6c80 ff        rst     38h
6c81 ff        rst     38h
6c82 ff        rst     38h
6c83 ff        rst     38h
6c84 ff        rst     38h
6c85 ff        rst     38h
6c86 ff        rst     38h
6c87 ff        rst     38h
6c88 ff        rst     38h
6c89 ff        rst     38h
6c8a ff        rst     38h
6c8b ff        rst     38h
6c8c ff        rst     38h
6c8d ff        rst     38h
6c8e ff        rst     38h
6c8f ff        rst     38h
6c90 ff        rst     38h
6c91 ff        rst     38h
6c92 ff        rst     38h
6c93 ff        rst     38h
6c94 ff        rst     38h
6c95 ff        rst     38h
6c96 ff        rst     38h
6c97 ff        rst     38h
6c98 ff        rst     38h
6c99 ff        rst     38h
6c9a ff        rst     38h
6c9b ff        rst     38h
6c9c ff        rst     38h
6c9d ff        rst     38h
6c9e ff        rst     38h
6c9f ff        rst     38h
6ca0 ff        rst     38h
6ca1 ff        rst     38h
6ca2 ff        rst     38h
6ca3 ff        rst     38h
6ca4 ff        rst     38h
6ca5 ff        rst     38h
6ca6 ff        rst     38h
6ca7 ff        rst     38h
6ca8 ff        rst     38h
6ca9 ff        rst     38h
6caa ff        rst     38h
6cab ff        rst     38h
6cac ff        rst     38h
6cad ff        rst     38h
6cae ff        rst     38h
6caf ff        rst     38h
6cb0 ff        rst     38h
6cb1 ff        rst     38h
6cb2 ff        rst     38h
6cb3 ff        rst     38h
6cb4 ff        rst     38h
6cb5 ff        rst     38h
6cb6 ff        rst     38h
6cb7 ff        rst     38h
6cb8 ff        rst     38h
6cb9 ff        rst     38h
6cba ff        rst     38h
6cbb ff        rst     38h
6cbc ff        rst     38h
6cbd ff        rst     38h
6cbe ff        rst     38h
6cbf ff        rst     38h
6cc0 ff        rst     38h
6cc1 ff        rst     38h
6cc2 ff        rst     38h
6cc3 ff        rst     38h
6cc4 ff        rst     38h
6cc5 ff        rst     38h
6cc6 ff        rst     38h
6cc7 ff        rst     38h
6cc8 ff        rst     38h
6cc9 ff        rst     38h
6cca ff        rst     38h
6ccb ff        rst     38h
6ccc ff        rst     38h
6ccd ff        rst     38h
6cce ff        rst     38h
6ccf ff        rst     38h
6cd0 ff        rst     38h
6cd1 ff        rst     38h
6cd2 ff        rst     38h
6cd3 ff        rst     38h
6cd4 ff        rst     38h
6cd5 ff        rst     38h
6cd6 ff        rst     38h
6cd7 ff        rst     38h
6cd8 ff        rst     38h
6cd9 ff        rst     38h
6cda ff        rst     38h
6cdb ff        rst     38h
6cdc ff        rst     38h
6cdd ff        rst     38h
6cde ff        rst     38h
6cdf ff        rst     38h
6ce0 ff        rst     38h
6ce1 ff        rst     38h
6ce2 ff        rst     38h
6ce3 ff        rst     38h
6ce4 ff        rst     38h
6ce5 ff        rst     38h
6ce6 ff        rst     38h
6ce7 ff        rst     38h
6ce8 ff        rst     38h
6ce9 ff        rst     38h
6cea ff        rst     38h
6ceb ff        rst     38h
6cec ff        rst     38h
6ced ff        rst     38h
6cee ff        rst     38h
6cef ff        rst     38h
6cf0 ff        rst     38h
6cf1 ff        rst     38h
6cf2 ff        rst     38h
6cf3 ff        rst     38h
6cf4 ff        rst     38h
6cf5 ff        rst     38h
6cf6 ff        rst     38h
6cf7 ff        rst     38h
6cf8 ff        rst     38h
6cf9 ff        rst     38h
6cfa ff        rst     38h
6cfb ff        rst     38h
6cfc ff        rst     38h
6cfd ff        rst     38h
6cfe ff        rst     38h
6cff ff        rst     38h
6d00 ff        rst     38h
6d01 ff        rst     38h
6d02 ff        rst     38h
6d03 ff        rst     38h
6d04 ff        rst     38h
6d05 ff        rst     38h
6d06 ff        rst     38h
6d07 ff        rst     38h
6d08 ff        rst     38h
6d09 ff        rst     38h
6d0a ff        rst     38h
6d0b ff        rst     38h
6d0c ff        rst     38h
6d0d ff        rst     38h
6d0e ff        rst     38h
6d0f ff        rst     38h
6d10 ff        rst     38h
6d11 ff        rst     38h
6d12 ff        rst     38h
6d13 ff        rst     38h
6d14 ff        rst     38h
6d15 ff        rst     38h
6d16 ff        rst     38h
6d17 ff        rst     38h
6d18 ff        rst     38h
6d19 ff        rst     38h
6d1a ff        rst     38h
6d1b ff        rst     38h
6d1c ff        rst     38h
6d1d ff        rst     38h
6d1e ff        rst     38h
6d1f ff        rst     38h
6d20 ff        rst     38h
6d21 ff        rst     38h
6d22 ff        rst     38h
6d23 ff        rst     38h
6d24 ff        rst     38h
6d25 ff        rst     38h
6d26 ff        rst     38h
6d27 ff        rst     38h
6d28 ff        rst     38h
6d29 ff        rst     38h
6d2a ff        rst     38h
6d2b ff        rst     38h
6d2c ff        rst     38h
6d2d ff        rst     38h
6d2e ff        rst     38h
6d2f ff        rst     38h
6d30 ff        rst     38h
6d31 ff        rst     38h
6d32 ff        rst     38h
6d33 ff        rst     38h
6d34 ff        rst     38h
6d35 ff        rst     38h
6d36 ff        rst     38h
6d37 ff        rst     38h
6d38 ff        rst     38h
6d39 ff        rst     38h
6d3a ff        rst     38h
6d3b ff        rst     38h
6d3c ff        rst     38h
6d3d ff        rst     38h
6d3e ff        rst     38h
6d3f ff        rst     38h
6d40 ff        rst     38h
6d41 ff        rst     38h
6d42 ff        rst     38h
6d43 ff        rst     38h
6d44 ff        rst     38h
6d45 ff        rst     38h
6d46 ff        rst     38h
6d47 ff        rst     38h
6d48 ff        rst     38h
6d49 ff        rst     38h
6d4a ff        rst     38h
6d4b ff        rst     38h
6d4c ff        rst     38h
6d4d ff        rst     38h
6d4e ff        rst     38h
6d4f ff        rst     38h
6d50 ff        rst     38h
6d51 ff        rst     38h
6d52 ff        rst     38h
6d53 ff        rst     38h
6d54 ff        rst     38h
6d55 ff        rst     38h
6d56 ff        rst     38h
6d57 ff        rst     38h
6d58 ff        rst     38h
6d59 ff        rst     38h
6d5a ff        rst     38h
6d5b ff        rst     38h
6d5c ff        rst     38h
6d5d ff        rst     38h
6d5e ff        rst     38h
6d5f ff        rst     38h
6d60 ff        rst     38h
6d61 ff        rst     38h
6d62 ff        rst     38h
6d63 ff        rst     38h
6d64 ff        rst     38h
6d65 ff        rst     38h
6d66 ff        rst     38h
6d67 ff        rst     38h
6d68 ff        rst     38h
6d69 ff        rst     38h
6d6a ff        rst     38h
6d6b ff        rst     38h
6d6c ff        rst     38h
6d6d ff        rst     38h
6d6e ff        rst     38h
6d6f ff        rst     38h
6d70 ff        rst     38h
6d71 ff        rst     38h
6d72 ff        rst     38h
6d73 ff        rst     38h
6d74 ff        rst     38h
6d75 ff        rst     38h
6d76 ff        rst     38h
6d77 ff        rst     38h
6d78 ff        rst     38h
6d79 ff        rst     38h
6d7a ff        rst     38h
6d7b ff        rst     38h
6d7c ff        rst     38h
6d7d ff        rst     38h
6d7e ff        rst     38h
6d7f ff        rst     38h
6d80 ff        rst     38h
6d81 ff        rst     38h
6d82 ff        rst     38h
6d83 ff        rst     38h
6d84 ff        rst     38h
6d85 ff        rst     38h
6d86 ff        rst     38h
6d87 ff        rst     38h
6d88 ff        rst     38h
6d89 ff        rst     38h
6d8a ff        rst     38h
6d8b ff        rst     38h
6d8c ff        rst     38h
6d8d ff        rst     38h
6d8e ff        rst     38h
6d8f ff        rst     38h
6d90 ff        rst     38h
6d91 ff        rst     38h
6d92 ff        rst     38h
6d93 ff        rst     38h
6d94 ff        rst     38h
6d95 ff        rst     38h
6d96 ff        rst     38h
6d97 ff        rst     38h
6d98 ff        rst     38h
6d99 ff        rst     38h
6d9a ff        rst     38h
6d9b ff        rst     38h
6d9c ff        rst     38h
6d9d ff        rst     38h
6d9e ff        rst     38h
6d9f ff        rst     38h
6da0 ff        rst     38h
6da1 ff        rst     38h
6da2 ff        rst     38h
6da3 ff        rst     38h
6da4 ff        rst     38h
6da5 ff        rst     38h
6da6 ff        rst     38h
6da7 ff        rst     38h
6da8 ff        rst     38h
6da9 ff        rst     38h
6daa ff        rst     38h
6dab ff        rst     38h
6dac ff        rst     38h
6dad ff        rst     38h
6dae ff        rst     38h
6daf ff        rst     38h
6db0 ff        rst     38h
6db1 ff        rst     38h
6db2 ff        rst     38h
6db3 ff        rst     38h
6db4 ff        rst     38h
6db5 ff        rst     38h
6db6 ff        rst     38h
6db7 ff        rst     38h
6db8 ff        rst     38h
6db9 ff        rst     38h
6dba ff        rst     38h
6dbb ff        rst     38h
6dbc ff        rst     38h
6dbd ff        rst     38h
6dbe ff        rst     38h
6dbf ff        rst     38h
6dc0 ff        rst     38h
6dc1 ff        rst     38h
6dc2 ff        rst     38h
6dc3 ff        rst     38h
6dc4 ff        rst     38h
6dc5 ff        rst     38h
6dc6 ff        rst     38h
6dc7 ff        rst     38h
6dc8 ff        rst     38h
6dc9 ff        rst     38h
6dca ff        rst     38h
6dcb ff        rst     38h
6dcc ff        rst     38h
6dcd ff        rst     38h
6dce ff        rst     38h
6dcf ff        rst     38h
6dd0 ff        rst     38h
6dd1 ff        rst     38h
6dd2 ff        rst     38h
6dd3 ff        rst     38h
6dd4 ff        rst     38h
6dd5 ff        rst     38h
6dd6 ff        rst     38h
6dd7 ff        rst     38h
6dd8 ff        rst     38h
6dd9 ff        rst     38h
6dda ff        rst     38h
6ddb ff        rst     38h
6ddc ff        rst     38h
6ddd ff        rst     38h
6dde ff        rst     38h
6ddf ff        rst     38h
6de0 ff        rst     38h
6de1 ff        rst     38h
6de2 ff        rst     38h
6de3 ff        rst     38h
6de4 ff        rst     38h
6de5 ff        rst     38h
6de6 ff        rst     38h
6de7 ff        rst     38h
6de8 ff        rst     38h
6de9 ff        rst     38h
6dea ff        rst     38h
6deb ff        rst     38h
6dec ff        rst     38h
6ded ff        rst     38h
6dee ff        rst     38h
6def ff        rst     38h
6df0 ff        rst     38h
6df1 ff        rst     38h
6df2 ff        rst     38h
6df3 ff        rst     38h
6df4 ff        rst     38h
6df5 ff        rst     38h
6df6 ff        rst     38h
6df7 ff        rst     38h
6df8 ff        rst     38h
6df9 ff        rst     38h
6dfa ff        rst     38h
6dfb ff        rst     38h
6dfc ff        rst     38h
6dfd ff        rst     38h
6dfe ff        rst     38h
6dff ff        rst     38h
6e00 ff        rst     38h
6e01 ff        rst     38h
6e02 ff        rst     38h
6e03 ff        rst     38h
6e04 ff        rst     38h
6e05 ff        rst     38h
6e06 ff        rst     38h
6e07 ff        rst     38h
6e08 ff        rst     38h
6e09 ff        rst     38h
6e0a ff        rst     38h
6e0b ff        rst     38h
6e0c ff        rst     38h
6e0d ff        rst     38h
6e0e ff        rst     38h
6e0f ff        rst     38h
6e10 ff        rst     38h
6e11 ff        rst     38h
6e12 ff        rst     38h
6e13 ff        rst     38h
6e14 ff        rst     38h
6e15 ff        rst     38h
6e16 ff        rst     38h
6e17 ff        rst     38h
6e18 ff        rst     38h
6e19 ff        rst     38h
6e1a ff        rst     38h
6e1b ff        rst     38h
6e1c ff        rst     38h
6e1d ff        rst     38h
6e1e ff        rst     38h
6e1f ff        rst     38h
6e20 ff        rst     38h
6e21 ff        rst     38h
6e22 ff        rst     38h
6e23 ff        rst     38h
6e24 ff        rst     38h
6e25 ff        rst     38h
6e26 ff        rst     38h
6e27 ff        rst     38h
6e28 ff        rst     38h
6e29 ff        rst     38h
6e2a ff        rst     38h
6e2b ff        rst     38h
6e2c ff        rst     38h
6e2d ff        rst     38h
6e2e ff        rst     38h
6e2f ff        rst     38h
6e30 ff        rst     38h
6e31 ff        rst     38h
6e32 ff        rst     38h
6e33 ff        rst     38h
6e34 ff        rst     38h
6e35 ff        rst     38h
6e36 ff        rst     38h
6e37 ff        rst     38h
6e38 ff        rst     38h
6e39 ff        rst     38h
6e3a ff        rst     38h
6e3b ff        rst     38h
6e3c ff        rst     38h
6e3d ff        rst     38h
6e3e ff        rst     38h
6e3f ff        rst     38h
6e40 ff        rst     38h
6e41 ff        rst     38h
6e42 ff        rst     38h
6e43 ff        rst     38h
6e44 ff        rst     38h
6e45 ff        rst     38h
6e46 ff        rst     38h
6e47 ff        rst     38h
6e48 ff        rst     38h
6e49 ff        rst     38h
6e4a ff        rst     38h
6e4b ff        rst     38h
6e4c ff        rst     38h
6e4d ff        rst     38h
6e4e ff        rst     38h
6e4f ff        rst     38h
6e50 ff        rst     38h
6e51 ff        rst     38h
6e52 ff        rst     38h
6e53 ff        rst     38h
6e54 ff        rst     38h
6e55 ff        rst     38h
6e56 ff        rst     38h
6e57 ff        rst     38h
6e58 ff        rst     38h
6e59 ff        rst     38h
6e5a ff        rst     38h
6e5b ff        rst     38h
6e5c ff        rst     38h
6e5d ff        rst     38h
6e5e ff        rst     38h
6e5f ff        rst     38h
6e60 ff        rst     38h
6e61 ff        rst     38h
6e62 ff        rst     38h
6e63 ff        rst     38h
6e64 ff        rst     38h
6e65 ff        rst     38h
6e66 ff        rst     38h
6e67 ff        rst     38h
6e68 ff        rst     38h
6e69 ff        rst     38h
6e6a ff        rst     38h
6e6b ff        rst     38h
6e6c ff        rst     38h
6e6d ff        rst     38h
6e6e ff        rst     38h
6e6f ff        rst     38h
6e70 ff        rst     38h
6e71 ff        rst     38h
6e72 ff        rst     38h
6e73 ff        rst     38h
6e74 ff        rst     38h
6e75 ff        rst     38h
6e76 ff        rst     38h
6e77 ff        rst     38h
6e78 ff        rst     38h
6e79 ff        rst     38h
6e7a ff        rst     38h
6e7b ff        rst     38h
6e7c ff        rst     38h
6e7d ff        rst     38h
6e7e ff        rst     38h
6e7f ff        rst     38h
6e80 ff        rst     38h
6e81 ff        rst     38h
6e82 ff        rst     38h
6e83 ff        rst     38h
6e84 ff        rst     38h
6e85 ff        rst     38h
6e86 ff        rst     38h
6e87 ff        rst     38h
6e88 ff        rst     38h
6e89 ff        rst     38h
6e8a ff        rst     38h
6e8b ff        rst     38h
6e8c ff        rst     38h
6e8d ff        rst     38h
6e8e ff        rst     38h
6e8f ff        rst     38h
6e90 ff        rst     38h
6e91 ff        rst     38h
6e92 ff        rst     38h
6e93 ff        rst     38h
6e94 ff        rst     38h
6e95 ff        rst     38h
6e96 ff        rst     38h
6e97 ff        rst     38h
6e98 ff        rst     38h
6e99 ff        rst     38h
6e9a ff        rst     38h
6e9b ff        rst     38h
6e9c ff        rst     38h
6e9d ff        rst     38h
6e9e ff        rst     38h
6e9f ff        rst     38h
6ea0 ff        rst     38h
6ea1 ff        rst     38h
6ea2 ff        rst     38h
6ea3 ff        rst     38h
6ea4 ff        rst     38h
6ea5 ff        rst     38h
6ea6 ff        rst     38h
6ea7 ff        rst     38h
6ea8 ff        rst     38h
6ea9 ff        rst     38h
6eaa ff        rst     38h
6eab ff        rst     38h
6eac ff        rst     38h
6ead ff        rst     38h
6eae ff        rst     38h
6eaf ff        rst     38h
6eb0 ff        rst     38h
6eb1 ff        rst     38h
6eb2 ff        rst     38h
6eb3 ff        rst     38h
6eb4 ff        rst     38h
6eb5 ff        rst     38h
6eb6 ff        rst     38h
6eb7 ff        rst     38h
6eb8 ff        rst     38h
6eb9 ff        rst     38h
6eba ff        rst     38h
6ebb ff        rst     38h
6ebc ff        rst     38h
6ebd ff        rst     38h
6ebe ff        rst     38h
6ebf ff        rst     38h
6ec0 ff        rst     38h
6ec1 ff        rst     38h
6ec2 ff        rst     38h
6ec3 ff        rst     38h
6ec4 ff        rst     38h
6ec5 ff        rst     38h
6ec6 ff        rst     38h
6ec7 ff        rst     38h
6ec8 ff        rst     38h
6ec9 ff        rst     38h
6eca ff        rst     38h
6ecb ff        rst     38h
6ecc ff        rst     38h
6ecd ff        rst     38h
6ece ff        rst     38h
6ecf ff        rst     38h
6ed0 ff        rst     38h
6ed1 ff        rst     38h
6ed2 ff        rst     38h
6ed3 ff        rst     38h
6ed4 ff        rst     38h
6ed5 ff        rst     38h
6ed6 ff        rst     38h
6ed7 ff        rst     38h
6ed8 ff        rst     38h
6ed9 ff        rst     38h
6eda ff        rst     38h
6edb ff        rst     38h
6edc ff        rst     38h
6edd ff        rst     38h
6ede ff        rst     38h
6edf ff        rst     38h
6ee0 ff        rst     38h
6ee1 ff        rst     38h
6ee2 ff        rst     38h
6ee3 ff        rst     38h
6ee4 ff        rst     38h
6ee5 ff        rst     38h
6ee6 ff        rst     38h
6ee7 ff        rst     38h
6ee8 ff        rst     38h
6ee9 ff        rst     38h
6eea ff        rst     38h
6eeb ff        rst     38h
6eec ff        rst     38h
6eed ff        rst     38h
6eee ff        rst     38h
6eef ff        rst     38h
6ef0 ff        rst     38h
6ef1 ff        rst     38h
6ef2 ff        rst     38h
6ef3 ff        rst     38h
6ef4 ff        rst     38h
6ef5 ff        rst     38h
6ef6 ff        rst     38h
6ef7 ff        rst     38h
6ef8 ff        rst     38h
6ef9 ff        rst     38h
6efa ff        rst     38h
6efb ff        rst     38h
6efc ff        rst     38h
6efd ff        rst     38h
6efe ff        rst     38h
6eff ff        rst     38h
6f00 ff        rst     38h
6f01 ff        rst     38h
6f02 ff        rst     38h
6f03 ff        rst     38h
6f04 ff        rst     38h
6f05 ff        rst     38h
6f06 ff        rst     38h
6f07 ff        rst     38h
6f08 ff        rst     38h
6f09 ff        rst     38h
6f0a ff        rst     38h
6f0b ff        rst     38h
6f0c ff        rst     38h
6f0d ff        rst     38h
6f0e ff        rst     38h
6f0f ff        rst     38h
6f10 ff        rst     38h
6f11 ff        rst     38h
6f12 ff        rst     38h
6f13 ff        rst     38h
6f14 ff        rst     38h
6f15 ff        rst     38h
6f16 ff        rst     38h
6f17 ff        rst     38h
6f18 ff        rst     38h
6f19 ff        rst     38h
6f1a ff        rst     38h
6f1b ff        rst     38h
6f1c ff        rst     38h
6f1d ff        rst     38h
6f1e ff        rst     38h
6f1f ff        rst     38h
6f20 ff        rst     38h
6f21 ff        rst     38h
6f22 ff        rst     38h
6f23 ff        rst     38h
6f24 ff        rst     38h
6f25 ff        rst     38h
6f26 ff        rst     38h
6f27 ff        rst     38h
6f28 ff        rst     38h
6f29 ff        rst     38h
6f2a ff        rst     38h
6f2b ff        rst     38h
6f2c ff        rst     38h
6f2d ff        rst     38h
6f2e ff        rst     38h
6f2f ff        rst     38h
6f30 ff        rst     38h
6f31 ff        rst     38h
6f32 ff        rst     38h
6f33 ff        rst     38h
6f34 ff        rst     38h
6f35 ff        rst     38h
6f36 ff        rst     38h
6f37 ff        rst     38h
6f38 ff        rst     38h
6f39 ff        rst     38h
6f3a ff        rst     38h
6f3b ff        rst     38h
6f3c ff        rst     38h
6f3d ff        rst     38h
6f3e ff        rst     38h
6f3f ff        rst     38h
6f40 ff        rst     38h
6f41 ff        rst     38h
6f42 ff        rst     38h
6f43 ff        rst     38h
6f44 ff        rst     38h
6f45 ff        rst     38h
6f46 ff        rst     38h
6f47 ff        rst     38h
6f48 ff        rst     38h
6f49 ff        rst     38h
6f4a ff        rst     38h
6f4b ff        rst     38h
6f4c ff        rst     38h
6f4d ff        rst     38h
6f4e ff        rst     38h
6f4f ff        rst     38h
6f50 ff        rst     38h
6f51 ff        rst     38h
6f52 ff        rst     38h
6f53 ff        rst     38h
6f54 ff        rst     38h
6f55 ff        rst     38h
6f56 ff        rst     38h
6f57 ff        rst     38h
6f58 ff        rst     38h
6f59 ff        rst     38h
6f5a ff        rst     38h
6f5b ff        rst     38h
6f5c ff        rst     38h
6f5d ff        rst     38h
6f5e ff        rst     38h
6f5f ff        rst     38h
6f60 ff        rst     38h
6f61 ff        rst     38h
6f62 ff        rst     38h
6f63 ff        rst     38h
6f64 ff        rst     38h
6f65 ff        rst     38h
6f66 ff        rst     38h
6f67 ff        rst     38h
6f68 ff        rst     38h
6f69 ff        rst     38h
6f6a ff        rst     38h
6f6b ff        rst     38h
6f6c ff        rst     38h
6f6d ff        rst     38h
6f6e ff        rst     38h
6f6f ff        rst     38h
6f70 ff        rst     38h
6f71 ff        rst     38h
6f72 ff        rst     38h
6f73 ff        rst     38h
6f74 ff        rst     38h
6f75 ff        rst     38h
6f76 ff        rst     38h
6f77 ff        rst     38h
6f78 ff        rst     38h
6f79 ff        rst     38h
6f7a ff        rst     38h
6f7b ff        rst     38h
6f7c ff        rst     38h
6f7d ff        rst     38h
6f7e ff        rst     38h
6f7f ff        rst     38h
6f80 ff        rst     38h
6f81 ff        rst     38h
6f82 ff        rst     38h
6f83 ff        rst     38h
6f84 ff        rst     38h
6f85 ff        rst     38h
6f86 ff        rst     38h
6f87 ff        rst     38h
6f88 ff        rst     38h
6f89 ff        rst     38h
6f8a ff        rst     38h
6f8b ff        rst     38h
6f8c ff        rst     38h
6f8d ff        rst     38h
6f8e ff        rst     38h
6f8f ff        rst     38h
6f90 ff        rst     38h
6f91 ff        rst     38h
6f92 ff        rst     38h
6f93 ff        rst     38h
6f94 ff        rst     38h
6f95 ff        rst     38h
6f96 ff        rst     38h
6f97 ff        rst     38h
6f98 ff        rst     38h
6f99 ff        rst     38h
6f9a ff        rst     38h
6f9b ff        rst     38h
6f9c ff        rst     38h
6f9d ff        rst     38h
6f9e ff        rst     38h
6f9f ff        rst     38h
6fa0 ff        rst     38h
6fa1 ff        rst     38h
6fa2 ff        rst     38h
6fa3 ff        rst     38h
6fa4 ff        rst     38h
6fa5 ff        rst     38h
6fa6 ff        rst     38h
6fa7 ff        rst     38h
6fa8 ff        rst     38h
6fa9 ff        rst     38h
6faa ff        rst     38h
6fab ff        rst     38h
6fac ff        rst     38h
6fad ff        rst     38h
6fae ff        rst     38h
6faf ff        rst     38h
6fb0 ff        rst     38h
6fb1 ff        rst     38h
6fb2 ff        rst     38h
6fb3 ff        rst     38h
6fb4 ff        rst     38h
6fb5 ff        rst     38h
6fb6 ff        rst     38h
6fb7 ff        rst     38h
6fb8 ff        rst     38h
6fb9 ff        rst     38h
6fba ff        rst     38h
6fbb ff        rst     38h
6fbc ff        rst     38h
6fbd ff        rst     38h
6fbe ff        rst     38h
6fbf ff        rst     38h
6fc0 ff        rst     38h
6fc1 ff        rst     38h
6fc2 ff        rst     38h
6fc3 ff        rst     38h
6fc4 ff        rst     38h
6fc5 ff        rst     38h
6fc6 ff        rst     38h
6fc7 ff        rst     38h
6fc8 ff        rst     38h
6fc9 ff        rst     38h
6fca ff        rst     38h
6fcb ff        rst     38h
6fcc ff        rst     38h
6fcd ff        rst     38h
6fce ff        rst     38h
6fcf ff        rst     38h
6fd0 ff        rst     38h
6fd1 ff        rst     38h
6fd2 ff        rst     38h
6fd3 ff        rst     38h
6fd4 ff        rst     38h
6fd5 ff        rst     38h
6fd6 ff        rst     38h
6fd7 ff        rst     38h
6fd8 ff        rst     38h
6fd9 ff        rst     38h
6fda ff        rst     38h
6fdb ff        rst     38h
6fdc ff        rst     38h
6fdd ff        rst     38h
6fde ff        rst     38h
6fdf ff        rst     38h
6fe0 ff        rst     38h
6fe1 ff        rst     38h
6fe2 ff        rst     38h
6fe3 ff        rst     38h
6fe4 ff        rst     38h
6fe5 ff        rst     38h
6fe6 ff        rst     38h
6fe7 ff        rst     38h
6fe8 ff        rst     38h
6fe9 ff        rst     38h
6fea ff        rst     38h
6feb ff        rst     38h
6fec ff        rst     38h
6fed ff        rst     38h
6fee ff        rst     38h
6fef ff        rst     38h
6ff0 ff        rst     38h
6ff1 ff        rst     38h
6ff2 ff        rst     38h
6ff3 ff        rst     38h
6ff4 ff        rst     38h
6ff5 ff        rst     38h
6ff6 ff        rst     38h
6ff7 ff        rst     38h
6ff8 ff        rst     38h
6ff9 ff        rst     38h
6ffa ff        rst     38h
6ffb ff        rst     38h
6ffc ff        rst     38h
6ffd ff        rst     38h
6ffe ff        rst     38h
6fff ff        rst     38h
7000 ff        rst     38h
7001 ff        rst     38h
7002 ff        rst     38h
7003 ff        rst     38h
7004 ff        rst     38h
7005 ff        rst     38h
7006 ff        rst     38h
7007 ff        rst     38h
7008 ff        rst     38h
7009 ff        rst     38h
700a ff        rst     38h
700b ff        rst     38h
700c ff        rst     38h
700d ff        rst     38h
700e ff        rst     38h
700f ff        rst     38h
7010 ff        rst     38h
7011 ff        rst     38h
7012 ff        rst     38h
7013 ff        rst     38h
7014 ff        rst     38h
7015 ff        rst     38h
7016 ff        rst     38h
7017 ff        rst     38h
7018 ff        rst     38h
7019 ff        rst     38h
701a ff        rst     38h
701b ff        rst     38h
701c ff        rst     38h
701d ff        rst     38h
701e ff        rst     38h
701f ff        rst     38h
7020 ff        rst     38h
7021 ff        rst     38h
7022 ff        rst     38h
7023 ff        rst     38h
7024 ff        rst     38h
7025 ff        rst     38h
7026 ff        rst     38h
7027 ff        rst     38h
7028 ff        rst     38h
7029 ff        rst     38h
702a ff        rst     38h
702b ff        rst     38h
702c ff        rst     38h
702d ff        rst     38h
702e ff        rst     38h
702f ff        rst     38h
7030 ff        rst     38h
7031 ff        rst     38h
7032 ff        rst     38h
7033 ff        rst     38h
7034 ff        rst     38h
7035 ff        rst     38h
7036 ff        rst     38h
7037 ff        rst     38h
7038 ff        rst     38h
7039 ff        rst     38h
703a ff        rst     38h
703b ff        rst     38h
703c ff        rst     38h
703d ff        rst     38h
703e ff        rst     38h
703f ff        rst     38h
7040 ff        rst     38h
7041 ff        rst     38h
7042 ff        rst     38h
7043 ff        rst     38h
7044 ff        rst     38h
7045 ff        rst     38h
7046 ff        rst     38h
7047 ff        rst     38h
7048 ff        rst     38h
7049 ff        rst     38h
704a ff        rst     38h
704b ff        rst     38h
704c ff        rst     38h
704d ff        rst     38h
704e ff        rst     38h
704f ff        rst     38h
7050 ff        rst     38h
7051 ff        rst     38h
7052 ff        rst     38h
7053 ff        rst     38h
7054 ff        rst     38h
7055 ff        rst     38h
7056 ff        rst     38h
7057 ff        rst     38h
7058 ff        rst     38h
7059 ff        rst     38h
705a ff        rst     38h
705b ff        rst     38h
705c ff        rst     38h
705d ff        rst     38h
705e ff        rst     38h
705f ff        rst     38h
7060 ff        rst     38h
7061 ff        rst     38h
7062 ff        rst     38h
7063 ff        rst     38h
7064 ff        rst     38h
7065 ff        rst     38h
7066 ff        rst     38h
7067 ff        rst     38h
7068 ff        rst     38h
7069 ff        rst     38h
706a ff        rst     38h
706b ff        rst     38h
706c ff        rst     38h
706d ff        rst     38h
706e ff        rst     38h
706f ff        rst     38h
7070 ff        rst     38h
7071 ff        rst     38h
7072 ff        rst     38h
7073 ff        rst     38h
7074 ff        rst     38h
7075 ff        rst     38h
7076 ff        rst     38h
7077 ff        rst     38h
7078 ff        rst     38h
7079 ff        rst     38h
707a ff        rst     38h
707b ff        rst     38h
707c ff        rst     38h
707d ff        rst     38h
707e ff        rst     38h
707f ff        rst     38h
7080 ff        rst     38h
7081 ff        rst     38h
7082 ff        rst     38h
7083 ff        rst     38h
7084 ff        rst     38h
7085 ff        rst     38h
7086 ff        rst     38h
7087 ff        rst     38h
7088 ff        rst     38h
7089 ff        rst     38h
708a ff        rst     38h
708b ff        rst     38h
708c ff        rst     38h
708d ff        rst     38h
708e ff        rst     38h
708f ff        rst     38h
7090 ff        rst     38h
7091 ff        rst     38h
7092 ff        rst     38h
7093 ff        rst     38h
7094 ff        rst     38h
7095 ff        rst     38h
7096 ff        rst     38h
7097 ff        rst     38h
7098 ff        rst     38h
7099 ff        rst     38h
709a ff        rst     38h
709b ff        rst     38h
709c ff        rst     38h
709d ff        rst     38h
709e ff        rst     38h
709f ff        rst     38h
70a0 ff        rst     38h
70a1 ff        rst     38h
70a2 ff        rst     38h
70a3 ff        rst     38h
70a4 ff        rst     38h
70a5 ff        rst     38h
70a6 ff        rst     38h
70a7 ff        rst     38h
70a8 ff        rst     38h
70a9 ff        rst     38h
70aa ff        rst     38h
70ab ff        rst     38h
70ac ff        rst     38h
70ad ff        rst     38h
70ae ff        rst     38h
70af ff        rst     38h
70b0 ff        rst     38h
70b1 ff        rst     38h
70b2 ff        rst     38h
70b3 ff        rst     38h
70b4 ff        rst     38h
70b5 ff        rst     38h
70b6 ff        rst     38h
70b7 ff        rst     38h
70b8 ff        rst     38h
70b9 ff        rst     38h
70ba ff        rst     38h
70bb ff        rst     38h
70bc ff        rst     38h
70bd ff        rst     38h
70be ff        rst     38h
70bf ff        rst     38h
70c0 ff        rst     38h
70c1 ff        rst     38h
70c2 ff        rst     38h
70c3 ff        rst     38h
70c4 ff        rst     38h
70c5 ff        rst     38h
70c6 ff        rst     38h
70c7 ff        rst     38h
70c8 ff        rst     38h
70c9 ff        rst     38h
70ca ff        rst     38h
70cb ff        rst     38h
70cc ff        rst     38h
70cd ff        rst     38h
70ce ff        rst     38h
70cf ff        rst     38h
70d0 ff        rst     38h
70d1 ff        rst     38h
70d2 ff        rst     38h
70d3 ff        rst     38h
70d4 ff        rst     38h
70d5 ff        rst     38h
70d6 ff        rst     38h
70d7 ff        rst     38h
70d8 ff        rst     38h
70d9 ff        rst     38h
70da ff        rst     38h
70db ff        rst     38h
70dc ff        rst     38h
70dd ff        rst     38h
70de ff        rst     38h
70df ff        rst     38h
70e0 ff        rst     38h
70e1 ff        rst     38h
70e2 ff        rst     38h
70e3 ff        rst     38h
70e4 ff        rst     38h
70e5 ff        rst     38h
70e6 ff        rst     38h
70e7 ff        rst     38h
70e8 ff        rst     38h
70e9 ff        rst     38h
70ea ff        rst     38h
70eb ff        rst     38h
70ec ff        rst     38h
70ed ff        rst     38h
70ee ff        rst     38h
70ef ff        rst     38h
70f0 ff        rst     38h
70f1 ff        rst     38h
70f2 ff        rst     38h
70f3 ff        rst     38h
70f4 ff        rst     38h
70f5 ff        rst     38h
70f6 ff        rst     38h
70f7 ff        rst     38h
70f8 ff        rst     38h
70f9 ff        rst     38h
70fa ff        rst     38h
70fb ff        rst     38h
70fc ff        rst     38h
70fd ff        rst     38h
70fe ff        rst     38h
70ff ff        rst     38h
7100 ff        rst     38h
7101 ff        rst     38h
7102 ff        rst     38h
7103 ff        rst     38h
7104 ff        rst     38h
7105 ff        rst     38h
7106 ff        rst     38h
7107 ff        rst     38h
7108 ff        rst     38h
7109 ff        rst     38h
710a ff        rst     38h
710b ff        rst     38h
710c ff        rst     38h
710d ff        rst     38h
710e ff        rst     38h
710f ff        rst     38h
7110 ff        rst     38h
7111 ff        rst     38h
7112 ff        rst     38h
7113 ff        rst     38h
7114 ff        rst     38h
7115 ff        rst     38h
7116 ff        rst     38h
7117 ff        rst     38h
7118 ff        rst     38h
7119 ff        rst     38h
711a ff        rst     38h
711b ff        rst     38h
711c ff        rst     38h
711d ff        rst     38h
711e ff        rst     38h
711f ff        rst     38h
7120 ff        rst     38h
7121 ff        rst     38h
7122 ff        rst     38h
7123 ff        rst     38h
7124 ff        rst     38h
7125 ff        rst     38h
7126 ff        rst     38h
7127 ff        rst     38h
7128 ff        rst     38h
7129 ff        rst     38h
712a ff        rst     38h
712b ff        rst     38h
712c ff        rst     38h
712d ff        rst     38h
712e ff        rst     38h
712f ff        rst     38h
7130 ff        rst     38h
7131 ff        rst     38h
7132 ff        rst     38h
7133 ff        rst     38h
7134 ff        rst     38h
7135 ff        rst     38h
7136 ff        rst     38h
7137 ff        rst     38h
7138 ff        rst     38h
7139 ff        rst     38h
713a ff        rst     38h
713b ff        rst     38h
713c ff        rst     38h
713d ff        rst     38h
713e ff        rst     38h
713f ff        rst     38h
7140 ff        rst     38h
7141 ff        rst     38h
7142 ff        rst     38h
7143 ff        rst     38h
7144 ff        rst     38h
7145 ff        rst     38h
7146 ff        rst     38h
7147 ff        rst     38h
7148 ff        rst     38h
7149 ff        rst     38h
714a ff        rst     38h
714b ff        rst     38h
714c ff        rst     38h
714d ff        rst     38h
714e ff        rst     38h
714f ff        rst     38h
7150 ff        rst     38h
7151 ff        rst     38h
7152 ff        rst     38h
7153 ff        rst     38h
7154 ff        rst     38h
7155 ff        rst     38h
7156 ff        rst     38h
7157 ff        rst     38h
7158 ff        rst     38h
7159 ff        rst     38h
715a ff        rst     38h
715b ff        rst     38h
715c ff        rst     38h
715d ff        rst     38h
715e ff        rst     38h
715f ff        rst     38h
7160 ff        rst     38h
7161 ff        rst     38h
7162 ff        rst     38h
7163 ff        rst     38h
7164 ff        rst     38h
7165 ff        rst     38h
7166 ff        rst     38h
7167 ff        rst     38h
7168 ff        rst     38h
7169 ff        rst     38h
716a ff        rst     38h
716b ff        rst     38h
716c ff        rst     38h
716d ff        rst     38h
716e ff        rst     38h
716f ff        rst     38h
7170 ff        rst     38h
7171 ff        rst     38h
7172 ff        rst     38h
7173 ff        rst     38h
7174 ff        rst     38h
7175 ff        rst     38h
7176 ff        rst     38h
7177 ff        rst     38h
7178 ff        rst     38h
7179 ff        rst     38h
717a ff        rst     38h
717b ff        rst     38h
717c ff        rst     38h
717d ff        rst     38h
717e ff        rst     38h
717f ff        rst     38h
7180 ff        rst     38h
7181 ff        rst     38h
7182 ff        rst     38h
7183 ff        rst     38h
7184 ff        rst     38h
7185 ff        rst     38h
7186 ff        rst     38h
7187 ff        rst     38h
7188 ff        rst     38h
7189 ff        rst     38h
718a ff        rst     38h
718b ff        rst     38h
718c ff        rst     38h
718d ff        rst     38h
718e ff        rst     38h
718f ff        rst     38h
7190 ff        rst     38h
7191 ff        rst     38h
7192 ff        rst     38h
7193 ff        rst     38h
7194 ff        rst     38h
7195 ff        rst     38h
7196 ff        rst     38h
7197 ff        rst     38h
7198 ff        rst     38h
7199 ff        rst     38h
719a ff        rst     38h
719b ff        rst     38h
719c ff        rst     38h
719d ff        rst     38h
719e ff        rst     38h
719f ff        rst     38h
71a0 ff        rst     38h
71a1 ff        rst     38h
71a2 ff        rst     38h
71a3 ff        rst     38h
71a4 ff        rst     38h
71a5 ff        rst     38h
71a6 ff        rst     38h
71a7 ff        rst     38h
71a8 ff        rst     38h
71a9 ff        rst     38h
71aa ff        rst     38h
71ab ff        rst     38h
71ac ff        rst     38h
71ad ff        rst     38h
71ae ff        rst     38h
71af ff        rst     38h
71b0 ff        rst     38h
71b1 ff        rst     38h
71b2 ff        rst     38h
71b3 ff        rst     38h
71b4 ff        rst     38h
71b5 ff        rst     38h
71b6 ff        rst     38h
71b7 ff        rst     38h
71b8 ff        rst     38h
71b9 ff        rst     38h
71ba ff        rst     38h
71bb ff        rst     38h
71bc ff        rst     38h
71bd ff        rst     38h
71be ff        rst     38h
71bf ff        rst     38h
71c0 ff        rst     38h
71c1 ff        rst     38h
71c2 ff        rst     38h
71c3 ff        rst     38h
71c4 ff        rst     38h
71c5 ff        rst     38h
71c6 ff        rst     38h
71c7 ff        rst     38h
71c8 ff        rst     38h
71c9 ff        rst     38h
71ca ff        rst     38h
71cb ff        rst     38h
71cc ff        rst     38h
71cd ff        rst     38h
71ce ff        rst     38h
71cf ff        rst     38h
71d0 ff        rst     38h
71d1 ff        rst     38h
71d2 ff        rst     38h
71d3 ff        rst     38h
71d4 ff        rst     38h
71d5 ff        rst     38h
71d6 ff        rst     38h
71d7 ff        rst     38h
71d8 ff        rst     38h
71d9 ff        rst     38h
71da ff        rst     38h
71db ff        rst     38h
71dc ff        rst     38h
71dd ff        rst     38h
71de ff        rst     38h
71df ff        rst     38h
71e0 ff        rst     38h
71e1 ff        rst     38h
71e2 ff        rst     38h
71e3 ff        rst     38h
71e4 ff        rst     38h
71e5 ff        rst     38h
71e6 ff        rst     38h
71e7 ff        rst     38h
71e8 ff        rst     38h
71e9 ff        rst     38h
71ea ff        rst     38h
71eb ff        rst     38h
71ec ff        rst     38h
71ed ff        rst     38h
71ee ff        rst     38h
71ef ff        rst     38h
71f0 ff        rst     38h
71f1 ff        rst     38h
71f2 ff        rst     38h
71f3 ff        rst     38h
71f4 ff        rst     38h
71f5 ff        rst     38h
71f6 ff        rst     38h
71f7 ff        rst     38h
71f8 ff        rst     38h
71f9 ff        rst     38h
71fa ff        rst     38h
71fb ff        rst     38h
71fc ff        rst     38h
71fd ff        rst     38h
71fe ff        rst     38h
71ff ff        rst     38h
7200 ff        rst     38h
7201 ff        rst     38h
7202 ff        rst     38h
7203 ff        rst     38h
7204 ff        rst     38h
7205 ff        rst     38h
7206 ff        rst     38h
7207 ff        rst     38h
7208 ff        rst     38h
7209 ff        rst     38h
720a ff        rst     38h
720b ff        rst     38h
720c ff        rst     38h
720d ff        rst     38h
720e ff        rst     38h
720f ff        rst     38h
7210 ff        rst     38h
7211 ff        rst     38h
7212 ff        rst     38h
7213 ff        rst     38h
7214 ff        rst     38h
7215 ff        rst     38h
7216 ff        rst     38h
7217 ff        rst     38h
7218 ff        rst     38h
7219 ff        rst     38h
721a ff        rst     38h
721b ff        rst     38h
721c ff        rst     38h
721d ff        rst     38h
721e ff        rst     38h
721f ff        rst     38h
7220 ff        rst     38h
7221 ff        rst     38h
7222 ff        rst     38h
7223 ff        rst     38h
7224 ff        rst     38h
7225 ff        rst     38h
7226 ff        rst     38h
7227 ff        rst     38h
7228 ff        rst     38h
7229 ff        rst     38h
722a ff        rst     38h
722b ff        rst     38h
722c ff        rst     38h
722d ff        rst     38h
722e ff        rst     38h
722f ff        rst     38h
7230 ff        rst     38h
7231 ff        rst     38h
7232 ff        rst     38h
7233 ff        rst     38h
7234 ff        rst     38h
7235 ff        rst     38h
7236 ff        rst     38h
7237 ff        rst     38h
7238 ff        rst     38h
7239 ff        rst     38h
723a ff        rst     38h
723b ff        rst     38h
723c ff        rst     38h
723d ff        rst     38h
723e ff        rst     38h
723f ff        rst     38h
7240 ff        rst     38h
7241 ff        rst     38h
7242 ff        rst     38h
7243 ff        rst     38h
7244 ff        rst     38h
7245 ff        rst     38h
7246 ff        rst     38h
7247 ff        rst     38h
7248 ff        rst     38h
7249 ff        rst     38h
724a ff        rst     38h
724b ff        rst     38h
724c ff        rst     38h
724d ff        rst     38h
724e ff        rst     38h
724f ff        rst     38h
7250 ff        rst     38h
7251 ff        rst     38h
7252 ff        rst     38h
7253 ff        rst     38h
7254 ff        rst     38h
7255 ff        rst     38h
7256 ff        rst     38h
7257 ff        rst     38h
7258 ff        rst     38h
7259 ff        rst     38h
725a ff        rst     38h
725b ff        rst     38h
725c ff        rst     38h
725d ff        rst     38h
725e ff        rst     38h
725f ff        rst     38h
7260 ff        rst     38h
7261 ff        rst     38h
7262 ff        rst     38h
7263 ff        rst     38h
7264 ff        rst     38h
7265 ff        rst     38h
7266 ff        rst     38h
7267 ff        rst     38h
7268 ff        rst     38h
7269 ff        rst     38h
726a ff        rst     38h
726b ff        rst     38h
726c ff        rst     38h
726d ff        rst     38h
726e ff        rst     38h
726f ff        rst     38h
7270 ff        rst     38h
7271 ff        rst     38h
7272 ff        rst     38h
7273 ff        rst     38h
7274 ff        rst     38h
7275 ff        rst     38h
7276 ff        rst     38h
7277 ff        rst     38h
7278 ff        rst     38h
7279 ff        rst     38h
727a ff        rst     38h
727b ff        rst     38h
727c ff        rst     38h
727d ff        rst     38h
727e ff        rst     38h
727f ff        rst     38h
7280 ff        rst     38h
7281 ff        rst     38h
7282 ff        rst     38h
7283 ff        rst     38h
7284 ff        rst     38h
7285 ff        rst     38h
7286 ff        rst     38h
7287 ff        rst     38h
7288 ff        rst     38h
7289 ff        rst     38h
728a ff        rst     38h
728b ff        rst     38h
728c ff        rst     38h
728d ff        rst     38h
728e ff        rst     38h
728f ff        rst     38h
7290 ff        rst     38h
7291 ff        rst     38h
7292 ff        rst     38h
7293 ff        rst     38h
7294 ff        rst     38h
7295 ff        rst     38h
7296 ff        rst     38h
7297 ff        rst     38h
7298 ff        rst     38h
7299 ff        rst     38h
729a ff        rst     38h
729b ff        rst     38h
729c ff        rst     38h
729d ff        rst     38h
729e ff        rst     38h
729f ff        rst     38h
72a0 ff        rst     38h
72a1 ff        rst     38h
72a2 ff        rst     38h
72a3 ff        rst     38h
72a4 ff        rst     38h
72a5 ff        rst     38h
72a6 ff        rst     38h
72a7 ff        rst     38h
72a8 ff        rst     38h
72a9 ff        rst     38h
72aa ff        rst     38h
72ab ff        rst     38h
72ac ff        rst     38h
72ad ff        rst     38h
72ae ff        rst     38h
72af ff        rst     38h
72b0 ff        rst     38h
72b1 ff        rst     38h
72b2 ff        rst     38h
72b3 ff        rst     38h
72b4 ff        rst     38h
72b5 ff        rst     38h
72b6 ff        rst     38h
72b7 ff        rst     38h
72b8 ff        rst     38h
72b9 ff        rst     38h
72ba ff        rst     38h
72bb ff        rst     38h
72bc ff        rst     38h
72bd ff        rst     38h
72be ff        rst     38h
72bf ff        rst     38h
72c0 ff        rst     38h
72c1 ff        rst     38h
72c2 ff        rst     38h
72c3 ff        rst     38h
72c4 ff        rst     38h
72c5 ff        rst     38h
72c6 ff        rst     38h
72c7 ff        rst     38h
72c8 ff        rst     38h
72c9 ff        rst     38h
72ca ff        rst     38h
72cb ff        rst     38h
72cc ff        rst     38h
72cd ff        rst     38h
72ce ff        rst     38h
72cf ff        rst     38h
72d0 ff        rst     38h
72d1 ff        rst     38h
72d2 ff        rst     38h
72d3 ff        rst     38h
72d4 ff        rst     38h
72d5 ff        rst     38h
72d6 ff        rst     38h
72d7 ff        rst     38h
72d8 ff        rst     38h
72d9 ff        rst     38h
72da ff        rst     38h
72db ff        rst     38h
72dc ff        rst     38h
72dd ff        rst     38h
72de ff        rst     38h
72df ff        rst     38h
72e0 ff        rst     38h
72e1 ff        rst     38h
72e2 ff        rst     38h
72e3 ff        rst     38h
72e4 ff        rst     38h
72e5 ff        rst     38h
72e6 ff        rst     38h
72e7 ff        rst     38h
72e8 ff        rst     38h
72e9 ff        rst     38h
72ea ff        rst     38h
72eb ff        rst     38h
72ec ff        rst     38h
72ed ff        rst     38h
72ee ff        rst     38h
72ef ff        rst     38h
72f0 ff        rst     38h
72f1 ff        rst     38h
72f2 ff        rst     38h
72f3 ff        rst     38h
72f4 ff        rst     38h
72f5 ff        rst     38h
72f6 ff        rst     38h
72f7 ff        rst     38h
72f8 ff        rst     38h
72f9 ff        rst     38h
72fa ff        rst     38h
72fb ff        rst     38h
72fc ff        rst     38h
72fd ff        rst     38h
72fe ff        rst     38h
72ff ff        rst     38h
7300 ff        rst     38h
7301 ff        rst     38h
7302 ff        rst     38h
7303 ff        rst     38h
7304 ff        rst     38h
7305 ff        rst     38h
7306 ff        rst     38h
7307 ff        rst     38h
7308 ff        rst     38h
7309 ff        rst     38h
730a ff        rst     38h
730b ff        rst     38h
730c ff        rst     38h
730d ff        rst     38h
730e ff        rst     38h
730f ff        rst     38h
7310 ff        rst     38h
7311 ff        rst     38h
7312 ff        rst     38h
7313 ff        rst     38h
7314 ff        rst     38h
7315 ff        rst     38h
7316 ff        rst     38h
7317 ff        rst     38h
7318 ff        rst     38h
7319 ff        rst     38h
731a ff        rst     38h
731b ff        rst     38h
731c ff        rst     38h
731d ff        rst     38h
731e ff        rst     38h
731f ff        rst     38h
7320 ff        rst     38h
7321 ff        rst     38h
7322 ff        rst     38h
7323 ff        rst     38h
7324 ff        rst     38h
7325 ff        rst     38h
7326 ff        rst     38h
7327 ff        rst     38h
7328 ff        rst     38h
7329 ff        rst     38h
732a ff        rst     38h
732b ff        rst     38h
732c ff        rst     38h
732d ff        rst     38h
732e ff        rst     38h
732f ff        rst     38h
7330 ff        rst     38h
7331 ff        rst     38h
7332 ff        rst     38h
7333 ff        rst     38h
7334 ff        rst     38h
7335 ff        rst     38h
7336 ff        rst     38h
7337 ff        rst     38h
7338 ff        rst     38h
7339 ff        rst     38h
733a ff        rst     38h
733b ff        rst     38h
733c ff        rst     38h
733d ff        rst     38h
733e ff        rst     38h
733f ff        rst     38h
7340 ff        rst     38h
7341 ff        rst     38h
7342 ff        rst     38h
7343 ff        rst     38h
7344 ff        rst     38h
7345 ff        rst     38h
7346 ff        rst     38h
7347 ff        rst     38h
7348 ff        rst     38h
7349 ff        rst     38h
734a ff        rst     38h
734b ff        rst     38h
734c ff        rst     38h
734d ff        rst     38h
734e ff        rst     38h
734f ff        rst     38h
7350 ff        rst     38h
7351 ff        rst     38h
7352 ff        rst     38h
7353 ff        rst     38h
7354 ff        rst     38h
7355 ff        rst     38h
7356 ff        rst     38h
7357 ff        rst     38h
7358 ff        rst     38h
7359 ff        rst     38h
735a ff        rst     38h
735b ff        rst     38h
735c ff        rst     38h
735d ff        rst     38h
735e ff        rst     38h
735f ff        rst     38h
7360 ff        rst     38h
7361 ff        rst     38h
7362 ff        rst     38h
7363 ff        rst     38h
7364 ff        rst     38h
7365 ff        rst     38h
7366 ff        rst     38h
7367 ff        rst     38h
7368 ff        rst     38h
7369 ff        rst     38h
736a ff        rst     38h
736b ff        rst     38h
736c ff        rst     38h
736d ff        rst     38h
736e ff        rst     38h
736f ff        rst     38h
7370 ff        rst     38h
7371 ff        rst     38h
7372 ff        rst     38h
7373 ff        rst     38h
7374 ff        rst     38h
7375 ff        rst     38h
7376 ff        rst     38h
7377 ff        rst     38h
7378 ff        rst     38h
7379 ff        rst     38h
737a ff        rst     38h
737b ff        rst     38h
737c ff        rst     38h
737d ff        rst     38h
737e ff        rst     38h
737f ff        rst     38h
7380 ff        rst     38h
7381 ff        rst     38h
7382 ff        rst     38h
7383 ff        rst     38h
7384 ff        rst     38h
7385 ff        rst     38h
7386 ff        rst     38h
7387 ff        rst     38h
7388 ff        rst     38h
7389 ff        rst     38h
738a ff        rst     38h
738b ff        rst     38h
738c ff        rst     38h
738d ff        rst     38h
738e ff        rst     38h
738f ff        rst     38h
7390 ff        rst     38h
7391 ff        rst     38h
7392 ff        rst     38h
7393 ff        rst     38h
7394 ff        rst     38h
7395 ff        rst     38h
7396 ff        rst     38h
7397 ff        rst     38h
7398 ff        rst     38h
7399 ff        rst     38h
739a ff        rst     38h
739b ff        rst     38h
739c ff        rst     38h
739d ff        rst     38h
739e ff        rst     38h
739f ff        rst     38h
73a0 ff        rst     38h
73a1 ff        rst     38h
73a2 ff        rst     38h
73a3 ff        rst     38h
73a4 ff        rst     38h
73a5 ff        rst     38h
73a6 ff        rst     38h
73a7 ff        rst     38h
73a8 ff        rst     38h
73a9 ff        rst     38h
73aa ff        rst     38h
73ab ff        rst     38h
73ac ff        rst     38h
73ad ff        rst     38h
73ae ff        rst     38h
73af ff        rst     38h
73b0 ff        rst     38h
73b1 ff        rst     38h
73b2 ff        rst     38h
73b3 ff        rst     38h
73b4 ff        rst     38h
73b5 ff        rst     38h
73b6 ff        rst     38h
73b7 ff        rst     38h
73b8 ff        rst     38h
73b9 ff        rst     38h
73ba ff        rst     38h
73bb ff        rst     38h
73bc ff        rst     38h
73bd ff        rst     38h
73be ff        rst     38h
73bf ff        rst     38h
73c0 ff        rst     38h
73c1 ff        rst     38h
73c2 ff        rst     38h
73c3 ff        rst     38h
73c4 ff        rst     38h
73c5 ff        rst     38h
73c6 ff        rst     38h
73c7 ff        rst     38h
73c8 ff        rst     38h
73c9 ff        rst     38h
73ca ff        rst     38h
73cb ff        rst     38h
73cc ff        rst     38h
73cd ff        rst     38h
73ce ff        rst     38h
73cf ff        rst     38h
73d0 ff        rst     38h
73d1 ff        rst     38h
73d2 ff        rst     38h
73d3 ff        rst     38h
73d4 ff        rst     38h
73d5 ff        rst     38h
73d6 ff        rst     38h
73d7 ff        rst     38h
73d8 ff        rst     38h
73d9 ff        rst     38h
73da ff        rst     38h
73db ff        rst     38h
73dc ff        rst     38h
73dd ff        rst     38h
73de ff        rst     38h
73df ff        rst     38h
73e0 ff        rst     38h
73e1 ff        rst     38h
73e2 ff        rst     38h
73e3 ff        rst     38h
73e4 ff        rst     38h
73e5 ff        rst     38h
73e6 ff        rst     38h
73e7 ff        rst     38h
73e8 ff        rst     38h
73e9 ff        rst     38h
73ea ff        rst     38h
73eb ff        rst     38h
73ec ff        rst     38h
73ed ff        rst     38h
73ee ff        rst     38h
73ef ff        rst     38h
73f0 ff        rst     38h
73f1 ff        rst     38h
73f2 ff        rst     38h
73f3 ff        rst     38h
73f4 ff        rst     38h
73f5 ff        rst     38h
73f6 ff        rst     38h
73f7 ff        rst     38h
73f8 ff        rst     38h
73f9 ff        rst     38h
73fa ff        rst     38h
73fb ff        rst     38h
73fc ff        rst     38h
73fd ff        rst     38h
73fe ff        rst     38h
73ff ff        rst     38h
7400 ff        rst     38h
7401 ff        rst     38h
7402 ff        rst     38h
7403 ff        rst     38h
7404 ff        rst     38h
7405 ff        rst     38h
7406 ff        rst     38h
7407 ff        rst     38h
7408 ff        rst     38h
7409 ff        rst     38h
740a ff        rst     38h
740b ff        rst     38h
740c ff        rst     38h
740d ff        rst     38h
740e ff        rst     38h
740f ff        rst     38h
7410 ff        rst     38h
7411 ff        rst     38h
7412 ff        rst     38h
7413 ff        rst     38h
7414 ff        rst     38h
7415 ff        rst     38h
7416 ff        rst     38h
7417 ff        rst     38h
7418 ff        rst     38h
7419 ff        rst     38h
741a ff        rst     38h
741b ff        rst     38h
741c ff        rst     38h
741d ff        rst     38h
741e ff        rst     38h
741f ff        rst     38h
7420 ff        rst     38h
7421 ff        rst     38h
7422 ff        rst     38h
7423 ff        rst     38h
7424 ff        rst     38h
7425 ff        rst     38h
7426 ff        rst     38h
7427 ff        rst     38h
7428 ff        rst     38h
7429 ff        rst     38h
742a ff        rst     38h
742b ff        rst     38h
742c ff        rst     38h
742d ff        rst     38h
742e ff        rst     38h
742f ff        rst     38h
7430 ff        rst     38h
7431 ff        rst     38h
7432 ff        rst     38h
7433 ff        rst     38h
7434 ff        rst     38h
7435 ff        rst     38h
7436 ff        rst     38h
7437 ff        rst     38h
7438 ff        rst     38h
7439 ff        rst     38h
743a ff        rst     38h
743b ff        rst     38h
743c ff        rst     38h
743d ff        rst     38h
743e ff        rst     38h
743f ff        rst     38h
7440 ff        rst     38h
7441 ff        rst     38h
7442 ff        rst     38h
7443 ff        rst     38h
7444 ff        rst     38h
7445 ff        rst     38h
7446 ff        rst     38h
7447 ff        rst     38h
7448 ff        rst     38h
7449 ff        rst     38h
744a ff        rst     38h
744b ff        rst     38h
744c ff        rst     38h
744d ff        rst     38h
744e ff        rst     38h
744f ff        rst     38h
7450 ff        rst     38h
7451 ff        rst     38h
7452 ff        rst     38h
7453 ff        rst     38h
7454 ff        rst     38h
7455 ff        rst     38h
7456 ff        rst     38h
7457 ff        rst     38h
7458 ff        rst     38h
7459 ff        rst     38h
745a ff        rst     38h
745b ff        rst     38h
745c ff        rst     38h
745d ff        rst     38h
745e ff        rst     38h
745f ff        rst     38h
7460 ff        rst     38h
7461 ff        rst     38h
7462 ff        rst     38h
7463 ff        rst     38h
7464 ff        rst     38h
7465 ff        rst     38h
7466 ff        rst     38h
7467 ff        rst     38h
7468 ff        rst     38h
7469 ff        rst     38h
746a ff        rst     38h
746b ff        rst     38h
746c ff        rst     38h
746d ff        rst     38h
746e ff        rst     38h
746f ff        rst     38h
7470 ff        rst     38h
7471 ff        rst     38h
7472 ff        rst     38h
7473 ff        rst     38h
7474 ff        rst     38h
7475 ff        rst     38h
7476 ff        rst     38h
7477 ff        rst     38h
7478 ff        rst     38h
7479 ff        rst     38h
747a ff        rst     38h
747b ff        rst     38h
747c ff        rst     38h
747d ff        rst     38h
747e ff        rst     38h
747f ff        rst     38h
7480 ff        rst     38h
7481 ff        rst     38h
7482 ff        rst     38h
7483 ff        rst     38h
7484 ff        rst     38h
7485 ff        rst     38h
7486 ff        rst     38h
7487 ff        rst     38h
7488 ff        rst     38h
7489 ff        rst     38h
748a ff        rst     38h
748b ff        rst     38h
748c ff        rst     38h
748d ff        rst     38h
748e ff        rst     38h
748f ff        rst     38h
7490 ff        rst     38h
7491 ff        rst     38h
7492 ff        rst     38h
7493 ff        rst     38h
7494 ff        rst     38h
7495 ff        rst     38h
7496 ff        rst     38h
7497 ff        rst     38h
7498 ff        rst     38h
7499 ff        rst     38h
749a ff        rst     38h
749b ff        rst     38h
749c ff        rst     38h
749d ff        rst     38h
749e ff        rst     38h
749f ff        rst     38h
74a0 ff        rst     38h
74a1 ff        rst     38h
74a2 ff        rst     38h
74a3 ff        rst     38h
74a4 ff        rst     38h
74a5 ff        rst     38h
74a6 ff        rst     38h
74a7 ff        rst     38h
74a8 ff        rst     38h
74a9 ff        rst     38h
74aa ff        rst     38h
74ab ff        rst     38h
74ac ff        rst     38h
74ad ff        rst     38h
74ae ff        rst     38h
74af ff        rst     38h
74b0 ff        rst     38h
74b1 ff        rst     38h
74b2 ff        rst     38h
74b3 ff        rst     38h
74b4 ff        rst     38h
74b5 ff        rst     38h
74b6 ff        rst     38h
74b7 ff        rst     38h
74b8 ff        rst     38h
74b9 ff        rst     38h
74ba ff        rst     38h
74bb ff        rst     38h
74bc ff        rst     38h
74bd ff        rst     38h
74be ff        rst     38h
74bf ff        rst     38h
74c0 ff        rst     38h
74c1 ff        rst     38h
74c2 ff        rst     38h
74c3 ff        rst     38h
74c4 ff        rst     38h
74c5 ff        rst     38h
74c6 ff        rst     38h
74c7 ff        rst     38h
74c8 ff        rst     38h
74c9 ff        rst     38h
74ca ff        rst     38h
74cb ff        rst     38h
74cc ff        rst     38h
74cd ff        rst     38h
74ce ff        rst     38h
74cf ff        rst     38h
74d0 ff        rst     38h
74d1 ff        rst     38h
74d2 ff        rst     38h
74d3 ff        rst     38h
74d4 ff        rst     38h
74d5 ff        rst     38h
74d6 ff        rst     38h
74d7 ff        rst     38h
74d8 ff        rst     38h
74d9 ff        rst     38h
74da ff        rst     38h
74db ff        rst     38h
74dc ff        rst     38h
74dd ff        rst     38h
74de ff        rst     38h
74df ff        rst     38h
74e0 ff        rst     38h
74e1 ff        rst     38h
74e2 ff        rst     38h
74e3 ff        rst     38h
74e4 ff        rst     38h
74e5 ff        rst     38h
74e6 ff        rst     38h
74e7 ff        rst     38h
74e8 ff        rst     38h
74e9 ff        rst     38h
74ea ff        rst     38h
74eb ff        rst     38h
74ec ff        rst     38h
74ed ff        rst     38h
74ee ff        rst     38h
74ef ff        rst     38h
74f0 ff        rst     38h
74f1 ff        rst     38h
74f2 ff        rst     38h
74f3 ff        rst     38h
74f4 ff        rst     38h
74f5 ff        rst     38h
74f6 ff        rst     38h
74f7 ff        rst     38h
74f8 ff        rst     38h
74f9 ff        rst     38h
74fa ff        rst     38h
74fb ff        rst     38h
74fc ff        rst     38h
74fd ff        rst     38h
74fe ff        rst     38h
74ff ff        rst     38h
7500 ff        rst     38h
7501 ff        rst     38h
7502 ff        rst     38h
7503 ff        rst     38h
7504 ff        rst     38h
7505 ff        rst     38h
7506 ff        rst     38h
7507 ff        rst     38h
7508 ff        rst     38h
7509 ff        rst     38h
750a ff        rst     38h
750b ff        rst     38h
750c ff        rst     38h
750d ff        rst     38h
750e ff        rst     38h
750f ff        rst     38h
7510 ff        rst     38h
7511 ff        rst     38h
7512 ff        rst     38h
7513 ff        rst     38h
7514 ff        rst     38h
7515 ff        rst     38h
7516 ff        rst     38h
7517 ff        rst     38h
7518 ff        rst     38h
7519 ff        rst     38h
751a ff        rst     38h
751b ff        rst     38h
751c ff        rst     38h
751d ff        rst     38h
751e ff        rst     38h
751f ff        rst     38h
7520 ff        rst     38h
7521 ff        rst     38h
7522 ff        rst     38h
7523 ff        rst     38h
7524 ff        rst     38h
7525 ff        rst     38h
7526 ff        rst     38h
7527 ff        rst     38h
7528 ff        rst     38h
7529 ff        rst     38h
752a ff        rst     38h
752b ff        rst     38h
752c ff        rst     38h
752d ff        rst     38h
752e ff        rst     38h
752f ff        rst     38h
7530 ff        rst     38h
7531 ff        rst     38h
7532 ff        rst     38h
7533 ff        rst     38h
7534 ff        rst     38h
7535 ff        rst     38h
7536 ff        rst     38h
7537 ff        rst     38h
7538 ff        rst     38h
7539 ff        rst     38h
753a ff        rst     38h
753b ff        rst     38h
753c ff        rst     38h
753d ff        rst     38h
753e ff        rst     38h
753f ff        rst     38h
7540 ff        rst     38h
7541 ff        rst     38h
7542 ff        rst     38h
7543 ff        rst     38h
7544 ff        rst     38h
7545 ff        rst     38h
7546 ff        rst     38h
7547 ff        rst     38h
7548 ff        rst     38h
7549 ff        rst     38h
754a ff        rst     38h
754b ff        rst     38h
754c ff        rst     38h
754d ff        rst     38h
754e ff        rst     38h
754f ff        rst     38h
7550 ff        rst     38h
7551 ff        rst     38h
7552 ff        rst     38h
7553 ff        rst     38h
7554 ff        rst     38h
7555 ff        rst     38h
7556 ff        rst     38h
7557 ff        rst     38h
7558 ff        rst     38h
7559 ff        rst     38h
755a ff        rst     38h
755b ff        rst     38h
755c ff        rst     38h
755d ff        rst     38h
755e ff        rst     38h
755f ff        rst     38h
7560 ff        rst     38h
7561 ff        rst     38h
7562 ff        rst     38h
7563 ff        rst     38h
7564 ff        rst     38h
7565 ff        rst     38h
7566 ff        rst     38h
7567 ff        rst     38h
7568 ff        rst     38h
7569 ff        rst     38h
756a ff        rst     38h
756b ff        rst     38h
756c ff        rst     38h
756d ff        rst     38h
756e ff        rst     38h
756f ff        rst     38h
7570 ff        rst     38h
7571 ff        rst     38h
7572 ff        rst     38h
7573 ff        rst     38h
7574 ff        rst     38h
7575 ff        rst     38h
7576 ff        rst     38h
7577 ff        rst     38h
7578 ff        rst     38h
7579 ff        rst     38h
757a ff        rst     38h
757b ff        rst     38h
757c ff        rst     38h
757d ff        rst     38h
757e ff        rst     38h
757f ff        rst     38h
7580 ff        rst     38h
7581 ff        rst     38h
7582 ff        rst     38h
7583 ff        rst     38h
7584 ff        rst     38h
7585 ff        rst     38h
7586 ff        rst     38h
7587 ff        rst     38h
7588 ff        rst     38h
7589 ff        rst     38h
758a ff        rst     38h
758b ff        rst     38h
758c ff        rst     38h
758d ff        rst     38h
758e ff        rst     38h
758f ff        rst     38h
7590 ff        rst     38h
7591 ff        rst     38h
7592 ff        rst     38h
7593 ff        rst     38h
7594 ff        rst     38h
7595 ff        rst     38h
7596 ff        rst     38h
7597 ff        rst     38h
7598 ff        rst     38h
7599 ff        rst     38h
759a ff        rst     38h
759b ff        rst     38h
759c ff        rst     38h
759d ff        rst     38h
759e ff        rst     38h
759f ff        rst     38h
75a0 ff        rst     38h
75a1 ff        rst     38h
75a2 ff        rst     38h
75a3 ff        rst     38h
75a4 ff        rst     38h
75a5 ff        rst     38h
75a6 ff        rst     38h
75a7 ff        rst     38h
75a8 ff        rst     38h
75a9 ff        rst     38h
75aa ff        rst     38h
75ab ff        rst     38h
75ac ff        rst     38h
75ad ff        rst     38h
75ae ff        rst     38h
75af ff        rst     38h
75b0 ff        rst     38h
75b1 ff        rst     38h
75b2 ff        rst     38h
75b3 ff        rst     38h
75b4 ff        rst     38h
75b5 ff        rst     38h
75b6 ff        rst     38h
75b7 ff        rst     38h
75b8 ff        rst     38h
75b9 ff        rst     38h
75ba ff        rst     38h
75bb ff        rst     38h
75bc ff        rst     38h
75bd ff        rst     38h
75be ff        rst     38h
75bf ff        rst     38h
75c0 ff        rst     38h
75c1 ff        rst     38h
75c2 ff        rst     38h
75c3 ff        rst     38h
75c4 ff        rst     38h
75c5 ff        rst     38h
75c6 ff        rst     38h
75c7 ff        rst     38h
75c8 ff        rst     38h
75c9 ff        rst     38h
75ca ff        rst     38h
75cb ff        rst     38h
75cc ff        rst     38h
75cd ff        rst     38h
75ce ff        rst     38h
75cf ff        rst     38h
75d0 ff        rst     38h
75d1 ff        rst     38h
75d2 ff        rst     38h
75d3 ff        rst     38h
75d4 ff        rst     38h
75d5 ff        rst     38h
75d6 ff        rst     38h
75d7 ff        rst     38h
75d8 ff        rst     38h
75d9 ff        rst     38h
75da ff        rst     38h
75db ff        rst     38h
75dc ff        rst     38h
75dd ff        rst     38h
75de ff        rst     38h
75df ff        rst     38h
75e0 ff        rst     38h
75e1 ff        rst     38h
75e2 ff        rst     38h
75e3 ff        rst     38h
75e4 ff        rst     38h
75e5 ff        rst     38h
75e6 ff        rst     38h
75e7 ff        rst     38h
75e8 ff        rst     38h
75e9 ff        rst     38h
75ea ff        rst     38h
75eb ff        rst     38h
75ec ff        rst     38h
75ed ff        rst     38h
75ee ff        rst     38h
75ef ff        rst     38h
75f0 ff        rst     38h
75f1 ff        rst     38h
75f2 ff        rst     38h
75f3 ff        rst     38h
75f4 ff        rst     38h
75f5 ff        rst     38h
75f6 ff        rst     38h
75f7 ff        rst     38h
75f8 ff        rst     38h
75f9 ff        rst     38h
75fa ff        rst     38h
75fb ff        rst     38h
75fc ff        rst     38h
75fd ff        rst     38h
75fe ff        rst     38h
75ff ff        rst     38h
7600 ff        rst     38h
7601 ff        rst     38h
7602 ff        rst     38h
7603 ff        rst     38h
7604 ff        rst     38h
7605 ff        rst     38h
7606 ff        rst     38h
7607 ff        rst     38h
7608 ff        rst     38h
7609 ff        rst     38h
760a ff        rst     38h
760b ff        rst     38h
760c ff        rst     38h
760d ff        rst     38h
760e ff        rst     38h
760f ff        rst     38h
7610 ff        rst     38h
7611 ff        rst     38h
7612 ff        rst     38h
7613 ff        rst     38h
7614 ff        rst     38h
7615 ff        rst     38h
7616 ff        rst     38h
7617 ff        rst     38h
7618 ff        rst     38h
7619 ff        rst     38h
761a ff        rst     38h
761b ff        rst     38h
761c ff        rst     38h
761d ff        rst     38h
761e ff        rst     38h
761f ff        rst     38h
7620 ff        rst     38h
7621 ff        rst     38h
7622 ff        rst     38h
7623 ff        rst     38h
7624 ff        rst     38h
7625 ff        rst     38h
7626 ff        rst     38h
7627 ff        rst     38h
7628 ff        rst     38h
7629 ff        rst     38h
762a ff        rst     38h
762b ff        rst     38h
762c ff        rst     38h
762d ff        rst     38h
762e ff        rst     38h
762f ff        rst     38h
7630 ff        rst     38h
7631 ff        rst     38h
7632 ff        rst     38h
7633 ff        rst     38h
7634 ff        rst     38h
7635 ff        rst     38h
7636 ff        rst     38h
7637 ff        rst     38h
7638 ff        rst     38h
7639 ff        rst     38h
763a ff        rst     38h
763b ff        rst     38h
763c ff        rst     38h
763d ff        rst     38h
763e ff        rst     38h
763f ff        rst     38h
7640 ff        rst     38h
7641 ff        rst     38h
7642 ff        rst     38h
7643 ff        rst     38h
7644 ff        rst     38h
7645 ff        rst     38h
7646 ff        rst     38h
7647 ff        rst     38h
7648 ff        rst     38h
7649 ff        rst     38h
764a ff        rst     38h
764b ff        rst     38h
764c ff        rst     38h
764d ff        rst     38h
764e ff        rst     38h
764f ff        rst     38h
7650 ff        rst     38h
7651 ff        rst     38h
7652 ff        rst     38h
7653 ff        rst     38h
7654 ff        rst     38h
7655 ff        rst     38h
7656 ff        rst     38h
7657 ff        rst     38h
7658 ff        rst     38h
7659 ff        rst     38h
765a ff        rst     38h
765b ff        rst     38h
765c ff        rst     38h
765d ff        rst     38h
765e ff        rst     38h
765f ff        rst     38h
7660 ff        rst     38h
7661 ff        rst     38h
7662 ff        rst     38h
7663 ff        rst     38h
7664 ff        rst     38h
7665 ff        rst     38h
7666 ff        rst     38h
7667 ff        rst     38h
7668 ff        rst     38h
7669 ff        rst     38h
766a ff        rst     38h
766b ff        rst     38h
766c ff        rst     38h
766d ff        rst     38h
766e ff        rst     38h
766f ff        rst     38h
7670 ff        rst     38h
7671 ff        rst     38h
7672 ff        rst     38h
7673 ff        rst     38h
7674 ff        rst     38h
7675 ff        rst     38h
7676 ff        rst     38h
7677 ff        rst     38h
7678 ff        rst     38h
7679 ff        rst     38h
767a ff        rst     38h
767b ff        rst     38h
767c ff        rst     38h
767d ff        rst     38h
767e ff        rst     38h
767f ff        rst     38h
7680 ff        rst     38h
7681 ff        rst     38h
7682 ff        rst     38h
7683 ff        rst     38h
7684 ff        rst     38h
7685 ff        rst     38h
7686 ff        rst     38h
7687 ff        rst     38h
7688 ff        rst     38h
7689 ff        rst     38h
768a ff        rst     38h
768b ff        rst     38h
768c ff        rst     38h
768d ff        rst     38h
768e ff        rst     38h
768f ff        rst     38h
7690 ff        rst     38h
7691 ff        rst     38h
7692 ff        rst     38h
7693 ff        rst     38h
7694 ff        rst     38h
7695 ff        rst     38h
7696 ff        rst     38h
7697 ff        rst     38h
7698 ff        rst     38h
7699 ff        rst     38h
769a ff        rst     38h
769b ff        rst     38h
769c ff        rst     38h
769d ff        rst     38h
769e ff        rst     38h
769f ff        rst     38h
76a0 ff        rst     38h
76a1 ff        rst     38h
76a2 ff        rst     38h
76a3 ff        rst     38h
76a4 ff        rst     38h
76a5 ff        rst     38h
76a6 ff        rst     38h
76a7 ff        rst     38h
76a8 ff        rst     38h
76a9 ff        rst     38h
76aa ff        rst     38h
76ab ff        rst     38h
76ac ff        rst     38h
76ad ff        rst     38h
76ae ff        rst     38h
76af ff        rst     38h
76b0 ff        rst     38h
76b1 ff        rst     38h
76b2 ff        rst     38h
76b3 ff        rst     38h
76b4 ff        rst     38h
76b5 ff        rst     38h
76b6 ff        rst     38h
76b7 ff        rst     38h
76b8 ff        rst     38h
76b9 ff        rst     38h
76ba ff        rst     38h
76bb ff        rst     38h
76bc ff        rst     38h
76bd ff        rst     38h
76be ff        rst     38h
76bf ff        rst     38h
76c0 ff        rst     38h
76c1 ff        rst     38h
76c2 ff        rst     38h
76c3 ff        rst     38h
76c4 ff        rst     38h
76c5 ff        rst     38h
76c6 ff        rst     38h
76c7 ff        rst     38h
76c8 ff        rst     38h
76c9 ff        rst     38h
76ca ff        rst     38h
76cb ff        rst     38h
76cc ff        rst     38h
76cd ff        rst     38h
76ce ff        rst     38h
76cf ff        rst     38h
76d0 ff        rst     38h
76d1 ff        rst     38h
76d2 ff        rst     38h
76d3 ff        rst     38h
76d4 ff        rst     38h
76d5 ff        rst     38h
76d6 ff        rst     38h
76d7 ff        rst     38h
76d8 ff        rst     38h
76d9 ff        rst     38h
76da ff        rst     38h
76db ff        rst     38h
76dc ff        rst     38h
76dd ff        rst     38h
76de ff        rst     38h
76df ff        rst     38h
76e0 ff        rst     38h
76e1 ff        rst     38h
76e2 ff        rst     38h
76e3 ff        rst     38h
76e4 ff        rst     38h
76e5 ff        rst     38h
76e6 ff        rst     38h
76e7 ff        rst     38h
76e8 ff        rst     38h
76e9 ff        rst     38h
76ea ff        rst     38h
76eb ff        rst     38h
76ec ff        rst     38h
76ed ff        rst     38h
76ee ff        rst     38h
76ef ff        rst     38h
76f0 ff        rst     38h
76f1 ff        rst     38h
76f2 ff        rst     38h
76f3 ff        rst     38h
76f4 ff        rst     38h
76f5 ff        rst     38h
76f6 ff        rst     38h
76f7 ff        rst     38h
76f8 ff        rst     38h
76f9 ff        rst     38h
76fa ff        rst     38h
76fb ff        rst     38h
76fc ff        rst     38h
76fd ff        rst     38h
76fe ff        rst     38h
76ff ff        rst     38h
7700 ff        rst     38h
7701 ff        rst     38h
7702 ff        rst     38h
7703 ff        rst     38h
7704 ff        rst     38h
7705 ff        rst     38h
7706 ff        rst     38h
7707 ff        rst     38h
7708 ff        rst     38h
7709 ff        rst     38h
770a ff        rst     38h
770b ff        rst     38h
770c ff        rst     38h
770d ff        rst     38h
770e ff        rst     38h
770f ff        rst     38h
7710 ff        rst     38h
7711 ff        rst     38h
7712 ff        rst     38h
7713 ff        rst     38h
7714 ff        rst     38h
7715 ff        rst     38h
7716 ff        rst     38h
7717 ff        rst     38h
7718 ff        rst     38h
7719 ff        rst     38h
771a ff        rst     38h
771b ff        rst     38h
771c ff        rst     38h
771d ff        rst     38h
771e ff        rst     38h
771f ff        rst     38h
7720 ff        rst     38h
7721 ff        rst     38h
7722 ff        rst     38h
7723 ff        rst     38h
7724 ff        rst     38h
7725 ff        rst     38h
7726 ff        rst     38h
7727 ff        rst     38h
7728 ff        rst     38h
7729 ff        rst     38h
772a ff        rst     38h
772b ff        rst     38h
772c ff        rst     38h
772d ff        rst     38h
772e ff        rst     38h
772f ff        rst     38h
7730 ff        rst     38h
7731 ff        rst     38h
7732 ff        rst     38h
7733 ff        rst     38h
7734 ff        rst     38h
7735 ff        rst     38h
7736 ff        rst     38h
7737 ff        rst     38h
7738 ff        rst     38h
7739 ff        rst     38h
773a ff        rst     38h
773b ff        rst     38h
773c ff        rst     38h
773d ff        rst     38h
773e ff        rst     38h
773f ff        rst     38h
7740 ff        rst     38h
7741 ff        rst     38h
7742 ff        rst     38h
7743 ff        rst     38h
7744 ff        rst     38h
7745 ff        rst     38h
7746 ff        rst     38h
7747 ff        rst     38h
7748 ff        rst     38h
7749 ff        rst     38h
774a ff        rst     38h
774b ff        rst     38h
774c ff        rst     38h
774d ff        rst     38h
774e ff        rst     38h
774f ff        rst     38h
7750 ff        rst     38h
7751 ff        rst     38h
7752 ff        rst     38h
7753 ff        rst     38h
7754 ff        rst     38h
7755 ff        rst     38h
7756 ff        rst     38h
7757 ff        rst     38h
7758 ff        rst     38h
7759 ff        rst     38h
775a ff        rst     38h
775b ff        rst     38h
775c ff        rst     38h
775d ff        rst     38h
775e ff        rst     38h
775f ff        rst     38h
7760 ff        rst     38h
7761 ff        rst     38h
7762 ff        rst     38h
7763 ff        rst     38h
7764 ff        rst     38h
7765 ff        rst     38h
7766 ff        rst     38h
7767 ff        rst     38h
7768 ff        rst     38h
7769 ff        rst     38h
776a ff        rst     38h
776b ff        rst     38h
776c ff        rst     38h
776d ff        rst     38h
776e ff        rst     38h
776f ff        rst     38h
7770 ff        rst     38h
7771 ff        rst     38h
7772 ff        rst     38h
7773 ff        rst     38h
7774 ff        rst     38h
7775 ff        rst     38h
7776 ff        rst     38h
7777 ff        rst     38h
7778 ff        rst     38h
7779 ff        rst     38h
777a ff        rst     38h
777b ff        rst     38h
777c ff        rst     38h
777d ff        rst     38h
777e ff        rst     38h
777f ff        rst     38h
7780 ff        rst     38h
7781 ff        rst     38h
7782 ff        rst     38h
7783 ff        rst     38h
7784 ff        rst     38h
7785 ff        rst     38h
7786 ff        rst     38h
7787 ff        rst     38h
7788 ff        rst     38h
7789 ff        rst     38h
778a ff        rst     38h
778b ff        rst     38h
778c ff        rst     38h
778d ff        rst     38h
778e ff        rst     38h
778f ff        rst     38h
7790 ff        rst     38h
7791 ff        rst     38h
7792 ff        rst     38h
7793 ff        rst     38h
7794 ff        rst     38h
7795 ff        rst     38h
7796 ff        rst     38h
7797 ff        rst     38h
7798 ff        rst     38h
7799 ff        rst     38h
779a ff        rst     38h
779b ff        rst     38h
779c ff        rst     38h
779d ff        rst     38h
779e ff        rst     38h
779f ff        rst     38h
77a0 ff        rst     38h
77a1 ff        rst     38h
77a2 ff        rst     38h
77a3 ff        rst     38h
77a4 ff        rst     38h
77a5 ff        rst     38h
77a6 ff        rst     38h
77a7 ff        rst     38h
77a8 ff        rst     38h
77a9 ff        rst     38h
77aa ff        rst     38h
77ab ff        rst     38h
77ac ff        rst     38h
77ad ff        rst     38h
77ae ff        rst     38h
77af ff        rst     38h
77b0 ff        rst     38h
77b1 ff        rst     38h
77b2 ff        rst     38h
77b3 ff        rst     38h
77b4 ff        rst     38h
77b5 ff        rst     38h
77b6 ff        rst     38h
77b7 ff        rst     38h
77b8 ff        rst     38h
77b9 ff        rst     38h
77ba ff        rst     38h
77bb ff        rst     38h
77bc ff        rst     38h
77bd ff        rst     38h
77be ff        rst     38h
77bf ff        rst     38h
77c0 ff        rst     38h
77c1 ff        rst     38h
77c2 ff        rst     38h
77c3 ff        rst     38h
77c4 ff        rst     38h
77c5 ff        rst     38h
77c6 ff        rst     38h
77c7 ff        rst     38h
77c8 ff        rst     38h
77c9 ff        rst     38h
77ca ff        rst     38h
77cb ff        rst     38h
77cc ff        rst     38h
77cd ff        rst     38h
77ce ff        rst     38h
77cf ff        rst     38h
77d0 ff        rst     38h
77d1 ff        rst     38h
77d2 ff        rst     38h
77d3 ff        rst     38h
77d4 ff        rst     38h
77d5 ff        rst     38h
77d6 ff        rst     38h
77d7 ff        rst     38h
77d8 ff        rst     38h
77d9 ff        rst     38h
77da ff        rst     38h
77db ff        rst     38h
77dc ff        rst     38h
77dd ff        rst     38h
77de ff        rst     38h
77df ff        rst     38h
77e0 ff        rst     38h
77e1 ff        rst     38h
77e2 ff        rst     38h
77e3 ff        rst     38h
77e4 ff        rst     38h
77e5 ff        rst     38h
77e6 ff        rst     38h
77e7 ff        rst     38h
77e8 ff        rst     38h
77e9 ff        rst     38h
77ea ff        rst     38h
77eb ff        rst     38h
77ec ff        rst     38h
77ed ff        rst     38h
77ee ff        rst     38h
77ef ff        rst     38h
77f0 ff        rst     38h
77f1 ff        rst     38h
77f2 ff        rst     38h
77f3 ff        rst     38h
77f4 ff        rst     38h
77f5 ff        rst     38h
77f6 ff        rst     38h
77f7 ff        rst     38h
77f8 ff        rst     38h
77f9 ff        rst     38h
77fa ff        rst     38h
77fb ff        rst     38h
77fc ff        rst     38h
77fd ff        rst     38h
77fe ff        rst     38h
77ff ff        rst     38h
7800 ff        rst     38h
7801 ff        rst     38h
7802 ff        rst     38h
7803 ff        rst     38h
7804 ff        rst     38h
7805 ff        rst     38h
7806 ff        rst     38h
7807 ff        rst     38h
7808 ff        rst     38h
7809 ff        rst     38h
780a ff        rst     38h
780b ff        rst     38h
780c ff        rst     38h
780d ff        rst     38h
780e ff        rst     38h
780f ff        rst     38h
7810 ff        rst     38h
7811 ff        rst     38h
7812 ff        rst     38h
7813 ff        rst     38h
7814 ff        rst     38h
7815 ff        rst     38h
7816 ff        rst     38h
7817 ff        rst     38h
7818 ff        rst     38h
7819 ff        rst     38h
781a ff        rst     38h
781b ff        rst     38h
781c ff        rst     38h
781d ff        rst     38h
781e ff        rst     38h
781f ff        rst     38h
7820 ff        rst     38h
7821 ff        rst     38h
7822 ff        rst     38h
7823 ff        rst     38h
7824 ff        rst     38h
7825 ff        rst     38h
7826 ff        rst     38h
7827 ff        rst     38h
7828 ff        rst     38h
7829 ff        rst     38h
782a ff        rst     38h
782b ff        rst     38h
782c ff        rst     38h
782d ff        rst     38h
782e ff        rst     38h
782f ff        rst     38h
7830 ff        rst     38h
7831 ff        rst     38h
7832 ff        rst     38h
7833 ff        rst     38h
7834 ff        rst     38h
7835 ff        rst     38h
7836 ff        rst     38h
7837 ff        rst     38h
7838 ff        rst     38h
7839 ff        rst     38h
783a ff        rst     38h
783b ff        rst     38h
783c ff        rst     38h
783d ff        rst     38h
783e ff        rst     38h
783f ff        rst     38h
7840 ff        rst     38h
7841 ff        rst     38h
7842 ff        rst     38h
7843 ff        rst     38h
7844 ff        rst     38h
7845 ff        rst     38h
7846 ff        rst     38h
7847 ff        rst     38h
7848 ff        rst     38h
7849 ff        rst     38h
784a ff        rst     38h
784b ff        rst     38h
784c ff        rst     38h
784d ff        rst     38h
784e ff        rst     38h
784f ff        rst     38h
7850 ff        rst     38h
7851 ff        rst     38h
7852 ff        rst     38h
7853 ff        rst     38h
7854 ff        rst     38h
7855 ff        rst     38h
7856 ff        rst     38h
7857 ff        rst     38h
7858 ff        rst     38h
7859 ff        rst     38h
785a ff        rst     38h
785b ff        rst     38h
785c ff        rst     38h
785d ff        rst     38h
785e ff        rst     38h
785f ff        rst     38h
7860 ff        rst     38h
7861 ff        rst     38h
7862 ff        rst     38h
7863 ff        rst     38h
7864 ff        rst     38h
7865 ff        rst     38h
7866 ff        rst     38h
7867 ff        rst     38h
7868 ff        rst     38h
7869 ff        rst     38h
786a ff        rst     38h
786b ff        rst     38h
786c ff        rst     38h
786d ff        rst     38h
786e ff        rst     38h
786f ff        rst     38h
7870 ff        rst     38h
7871 ff        rst     38h
7872 ff        rst     38h
7873 ff        rst     38h
7874 ff        rst     38h
7875 ff        rst     38h
7876 ff        rst     38h
7877 ff        rst     38h
7878 ff        rst     38h
7879 ff        rst     38h
787a ff        rst     38h
787b ff        rst     38h
787c ff        rst     38h
787d ff        rst     38h
787e ff        rst     38h
787f ff        rst     38h
7880 ff        rst     38h
7881 ff        rst     38h
7882 ff        rst     38h
7883 ff        rst     38h
7884 ff        rst     38h
7885 ff        rst     38h
7886 ff        rst     38h
7887 ff        rst     38h
7888 ff        rst     38h
7889 ff        rst     38h
788a ff        rst     38h
788b ff        rst     38h
788c ff        rst     38h
788d ff        rst     38h
788e ff        rst     38h
788f ff        rst     38h
7890 ff        rst     38h
7891 ff        rst     38h
7892 ff        rst     38h
7893 ff        rst     38h
7894 ff        rst     38h
7895 ff        rst     38h
7896 ff        rst     38h
7897 ff        rst     38h
7898 ff        rst     38h
7899 ff        rst     38h
789a ff        rst     38h
789b ff        rst     38h
789c ff        rst     38h
789d ff        rst     38h
789e ff        rst     38h
789f ff        rst     38h
78a0 ff        rst     38h
78a1 ff        rst     38h
78a2 ff        rst     38h
78a3 ff        rst     38h
78a4 ff        rst     38h
78a5 ff        rst     38h
78a6 ff        rst     38h
78a7 ff        rst     38h
78a8 ff        rst     38h
78a9 ff        rst     38h
78aa ff        rst     38h
78ab ff        rst     38h
78ac ff        rst     38h
78ad ff        rst     38h
78ae ff        rst     38h
78af ff        rst     38h
78b0 ff        rst     38h
78b1 ff        rst     38h
78b2 ff        rst     38h
78b3 ff        rst     38h
78b4 ff        rst     38h
78b5 ff        rst     38h
78b6 ff        rst     38h
78b7 ff        rst     38h
78b8 ff        rst     38h
78b9 ff        rst     38h
78ba ff        rst     38h
78bb ff        rst     38h
78bc ff        rst     38h
78bd ff        rst     38h
78be ff        rst     38h
78bf ff        rst     38h
78c0 ff        rst     38h
78c1 ff        rst     38h
78c2 ff        rst     38h
78c3 ff        rst     38h
78c4 ff        rst     38h
78c5 ff        rst     38h
78c6 ff        rst     38h
78c7 ff        rst     38h
78c8 ff        rst     38h
78c9 ff        rst     38h
78ca ff        rst     38h
78cb ff        rst     38h
78cc ff        rst     38h
78cd ff        rst     38h
78ce ff        rst     38h
78cf ff        rst     38h
78d0 ff        rst     38h
78d1 ff        rst     38h
78d2 ff        rst     38h
78d3 ff        rst     38h
78d4 ff        rst     38h
78d5 ff        rst     38h
78d6 ff        rst     38h
78d7 ff        rst     38h
78d8 ff        rst     38h
78d9 ff        rst     38h
78da ff        rst     38h
78db ff        rst     38h
78dc ff        rst     38h
78dd ff        rst     38h
78de ff        rst     38h
78df ff        rst     38h
78e0 ff        rst     38h
78e1 ff        rst     38h
78e2 ff        rst     38h
78e3 ff        rst     38h
78e4 ff        rst     38h
78e5 ff        rst     38h
78e6 ff        rst     38h
78e7 ff        rst     38h
78e8 ff        rst     38h
78e9 ff        rst     38h
78ea ff        rst     38h
78eb ff        rst     38h
78ec ff        rst     38h
78ed ff        rst     38h
78ee ff        rst     38h
78ef ff        rst     38h
78f0 ff        rst     38h
78f1 ff        rst     38h
78f2 ff        rst     38h
78f3 ff        rst     38h
78f4 ff        rst     38h
78f5 ff        rst     38h
78f6 ff        rst     38h
78f7 ff        rst     38h
78f8 ff        rst     38h
78f9 ff        rst     38h
78fa ff        rst     38h
78fb ff        rst     38h
78fc ff        rst     38h
78fd ff        rst     38h
78fe ff        rst     38h
78ff ff        rst     38h
7900 ff        rst     38h
7901 ff        rst     38h
7902 ff        rst     38h
7903 ff        rst     38h
7904 ff        rst     38h
7905 ff        rst     38h
7906 ff        rst     38h
7907 ff        rst     38h
7908 ff        rst     38h
7909 ff        rst     38h
790a ff        rst     38h
790b ff        rst     38h
790c ff        rst     38h
790d ff        rst     38h
790e ff        rst     38h
790f ff        rst     38h
7910 ff        rst     38h
7911 ff        rst     38h
7912 ff        rst     38h
7913 ff        rst     38h
7914 ff        rst     38h
7915 ff        rst     38h
7916 ff        rst     38h
7917 ff        rst     38h
7918 ff        rst     38h
7919 ff        rst     38h
791a ff        rst     38h
791b ff        rst     38h
791c ff        rst     38h
791d ff        rst     38h
791e ff        rst     38h
791f ff        rst     38h
7920 ff        rst     38h
7921 ff        rst     38h
7922 ff        rst     38h
7923 ff        rst     38h
7924 ff        rst     38h
7925 ff        rst     38h
7926 ff        rst     38h
7927 ff        rst     38h
7928 ff        rst     38h
7929 ff        rst     38h
792a ff        rst     38h
792b ff        rst     38h
792c ff        rst     38h
792d ff        rst     38h
792e ff        rst     38h
792f ff        rst     38h
7930 ff        rst     38h
7931 ff        rst     38h
7932 ff        rst     38h
7933 ff        rst     38h
7934 ff        rst     38h
7935 ff        rst     38h
7936 ff        rst     38h
7937 ff        rst     38h
7938 ff        rst     38h
7939 ff        rst     38h
793a ff        rst     38h
793b ff        rst     38h
793c ff        rst     38h
793d ff        rst     38h
793e ff        rst     38h
793f ff        rst     38h
7940 ff        rst     38h
7941 ff        rst     38h
7942 ff        rst     38h
7943 ff        rst     38h
7944 ff        rst     38h
7945 ff        rst     38h
7946 ff        rst     38h
7947 ff        rst     38h
7948 ff        rst     38h
7949 ff        rst     38h
794a ff        rst     38h
794b ff        rst     38h
794c ff        rst     38h
794d ff        rst     38h
794e ff        rst     38h
794f ff        rst     38h
7950 ff        rst     38h
7951 ff        rst     38h
7952 ff        rst     38h
7953 ff        rst     38h
7954 ff        rst     38h
7955 ff        rst     38h
7956 ff        rst     38h
7957 ff        rst     38h
7958 ff        rst     38h
7959 ff        rst     38h
795a ff        rst     38h
795b ff        rst     38h
795c ff        rst     38h
795d ff        rst     38h
795e ff        rst     38h
795f ff        rst     38h
7960 ff        rst     38h
7961 ff        rst     38h
7962 ff        rst     38h
7963 ff        rst     38h
7964 ff        rst     38h
7965 ff        rst     38h
7966 ff        rst     38h
7967 ff        rst     38h
7968 ff        rst     38h
7969 ff        rst     38h
796a ff        rst     38h
796b ff        rst     38h
796c ff        rst     38h
796d ff        rst     38h
796e ff        rst     38h
796f ff        rst     38h
7970 ff        rst     38h
7971 ff        rst     38h
7972 ff        rst     38h
7973 ff        rst     38h
7974 ff        rst     38h
7975 ff        rst     38h
7976 ff        rst     38h
7977 ff        rst     38h
7978 ff        rst     38h
7979 ff        rst     38h
797a ff        rst     38h
797b ff        rst     38h
797c ff        rst     38h
797d ff        rst     38h
797e ff        rst     38h
797f ff        rst     38h
7980 ff        rst     38h
7981 ff        rst     38h
7982 ff        rst     38h
7983 ff        rst     38h
7984 ff        rst     38h
7985 ff        rst     38h
7986 ff        rst     38h
7987 ff        rst     38h
7988 ff        rst     38h
7989 ff        rst     38h
798a ff        rst     38h
798b ff        rst     38h
798c ff        rst     38h
798d ff        rst     38h
798e ff        rst     38h
798f ff        rst     38h
7990 ff        rst     38h
7991 ff        rst     38h
7992 ff        rst     38h
7993 ff        rst     38h
7994 ff        rst     38h
7995 ff        rst     38h
7996 ff        rst     38h
7997 ff        rst     38h
7998 ff        rst     38h
7999 ff        rst     38h
799a ff        rst     38h
799b ff        rst     38h
799c ff        rst     38h
799d ff        rst     38h
799e ff        rst     38h
799f ff        rst     38h
79a0 ff        rst     38h
79a1 ff        rst     38h
79a2 ff        rst     38h
79a3 ff        rst     38h
79a4 ff        rst     38h
79a5 ff        rst     38h
79a6 ff        rst     38h
79a7 ff        rst     38h
79a8 ff        rst     38h
79a9 ff        rst     38h
79aa ff        rst     38h
79ab ff        rst     38h
79ac ff        rst     38h
79ad ff        rst     38h
79ae ff        rst     38h
79af ff        rst     38h
79b0 ff        rst     38h
79b1 ff        rst     38h
79b2 ff        rst     38h
79b3 ff        rst     38h
79b4 ff        rst     38h
79b5 ff        rst     38h
79b6 ff        rst     38h
79b7 ff        rst     38h
79b8 ff        rst     38h
79b9 ff        rst     38h
79ba ff        rst     38h
79bb ff        rst     38h
79bc ff        rst     38h
79bd ff        rst     38h
79be ff        rst     38h
79bf ff        rst     38h
79c0 ff        rst     38h
79c1 ff        rst     38h
79c2 ff        rst     38h
79c3 ff        rst     38h
79c4 ff        rst     38h
79c5 ff        rst     38h
79c6 ff        rst     38h
79c7 ff        rst     38h
79c8 ff        rst     38h
79c9 ff        rst     38h
79ca ff        rst     38h
79cb ff        rst     38h
79cc ff        rst     38h
79cd ff        rst     38h
79ce ff        rst     38h
79cf ff        rst     38h
79d0 ff        rst     38h
79d1 ff        rst     38h
79d2 ff        rst     38h
79d3 ff        rst     38h
79d4 ff        rst     38h
79d5 ff        rst     38h
79d6 ff        rst     38h
79d7 ff        rst     38h
79d8 ff        rst     38h
79d9 ff        rst     38h
79da ff        rst     38h
79db ff        rst     38h
79dc ff        rst     38h
79dd ff        rst     38h
79de ff        rst     38h
79df ff        rst     38h
79e0 ff        rst     38h
79e1 ff        rst     38h
79e2 ff        rst     38h
79e3 ff        rst     38h
79e4 ff        rst     38h
79e5 ff        rst     38h
79e6 ff        rst     38h
79e7 ff        rst     38h
79e8 ff        rst     38h
79e9 ff        rst     38h
79ea ff        rst     38h
79eb ff        rst     38h
79ec ff        rst     38h
79ed ff        rst     38h
79ee ff        rst     38h
79ef ff        rst     38h
79f0 ff        rst     38h
79f1 ff        rst     38h
79f2 ff        rst     38h
79f3 ff        rst     38h
79f4 ff        rst     38h
79f5 ff        rst     38h
79f6 ff        rst     38h
79f7 ff        rst     38h
79f8 ff        rst     38h
79f9 ff        rst     38h
79fa ff        rst     38h
79fb ff        rst     38h
79fc ff        rst     38h
79fd ff        rst     38h
79fe ff        rst     38h
79ff ff        rst     38h
7a00 ff        rst     38h
7a01 ff        rst     38h
7a02 ff        rst     38h
7a03 ff        rst     38h
7a04 ff        rst     38h
7a05 ff        rst     38h
7a06 ff        rst     38h
7a07 ff        rst     38h
7a08 ff        rst     38h
7a09 ff        rst     38h
7a0a ff        rst     38h
7a0b ff        rst     38h
7a0c ff        rst     38h
7a0d ff        rst     38h
7a0e ff        rst     38h
7a0f ff        rst     38h
7a10 ff        rst     38h
7a11 ff        rst     38h
7a12 ff        rst     38h
7a13 ff        rst     38h
7a14 ff        rst     38h
7a15 ff        rst     38h
7a16 ff        rst     38h
7a17 ff        rst     38h
7a18 ff        rst     38h
7a19 ff        rst     38h
7a1a ff        rst     38h
7a1b ff        rst     38h
7a1c ff        rst     38h
7a1d ff        rst     38h
7a1e ff        rst     38h
7a1f ff        rst     38h
7a20 ff        rst     38h
7a21 ff        rst     38h
7a22 ff        rst     38h
7a23 ff        rst     38h
7a24 ff        rst     38h
7a25 ff        rst     38h
7a26 ff        rst     38h
7a27 ff        rst     38h
7a28 ff        rst     38h
7a29 ff        rst     38h
7a2a ff        rst     38h
7a2b ff        rst     38h
7a2c ff        rst     38h
7a2d ff        rst     38h
7a2e ff        rst     38h
7a2f ff        rst     38h
7a30 ff        rst     38h
7a31 ff        rst     38h
7a32 ff        rst     38h
7a33 ff        rst     38h
7a34 ff        rst     38h
7a35 ff        rst     38h
7a36 ff        rst     38h
7a37 ff        rst     38h
7a38 ff        rst     38h
7a39 ff        rst     38h
7a3a ff        rst     38h
7a3b ff        rst     38h
7a3c ff        rst     38h
7a3d ff        rst     38h
7a3e ff        rst     38h
7a3f ff        rst     38h
7a40 ff        rst     38h
7a41 ff        rst     38h
7a42 ff        rst     38h
7a43 ff        rst     38h
7a44 ff        rst     38h
7a45 ff        rst     38h
7a46 ff        rst     38h
7a47 ff        rst     38h
7a48 ff        rst     38h
7a49 ff        rst     38h
7a4a ff        rst     38h
7a4b ff        rst     38h
7a4c ff        rst     38h
7a4d ff        rst     38h
7a4e ff        rst     38h
7a4f ff        rst     38h
7a50 ff        rst     38h
7a51 ff        rst     38h
7a52 ff        rst     38h
7a53 ff        rst     38h
7a54 ff        rst     38h
7a55 ff        rst     38h
7a56 ff        rst     38h
7a57 ff        rst     38h
7a58 ff        rst     38h
7a59 ff        rst     38h
7a5a ff        rst     38h
7a5b ff        rst     38h
7a5c ff        rst     38h
7a5d ff        rst     38h
7a5e ff        rst     38h
7a5f ff        rst     38h
7a60 ff        rst     38h
7a61 ff        rst     38h
7a62 ff        rst     38h
7a63 ff        rst     38h
7a64 ff        rst     38h
7a65 ff        rst     38h
7a66 ff        rst     38h
7a67 ff        rst     38h
7a68 ff        rst     38h
7a69 ff        rst     38h
7a6a ff        rst     38h
7a6b ff        rst     38h
7a6c ff        rst     38h
7a6d ff        rst     38h
7a6e ff        rst     38h
7a6f ff        rst     38h
7a70 ff        rst     38h
7a71 ff        rst     38h
7a72 ff        rst     38h
7a73 ff        rst     38h
7a74 ff        rst     38h
7a75 ff        rst     38h
7a76 ff        rst     38h
7a77 ff        rst     38h
7a78 ff        rst     38h
7a79 ff        rst     38h
7a7a ff        rst     38h
7a7b ff        rst     38h
7a7c ff        rst     38h
7a7d ff        rst     38h
7a7e ff        rst     38h
7a7f ff        rst     38h
7a80 ff        rst     38h
7a81 ff        rst     38h
7a82 ff        rst     38h
7a83 ff        rst     38h
7a84 ff        rst     38h
7a85 ff        rst     38h
7a86 ff        rst     38h
7a87 ff        rst     38h
7a88 ff        rst     38h
7a89 ff        rst     38h
7a8a ff        rst     38h
7a8b ff        rst     38h
7a8c ff        rst     38h
7a8d ff        rst     38h
7a8e ff        rst     38h
7a8f ff        rst     38h
7a90 ff        rst     38h
7a91 ff        rst     38h
7a92 ff        rst     38h
7a93 ff        rst     38h
7a94 ff        rst     38h
7a95 ff        rst     38h
7a96 ff        rst     38h
7a97 ff        rst     38h
7a98 ff        rst     38h
7a99 ff        rst     38h
7a9a ff        rst     38h
7a9b ff        rst     38h
7a9c ff        rst     38h
7a9d ff        rst     38h
7a9e ff        rst     38h
7a9f ff        rst     38h
7aa0 ff        rst     38h
7aa1 ff        rst     38h
7aa2 ff        rst     38h
7aa3 ff        rst     38h
7aa4 ff        rst     38h
7aa5 ff        rst     38h
7aa6 ff        rst     38h
7aa7 ff        rst     38h
7aa8 ff        rst     38h
7aa9 ff        rst     38h
7aaa ff        rst     38h
7aab ff        rst     38h
7aac ff        rst     38h
7aad ff        rst     38h
7aae ff        rst     38h
7aaf ff        rst     38h
7ab0 ff        rst     38h
7ab1 ff        rst     38h
7ab2 ff        rst     38h
7ab3 ff        rst     38h
7ab4 ff        rst     38h
7ab5 ff        rst     38h
7ab6 ff        rst     38h
7ab7 ff        rst     38h
7ab8 ff        rst     38h
7ab9 ff        rst     38h
7aba ff        rst     38h
7abb ff        rst     38h
7abc ff        rst     38h
7abd ff        rst     38h
7abe ff        rst     38h
7abf ff        rst     38h
7ac0 ff        rst     38h
7ac1 ff        rst     38h
7ac2 ff        rst     38h
7ac3 ff        rst     38h
7ac4 ff        rst     38h
7ac5 ff        rst     38h
7ac6 ff        rst     38h
7ac7 ff        rst     38h
7ac8 ff        rst     38h
7ac9 ff        rst     38h
7aca ff        rst     38h
7acb ff        rst     38h
7acc ff        rst     38h
7acd ff        rst     38h
7ace ff        rst     38h
7acf ff        rst     38h
7ad0 ff        rst     38h
7ad1 ff        rst     38h
7ad2 ff        rst     38h
7ad3 ff        rst     38h
7ad4 ff        rst     38h
7ad5 ff        rst     38h
7ad6 ff        rst     38h
7ad7 ff        rst     38h
7ad8 ff        rst     38h
7ad9 ff        rst     38h
7ada ff        rst     38h
7adb ff        rst     38h
7adc ff        rst     38h
7add ff        rst     38h
7ade ff        rst     38h
7adf ff        rst     38h
7ae0 ff        rst     38h
7ae1 ff        rst     38h
7ae2 ff        rst     38h
7ae3 ff        rst     38h
7ae4 ff        rst     38h
7ae5 ff        rst     38h
7ae6 ff        rst     38h
7ae7 ff        rst     38h
7ae8 ff        rst     38h
7ae9 ff        rst     38h
7aea ff        rst     38h
7aeb ff        rst     38h
7aec ff        rst     38h
7aed ff        rst     38h
7aee ff        rst     38h
7aef ff        rst     38h
7af0 ff        rst     38h
7af1 ff        rst     38h
7af2 ff        rst     38h
7af3 ff        rst     38h
7af4 ff        rst     38h
7af5 ff        rst     38h
7af6 ff        rst     38h
7af7 ff        rst     38h
7af8 ff        rst     38h
7af9 ff        rst     38h
7afa ff        rst     38h
7afb ff        rst     38h
7afc ff        rst     38h
7afd ff        rst     38h
7afe ff        rst     38h
7aff ff        rst     38h
7b00 ff        rst     38h
7b01 ff        rst     38h
7b02 ff        rst     38h
7b03 ff        rst     38h
7b04 ff        rst     38h
7b05 ff        rst     38h
7b06 ff        rst     38h
7b07 ff        rst     38h
7b08 ff        rst     38h
7b09 ff        rst     38h
7b0a ff        rst     38h
7b0b ff        rst     38h
7b0c ff        rst     38h
7b0d ff        rst     38h
7b0e ff        rst     38h
7b0f ff        rst     38h
7b10 ff        rst     38h
7b11 ff        rst     38h
7b12 ff        rst     38h
7b13 ff        rst     38h
7b14 ff        rst     38h
7b15 ff        rst     38h
7b16 ff        rst     38h
7b17 ff        rst     38h
7b18 ff        rst     38h
7b19 ff        rst     38h
7b1a ff        rst     38h
7b1b ff        rst     38h
7b1c ff        rst     38h
7b1d ff        rst     38h
7b1e ff        rst     38h
7b1f ff        rst     38h
7b20 ff        rst     38h
7b21 ff        rst     38h
7b22 ff        rst     38h
7b23 ff        rst     38h
7b24 ff        rst     38h
7b25 ff        rst     38h
7b26 ff        rst     38h
7b27 ff        rst     38h
7b28 ff        rst     38h
7b29 ff        rst     38h
7b2a ff        rst     38h
7b2b ff        rst     38h
7b2c ff        rst     38h
7b2d ff        rst     38h
7b2e ff        rst     38h
7b2f ff        rst     38h
7b30 ff        rst     38h
7b31 ff        rst     38h
7b32 ff        rst     38h
7b33 ff        rst     38h
7b34 ff        rst     38h
7b35 ff        rst     38h
7b36 ff        rst     38h
7b37 ff        rst     38h
7b38 ff        rst     38h
7b39 ff        rst     38h
7b3a ff        rst     38h
7b3b ff        rst     38h
7b3c ff        rst     38h
7b3d ff        rst     38h
7b3e ff        rst     38h
7b3f ff        rst     38h
7b40 ff        rst     38h
7b41 ff        rst     38h
7b42 ff        rst     38h
7b43 ff        rst     38h
7b44 ff        rst     38h
7b45 ff        rst     38h
7b46 ff        rst     38h
7b47 ff        rst     38h
7b48 ff        rst     38h
7b49 ff        rst     38h
7b4a ff        rst     38h
7b4b ff        rst     38h
7b4c ff        rst     38h
7b4d ff        rst     38h
7b4e ff        rst     38h
7b4f ff        rst     38h
7b50 ff        rst     38h
7b51 ff        rst     38h
7b52 ff        rst     38h
7b53 ff        rst     38h
7b54 ff        rst     38h
7b55 ff        rst     38h
7b56 ff        rst     38h
7b57 ff        rst     38h
7b58 ff        rst     38h
7b59 ff        rst     38h
7b5a ff        rst     38h
7b5b ff        rst     38h
7b5c ff        rst     38h
7b5d ff        rst     38h
7b5e ff        rst     38h
7b5f ff        rst     38h
7b60 ff        rst     38h
7b61 ff        rst     38h
7b62 ff        rst     38h
7b63 ff        rst     38h
7b64 ff        rst     38h
7b65 ff        rst     38h
7b66 ff        rst     38h
7b67 ff        rst     38h
7b68 ff        rst     38h
7b69 ff        rst     38h
7b6a ff        rst     38h
7b6b ff        rst     38h
7b6c ff        rst     38h
7b6d ff        rst     38h
7b6e ff        rst     38h
7b6f ff        rst     38h
7b70 ff        rst     38h
7b71 ff        rst     38h
7b72 ff        rst     38h
7b73 ff        rst     38h
7b74 ff        rst     38h
7b75 ff        rst     38h
7b76 ff        rst     38h
7b77 ff        rst     38h
7b78 ff        rst     38h
7b79 ff        rst     38h
7b7a ff        rst     38h
7b7b ff        rst     38h
7b7c ff        rst     38h
7b7d ff        rst     38h
7b7e ff        rst     38h
7b7f ff        rst     38h
7b80 ff        rst     38h
7b81 ff        rst     38h
7b82 ff        rst     38h
7b83 ff        rst     38h
7b84 ff        rst     38h
7b85 ff        rst     38h
7b86 ff        rst     38h
7b87 ff        rst     38h
7b88 ff        rst     38h
7b89 ff        rst     38h
7b8a ff        rst     38h
7b8b ff        rst     38h
7b8c ff        rst     38h
7b8d ff        rst     38h
7b8e ff        rst     38h
7b8f ff        rst     38h
7b90 ff        rst     38h
7b91 ff        rst     38h
7b92 ff        rst     38h
7b93 ff        rst     38h
7b94 ff        rst     38h
7b95 ff        rst     38h
7b96 ff        rst     38h
7b97 ff        rst     38h
7b98 ff        rst     38h
7b99 ff        rst     38h
7b9a ff        rst     38h
7b9b ff        rst     38h
7b9c ff        rst     38h
7b9d ff        rst     38h
7b9e ff        rst     38h
7b9f ff        rst     38h
7ba0 ff        rst     38h
7ba1 ff        rst     38h
7ba2 ff        rst     38h
7ba3 ff        rst     38h
7ba4 ff        rst     38h
7ba5 ff        rst     38h
7ba6 ff        rst     38h
7ba7 ff        rst     38h
7ba8 ff        rst     38h
7ba9 ff        rst     38h
7baa ff        rst     38h
7bab ff        rst     38h
7bac ff        rst     38h
7bad ff        rst     38h
7bae ff        rst     38h
7baf ff        rst     38h
7bb0 ff        rst     38h
7bb1 ff        rst     38h
7bb2 ff        rst     38h
7bb3 ff        rst     38h
7bb4 ff        rst     38h
7bb5 ff        rst     38h
7bb6 ff        rst     38h
7bb7 ff        rst     38h
7bb8 ff        rst     38h
7bb9 ff        rst     38h
7bba ff        rst     38h
7bbb ff        rst     38h
7bbc ff        rst     38h
7bbd ff        rst     38h
7bbe ff        rst     38h
7bbf ff        rst     38h
7bc0 ff        rst     38h
7bc1 ff        rst     38h
7bc2 ff        rst     38h
7bc3 ff        rst     38h
7bc4 ff        rst     38h
7bc5 ff        rst     38h
7bc6 ff        rst     38h
7bc7 ff        rst     38h
7bc8 ff        rst     38h
7bc9 ff        rst     38h
7bca ff        rst     38h
7bcb ff        rst     38h
7bcc ff        rst     38h
7bcd ff        rst     38h
7bce ff        rst     38h
7bcf ff        rst     38h
7bd0 ff        rst     38h
7bd1 ff        rst     38h
7bd2 ff        rst     38h
7bd3 ff        rst     38h
7bd4 ff        rst     38h
7bd5 ff        rst     38h
7bd6 ff        rst     38h
7bd7 ff        rst     38h
7bd8 ff        rst     38h
7bd9 ff        rst     38h
7bda ff        rst     38h
7bdb ff        rst     38h
7bdc ff        rst     38h
7bdd ff        rst     38h
7bde ff        rst     38h
7bdf ff        rst     38h
7be0 ff        rst     38h
7be1 ff        rst     38h
7be2 ff        rst     38h
7be3 ff        rst     38h
7be4 ff        rst     38h
7be5 ff        rst     38h
7be6 ff        rst     38h
7be7 ff        rst     38h
7be8 ff        rst     38h
7be9 ff        rst     38h
7bea ff        rst     38h
7beb ff        rst     38h
7bec ff        rst     38h
7bed ff        rst     38h
7bee ff        rst     38h
7bef ff        rst     38h
7bf0 ff        rst     38h
7bf1 ff        rst     38h
7bf2 ff        rst     38h
7bf3 ff        rst     38h
7bf4 ff        rst     38h
7bf5 ff        rst     38h
7bf6 ff        rst     38h
7bf7 ff        rst     38h
7bf8 ff        rst     38h
7bf9 ff        rst     38h
7bfa ff        rst     38h
7bfb ff        rst     38h
7bfc ff        rst     38h
7bfd ff        rst     38h
7bfe ff        rst     38h
7bff ff        rst     38h
7c00 ff        rst     38h
7c01 ff        rst     38h
7c02 ff        rst     38h
7c03 ff        rst     38h
7c04 ff        rst     38h
7c05 ff        rst     38h
7c06 ff        rst     38h
7c07 ff        rst     38h
7c08 ff        rst     38h
7c09 ff        rst     38h
7c0a ff        rst     38h
7c0b ff        rst     38h
7c0c ff        rst     38h
7c0d ff        rst     38h
7c0e ff        rst     38h
7c0f ff        rst     38h
7c10 ff        rst     38h
7c11 ff        rst     38h
7c12 ff        rst     38h
7c13 ff        rst     38h
7c14 ff        rst     38h
7c15 ff        rst     38h
7c16 ff        rst     38h
7c17 ff        rst     38h
7c18 ff        rst     38h
7c19 ff        rst     38h
7c1a ff        rst     38h
7c1b ff        rst     38h
7c1c ff        rst     38h
7c1d ff        rst     38h
7c1e ff        rst     38h
7c1f ff        rst     38h
7c20 ff        rst     38h
7c21 ff        rst     38h
7c22 ff        rst     38h
7c23 ff        rst     38h
7c24 ff        rst     38h
7c25 ff        rst     38h
7c26 ff        rst     38h
7c27 ff        rst     38h
7c28 ff        rst     38h
7c29 ff        rst     38h
7c2a ff        rst     38h
7c2b ff        rst     38h
7c2c ff        rst     38h
7c2d ff        rst     38h
7c2e ff        rst     38h
7c2f ff        rst     38h
7c30 ff        rst     38h
7c31 ff        rst     38h
7c32 ff        rst     38h
7c33 ff        rst     38h
7c34 ff        rst     38h
7c35 ff        rst     38h
7c36 ff        rst     38h
7c37 ff        rst     38h
7c38 ff        rst     38h
7c39 ff        rst     38h
7c3a ff        rst     38h
7c3b ff        rst     38h
7c3c ff        rst     38h
7c3d ff        rst     38h
7c3e ff        rst     38h
7c3f ff        rst     38h
7c40 ff        rst     38h
7c41 ff        rst     38h
7c42 ff        rst     38h
7c43 ff        rst     38h
7c44 ff        rst     38h
7c45 ff        rst     38h
7c46 ff        rst     38h
7c47 ff        rst     38h
7c48 ff        rst     38h
7c49 ff        rst     38h
7c4a ff        rst     38h
7c4b ff        rst     38h
7c4c ff        rst     38h
7c4d ff        rst     38h
7c4e ff        rst     38h
7c4f ff        rst     38h
7c50 ff        rst     38h
7c51 ff        rst     38h
7c52 ff        rst     38h
7c53 ff        rst     38h
7c54 ff        rst     38h
7c55 ff        rst     38h
7c56 ff        rst     38h
7c57 ff        rst     38h
7c58 ff        rst     38h
7c59 ff        rst     38h
7c5a ff        rst     38h
7c5b ff        rst     38h
7c5c ff        rst     38h
7c5d ff        rst     38h
7c5e ff        rst     38h
7c5f ff        rst     38h
7c60 ff        rst     38h
7c61 ff        rst     38h
7c62 ff        rst     38h
7c63 ff        rst     38h
7c64 ff        rst     38h
7c65 ff        rst     38h
7c66 ff        rst     38h
7c67 ff        rst     38h
7c68 ff        rst     38h
7c69 ff        rst     38h
7c6a ff        rst     38h
7c6b ff        rst     38h
7c6c ff        rst     38h
7c6d ff        rst     38h
7c6e ff        rst     38h
7c6f ff        rst     38h
7c70 ff        rst     38h
7c71 ff        rst     38h
7c72 ff        rst     38h
7c73 ff        rst     38h
7c74 ff        rst     38h
7c75 ff        rst     38h
7c76 ff        rst     38h
7c77 ff        rst     38h
7c78 ff        rst     38h
7c79 ff        rst     38h
7c7a ff        rst     38h
7c7b ff        rst     38h
7c7c ff        rst     38h
7c7d ff        rst     38h
7c7e ff        rst     38h
7c7f ff        rst     38h
7c80 ff        rst     38h
7c81 ff        rst     38h
7c82 ff        rst     38h
7c83 ff        rst     38h
7c84 ff        rst     38h
7c85 ff        rst     38h
7c86 ff        rst     38h
7c87 ff        rst     38h
7c88 ff        rst     38h
7c89 ff        rst     38h
7c8a ff        rst     38h
7c8b ff        rst     38h
7c8c ff        rst     38h
7c8d ff        rst     38h
7c8e ff        rst     38h
7c8f ff        rst     38h
7c90 ff        rst     38h
7c91 ff        rst     38h
7c92 ff        rst     38h
7c93 ff        rst     38h
7c94 ff        rst     38h
7c95 ff        rst     38h
7c96 ff        rst     38h
7c97 ff        rst     38h
7c98 ff        rst     38h
7c99 ff        rst     38h
7c9a ff        rst     38h
7c9b ff        rst     38h
7c9c ff        rst     38h
7c9d ff        rst     38h
7c9e ff        rst     38h
7c9f ff        rst     38h
7ca0 ff        rst     38h
7ca1 ff        rst     38h
7ca2 ff        rst     38h
7ca3 ff        rst     38h
7ca4 ff        rst     38h
7ca5 ff        rst     38h
7ca6 ff        rst     38h
7ca7 ff        rst     38h
7ca8 ff        rst     38h
7ca9 ff        rst     38h
7caa ff        rst     38h
7cab ff        rst     38h
7cac ff        rst     38h
7cad ff        rst     38h
7cae ff        rst     38h
7caf ff        rst     38h
7cb0 ff        rst     38h
7cb1 ff        rst     38h
7cb2 ff        rst     38h
7cb3 ff        rst     38h
7cb4 ff        rst     38h
7cb5 ff        rst     38h
7cb6 ff        rst     38h
7cb7 ff        rst     38h
7cb8 ff        rst     38h
7cb9 ff        rst     38h
7cba ff        rst     38h
7cbb ff        rst     38h
7cbc ff        rst     38h
7cbd ff        rst     38h
7cbe ff        rst     38h
7cbf ff        rst     38h
7cc0 ff        rst     38h
7cc1 ff        rst     38h
7cc2 ff        rst     38h
7cc3 ff        rst     38h
7cc4 ff        rst     38h
7cc5 ff        rst     38h
7cc6 ff        rst     38h
7cc7 ff        rst     38h
7cc8 ff        rst     38h
7cc9 ff        rst     38h
7cca ff        rst     38h
7ccb ff        rst     38h
7ccc ff        rst     38h
7ccd ff        rst     38h
7cce ff        rst     38h
7ccf ff        rst     38h
7cd0 ff        rst     38h
7cd1 ff        rst     38h
7cd2 ff        rst     38h
7cd3 ff        rst     38h
7cd4 ff        rst     38h
7cd5 ff        rst     38h
7cd6 ff        rst     38h
7cd7 ff        rst     38h
7cd8 ff        rst     38h
7cd9 ff        rst     38h
7cda ff        rst     38h
7cdb ff        rst     38h
7cdc ff        rst     38h
7cdd ff        rst     38h
7cde ff        rst     38h
7cdf ff        rst     38h
7ce0 ff        rst     38h
7ce1 ff        rst     38h
7ce2 ff        rst     38h
7ce3 ff        rst     38h
7ce4 ff        rst     38h
7ce5 ff        rst     38h
7ce6 ff        rst     38h
7ce7 ff        rst     38h
7ce8 ff        rst     38h
7ce9 ff        rst     38h
7cea ff        rst     38h
7ceb ff        rst     38h
7cec ff        rst     38h
7ced ff        rst     38h
7cee ff        rst     38h
7cef ff        rst     38h
7cf0 ff        rst     38h
7cf1 ff        rst     38h
7cf2 ff        rst     38h
7cf3 ff        rst     38h
7cf4 ff        rst     38h
7cf5 ff        rst     38h
7cf6 ff        rst     38h
7cf7 ff        rst     38h
7cf8 ff        rst     38h
7cf9 ff        rst     38h
7cfa ff        rst     38h
7cfb ff        rst     38h
7cfc ff        rst     38h
7cfd ff        rst     38h
7cfe ff        rst     38h
7cff ff        rst     38h
7d00 ff        rst     38h
7d01 ff        rst     38h
7d02 ff        rst     38h
7d03 ff        rst     38h
7d04 ff        rst     38h
7d05 ff        rst     38h
7d06 ff        rst     38h
7d07 ff        rst     38h
7d08 ff        rst     38h
7d09 ff        rst     38h
7d0a ff        rst     38h
7d0b ff        rst     38h
7d0c ff        rst     38h
7d0d ff        rst     38h
7d0e ff        rst     38h
7d0f ff        rst     38h
7d10 ff        rst     38h
7d11 ff        rst     38h
7d12 ff        rst     38h
7d13 ff        rst     38h
7d14 ff        rst     38h
7d15 ff        rst     38h
7d16 ff        rst     38h
7d17 ff        rst     38h
7d18 ff        rst     38h
7d19 ff        rst     38h
7d1a ff        rst     38h
7d1b ff        rst     38h
7d1c ff        rst     38h
7d1d ff        rst     38h
7d1e ff        rst     38h
7d1f ff        rst     38h
7d20 ff        rst     38h
7d21 ff        rst     38h
7d22 ff        rst     38h
7d23 ff        rst     38h
7d24 ff        rst     38h
7d25 ff        rst     38h
7d26 ff        rst     38h
7d27 ff        rst     38h
7d28 ff        rst     38h
7d29 ff        rst     38h
7d2a ff        rst     38h
7d2b ff        rst     38h
7d2c ff        rst     38h
7d2d ff        rst     38h
7d2e ff        rst     38h
7d2f ff        rst     38h
7d30 ff        rst     38h
7d31 ff        rst     38h
7d32 ff        rst     38h
7d33 ff        rst     38h
7d34 ff        rst     38h
7d35 ff        rst     38h
7d36 ff        rst     38h
7d37 ff        rst     38h
7d38 ff        rst     38h
7d39 ff        rst     38h
7d3a ff        rst     38h
7d3b ff        rst     38h
7d3c ff        rst     38h
7d3d ff        rst     38h
7d3e ff        rst     38h
7d3f ff        rst     38h
7d40 ff        rst     38h
7d41 ff        rst     38h
7d42 ff        rst     38h
7d43 ff        rst     38h
7d44 ff        rst     38h
7d45 ff        rst     38h
7d46 ff        rst     38h
7d47 ff        rst     38h
7d48 ff        rst     38h
7d49 ff        rst     38h
7d4a ff        rst     38h
7d4b ff        rst     38h
7d4c ff        rst     38h
7d4d ff        rst     38h
7d4e ff        rst     38h
7d4f ff        rst     38h
7d50 ff        rst     38h
7d51 ff        rst     38h
7d52 ff        rst     38h
7d53 ff        rst     38h
7d54 ff        rst     38h
7d55 ff        rst     38h
7d56 ff        rst     38h
7d57 ff        rst     38h
7d58 ff        rst     38h
7d59 ff        rst     38h
7d5a ff        rst     38h
7d5b ff        rst     38h
7d5c ff        rst     38h
7d5d ff        rst     38h
7d5e ff        rst     38h
7d5f ff        rst     38h
7d60 ff        rst     38h
7d61 ff        rst     38h
7d62 ff        rst     38h
7d63 ff        rst     38h
7d64 ff        rst     38h
7d65 ff        rst     38h
7d66 ff        rst     38h
7d67 ff        rst     38h
7d68 ff        rst     38h
7d69 ff        rst     38h
7d6a ff        rst     38h
7d6b ff        rst     38h
7d6c ff        rst     38h
7d6d ff        rst     38h
7d6e ff        rst     38h
7d6f ff        rst     38h
7d70 ff        rst     38h
7d71 ff        rst     38h
7d72 ff        rst     38h
7d73 ff        rst     38h
7d74 ff        rst     38h
7d75 ff        rst     38h
7d76 ff        rst     38h
7d77 ff        rst     38h
7d78 ff        rst     38h
7d79 ff        rst     38h
7d7a ff        rst     38h
7d7b ff        rst     38h
7d7c ff        rst     38h
7d7d ff        rst     38h
7d7e ff        rst     38h
7d7f ff        rst     38h
7d80 ff        rst     38h
7d81 ff        rst     38h
7d82 ff        rst     38h
7d83 ff        rst     38h
7d84 ff        rst     38h
7d85 ff        rst     38h
7d86 ff        rst     38h
7d87 ff        rst     38h
7d88 ff        rst     38h
7d89 ff        rst     38h
7d8a ff        rst     38h
7d8b ff        rst     38h
7d8c ff        rst     38h
7d8d ff        rst     38h
7d8e ff        rst     38h
7d8f ff        rst     38h
7d90 ff        rst     38h
7d91 ff        rst     38h
7d92 ff        rst     38h
7d93 ff        rst     38h
7d94 ff        rst     38h
7d95 ff        rst     38h
7d96 ff        rst     38h
7d97 ff        rst     38h
7d98 ff        rst     38h
7d99 ff        rst     38h
7d9a ff        rst     38h
7d9b ff        rst     38h
7d9c ff        rst     38h
7d9d ff        rst     38h
7d9e ff        rst     38h
7d9f ff        rst     38h
7da0 ff        rst     38h
7da1 ff        rst     38h
7da2 ff        rst     38h
7da3 ff        rst     38h
7da4 ff        rst     38h
7da5 ff        rst     38h
7da6 ff        rst     38h
7da7 ff        rst     38h
7da8 ff        rst     38h
7da9 ff        rst     38h
7daa ff        rst     38h
7dab ff        rst     38h
7dac ff        rst     38h
7dad ff        rst     38h
7dae ff        rst     38h
7daf ff        rst     38h
7db0 ff        rst     38h
7db1 ff        rst     38h
7db2 ff        rst     38h
7db3 ff        rst     38h
7db4 ff        rst     38h
7db5 ff        rst     38h
7db6 ff        rst     38h
7db7 ff        rst     38h
7db8 ff        rst     38h
7db9 ff        rst     38h
7dba ff        rst     38h
7dbb ff        rst     38h
7dbc ff        rst     38h
7dbd ff        rst     38h
7dbe ff        rst     38h
7dbf ff        rst     38h
7dc0 ff        rst     38h
7dc1 ff        rst     38h
7dc2 ff        rst     38h
7dc3 ff        rst     38h
7dc4 ff        rst     38h
7dc5 ff        rst     38h
7dc6 ff        rst     38h
7dc7 ff        rst     38h
7dc8 ff        rst     38h
7dc9 ff        rst     38h
7dca ff        rst     38h
7dcb ff        rst     38h
7dcc ff        rst     38h
7dcd ff        rst     38h
7dce ff        rst     38h
7dcf ff        rst     38h
7dd0 ff        rst     38h
7dd1 ff        rst     38h
7dd2 ff        rst     38h
7dd3 ff        rst     38h
7dd4 ff        rst     38h
7dd5 ff        rst     38h
7dd6 ff        rst     38h
7dd7 ff        rst     38h
7dd8 ff        rst     38h
7dd9 ff        rst     38h
7dda ff        rst     38h
7ddb ff        rst     38h
7ddc ff        rst     38h
7ddd ff        rst     38h
7dde ff        rst     38h
7ddf ff        rst     38h
7de0 ff        rst     38h
7de1 ff        rst     38h
7de2 ff        rst     38h
7de3 ff        rst     38h
7de4 ff        rst     38h
7de5 ff        rst     38h
7de6 ff        rst     38h
7de7 ff        rst     38h
7de8 ff        rst     38h
7de9 ff        rst     38h
7dea ff        rst     38h
7deb ff        rst     38h
7dec ff        rst     38h
7ded ff        rst     38h
7dee ff        rst     38h
7def ff        rst     38h
7df0 ff        rst     38h
7df1 ff        rst     38h
7df2 ff        rst     38h
7df3 ff        rst     38h
7df4 ff        rst     38h
7df5 ff        rst     38h
7df6 ff        rst     38h
7df7 ff        rst     38h
7df8 ff        rst     38h
7df9 ff        rst     38h
7dfa ff        rst     38h
7dfb ff        rst     38h
7dfc ff        rst     38h
7dfd ff        rst     38h
7dfe ff        rst     38h
7dff ff        rst     38h
7e00 ff        rst     38h
7e01 ff        rst     38h
7e02 ff        rst     38h
7e03 ff        rst     38h
7e04 ff        rst     38h
7e05 ff        rst     38h
7e06 ff        rst     38h
7e07 ff        rst     38h
7e08 ff        rst     38h
7e09 ff        rst     38h
7e0a ff        rst     38h
7e0b ff        rst     38h
7e0c ff        rst     38h
7e0d ff        rst     38h
7e0e ff        rst     38h
7e0f ff        rst     38h
7e10 ff        rst     38h
7e11 ff        rst     38h
7e12 ff        rst     38h
7e13 ff        rst     38h
7e14 ff        rst     38h
7e15 ff        rst     38h
7e16 ff        rst     38h
7e17 ff        rst     38h
7e18 ff        rst     38h
7e19 ff        rst     38h
7e1a ff        rst     38h
7e1b ff        rst     38h
7e1c ff        rst     38h
7e1d ff        rst     38h
7e1e ff        rst     38h
7e1f ff        rst     38h
7e20 ff        rst     38h
7e21 ff        rst     38h
7e22 ff        rst     38h
7e23 ff        rst     38h
7e24 ff        rst     38h
7e25 ff        rst     38h
7e26 ff        rst     38h
7e27 ff        rst     38h
7e28 ff        rst     38h
7e29 ff        rst     38h
7e2a ff        rst     38h
7e2b ff        rst     38h
7e2c ff        rst     38h
7e2d ff        rst     38h
7e2e ff        rst     38h
7e2f ff        rst     38h
7e30 ff        rst     38h
7e31 ff        rst     38h
7e32 ff        rst     38h
7e33 ff        rst     38h
7e34 ff        rst     38h
7e35 ff        rst     38h
7e36 ff        rst     38h
7e37 ff        rst     38h
7e38 ff        rst     38h
7e39 ff        rst     38h
7e3a ff        rst     38h
7e3b ff        rst     38h
7e3c ff        rst     38h
7e3d ff        rst     38h
7e3e ff        rst     38h
7e3f ff        rst     38h
7e40 ff        rst     38h
7e41 ff        rst     38h
7e42 ff        rst     38h
7e43 ff        rst     38h
7e44 ff        rst     38h
7e45 ff        rst     38h
7e46 ff        rst     38h
7e47 ff        rst     38h
7e48 ff        rst     38h
7e49 ff        rst     38h
7e4a ff        rst     38h
7e4b ff        rst     38h
7e4c ff        rst     38h
7e4d ff        rst     38h
7e4e ff        rst     38h
7e4f ff        rst     38h
7e50 ff        rst     38h
7e51 ff        rst     38h
7e52 ff        rst     38h
7e53 ff        rst     38h
7e54 ff        rst     38h
7e55 ff        rst     38h
7e56 ff        rst     38h
7e57 ff        rst     38h
7e58 ff        rst     38h
7e59 ff        rst     38h
7e5a ff        rst     38h
7e5b ff        rst     38h
7e5c ff        rst     38h
7e5d ff        rst     38h
7e5e ff        rst     38h
7e5f ff        rst     38h
7e60 ff        rst     38h
7e61 ff        rst     38h
7e62 ff        rst     38h
7e63 ff        rst     38h
7e64 ff        rst     38h
7e65 ff        rst     38h
7e66 ff        rst     38h
7e67 ff        rst     38h
7e68 ff        rst     38h
7e69 ff        rst     38h
7e6a ff        rst     38h
7e6b ff        rst     38h
7e6c ff        rst     38h
7e6d ff        rst     38h
7e6e ff        rst     38h
7e6f ff        rst     38h
7e70 ff        rst     38h
7e71 ff        rst     38h
7e72 ff        rst     38h
7e73 ff        rst     38h
7e74 ff        rst     38h
7e75 ff        rst     38h
7e76 ff        rst     38h
7e77 ff        rst     38h
7e78 ff        rst     38h
7e79 ff        rst     38h
7e7a ff        rst     38h
7e7b ff        rst     38h
7e7c ff        rst     38h
7e7d ff        rst     38h
7e7e ff        rst     38h
7e7f ff        rst     38h
7e80 ff        rst     38h
7e81 ff        rst     38h
7e82 ff        rst     38h
7e83 ff        rst     38h
7e84 ff        rst     38h
7e85 ff        rst     38h
7e86 ff        rst     38h
7e87 ff        rst     38h
7e88 ff        rst     38h
7e89 ff        rst     38h
7e8a ff        rst     38h
7e8b ff        rst     38h
7e8c ff        rst     38h
7e8d ff        rst     38h
7e8e ff        rst     38h
7e8f ff        rst     38h
7e90 ff        rst     38h
7e91 ff        rst     38h
7e92 ff        rst     38h
7e93 ff        rst     38h
7e94 ff        rst     38h
7e95 ff        rst     38h
7e96 ff        rst     38h
7e97 ff        rst     38h
7e98 ff        rst     38h
7e99 ff        rst     38h
7e9a ff        rst     38h
7e9b ff        rst     38h
7e9c ff        rst     38h
7e9d ff        rst     38h
7e9e ff        rst     38h
7e9f ff        rst     38h
7ea0 ff        rst     38h
7ea1 ff        rst     38h
7ea2 ff        rst     38h
7ea3 ff        rst     38h
7ea4 ff        rst     38h
7ea5 ff        rst     38h
7ea6 ff        rst     38h
7ea7 ff        rst     38h
7ea8 ff        rst     38h
7ea9 ff        rst     38h
7eaa ff        rst     38h
7eab ff        rst     38h
7eac ff        rst     38h
7ead ff        rst     38h
7eae ff        rst     38h
7eaf ff        rst     38h
7eb0 ff        rst     38h
7eb1 ff        rst     38h
7eb2 ff        rst     38h
7eb3 ff        rst     38h
7eb4 ff        rst     38h
7eb5 ff        rst     38h
7eb6 ff        rst     38h
7eb7 ff        rst     38h
7eb8 ff        rst     38h
7eb9 ff        rst     38h
7eba ff        rst     38h
7ebb ff        rst     38h
7ebc ff        rst     38h
7ebd ff        rst     38h
7ebe ff        rst     38h
7ebf ff        rst     38h
7ec0 ff        rst     38h
7ec1 ff        rst     38h
7ec2 ff        rst     38h
7ec3 ff        rst     38h
7ec4 ff        rst     38h
7ec5 ff        rst     38h
7ec6 ff        rst     38h
7ec7 ff        rst     38h
7ec8 ff        rst     38h
7ec9 ff        rst     38h
7eca ff        rst     38h
7ecb ff        rst     38h
7ecc ff        rst     38h
7ecd ff        rst     38h
7ece ff        rst     38h
7ecf ff        rst     38h
7ed0 ff        rst     38h
7ed1 ff        rst     38h
7ed2 ff        rst     38h
7ed3 ff        rst     38h
7ed4 ff        rst     38h
7ed5 ff        rst     38h
7ed6 ff        rst     38h
7ed7 ff        rst     38h
7ed8 ff        rst     38h
7ed9 ff        rst     38h
7eda ff        rst     38h
7edb ff        rst     38h
7edc ff        rst     38h
7edd ff        rst     38h
7ede ff        rst     38h
7edf ff        rst     38h
7ee0 ff        rst     38h
7ee1 ff        rst     38h
7ee2 ff        rst     38h
7ee3 ff        rst     38h
7ee4 ff        rst     38h
7ee5 ff        rst     38h
7ee6 ff        rst     38h
7ee7 ff        rst     38h
7ee8 ff        rst     38h
7ee9 ff        rst     38h
7eea ff        rst     38h
7eeb ff        rst     38h
7eec ff        rst     38h
7eed ff        rst     38h
7eee ff        rst     38h
7eef ff        rst     38h
7ef0 ff        rst     38h
7ef1 ff        rst     38h
7ef2 ff        rst     38h
7ef3 ff        rst     38h
7ef4 ff        rst     38h
7ef5 ff        rst     38h
7ef6 ff        rst     38h
7ef7 ff        rst     38h
7ef8 ff        rst     38h
7ef9 ff        rst     38h
7efa ff        rst     38h
7efb ff        rst     38h
7efc ff        rst     38h
7efd ff        rst     38h
7efe ff        rst     38h
7eff ff        rst     38h
7f00 ff        rst     38h
7f01 ff        rst     38h
7f02 ff        rst     38h
7f03 ff        rst     38h
7f04 ff        rst     38h
7f05 ff        rst     38h
7f06 ff        rst     38h
7f07 ff        rst     38h
7f08 ff        rst     38h
7f09 ff        rst     38h
7f0a ff        rst     38h
7f0b ff        rst     38h
7f0c ff        rst     38h
7f0d ff        rst     38h
7f0e ff        rst     38h
7f0f ff        rst     38h
7f10 ff        rst     38h
7f11 ff        rst     38h
7f12 ff        rst     38h
7f13 ff        rst     38h
7f14 ff        rst     38h
7f15 ff        rst     38h
7f16 ff        rst     38h
7f17 ff        rst     38h
7f18 ff        rst     38h
7f19 ff        rst     38h
7f1a ff        rst     38h
7f1b ff        rst     38h
7f1c ff        rst     38h
7f1d ff        rst     38h
7f1e ff        rst     38h
7f1f ff        rst     38h
7f20 ff        rst     38h
7f21 ff        rst     38h
7f22 ff        rst     38h
7f23 ff        rst     38h
7f24 ff        rst     38h
7f25 ff        rst     38h
7f26 ff        rst     38h
7f27 ff        rst     38h
7f28 ff        rst     38h
7f29 ff        rst     38h
7f2a ff        rst     38h
7f2b ff        rst     38h
7f2c ff        rst     38h
7f2d ff        rst     38h
7f2e ff        rst     38h
7f2f ff        rst     38h
7f30 ff        rst     38h
7f31 ff        rst     38h
7f32 ff        rst     38h
7f33 ff        rst     38h
7f34 ff        rst     38h
7f35 ff        rst     38h
7f36 ff        rst     38h
7f37 ff        rst     38h
7f38 ff        rst     38h
7f39 ff        rst     38h
7f3a ff        rst     38h
7f3b ff        rst     38h
7f3c ff        rst     38h
7f3d ff        rst     38h
7f3e ff        rst     38h
7f3f ff        rst     38h
7f40 ff        rst     38h
7f41 ff        rst     38h
7f42 ff        rst     38h
7f43 ff        rst     38h
7f44 ff        rst     38h
7f45 ff        rst     38h
7f46 ff        rst     38h
7f47 ff        rst     38h
7f48 ff        rst     38h
7f49 ff        rst     38h
7f4a ff        rst     38h
7f4b ff        rst     38h
7f4c ff        rst     38h
7f4d ff        rst     38h
7f4e ff        rst     38h
7f4f ff        rst     38h
7f50 ff        rst     38h
7f51 ff        rst     38h
7f52 ff        rst     38h
7f53 ff        rst     38h
7f54 ff        rst     38h
7f55 ff        rst     38h
7f56 ff        rst     38h
7f57 ff        rst     38h
7f58 ff        rst     38h
7f59 ff        rst     38h
7f5a ff        rst     38h
7f5b ff        rst     38h
7f5c ff        rst     38h
7f5d ff        rst     38h
7f5e ff        rst     38h
7f5f ff        rst     38h
7f60 ff        rst     38h
7f61 ff        rst     38h
7f62 ff        rst     38h
7f63 ff        rst     38h
7f64 ff        rst     38h
7f65 ff        rst     38h
7f66 ff        rst     38h
7f67 ff        rst     38h
7f68 ff        rst     38h
7f69 ff        rst     38h
7f6a ff        rst     38h
7f6b ff        rst     38h
7f6c ff        rst     38h
7f6d ff        rst     38h
7f6e ff        rst     38h
7f6f ff        rst     38h
7f70 ff        rst     38h
7f71 ff        rst     38h
7f72 ff        rst     38h
7f73 ff        rst     38h
7f74 ff        rst     38h
7f75 ff        rst     38h
7f76 ff        rst     38h
7f77 ff        rst     38h
7f78 ff        rst     38h
7f79 ff        rst     38h
7f7a ff        rst     38h
7f7b ff        rst     38h
7f7c ff        rst     38h
7f7d ff        rst     38h
7f7e ff        rst     38h
7f7f ff        rst     38h
7f80 ff        rst     38h
7f81 ff        rst     38h
7f82 ff        rst     38h
7f83 ff        rst     38h
7f84 ff        rst     38h
7f85 ff        rst     38h
7f86 ff        rst     38h
7f87 ff        rst     38h
7f88 ff        rst     38h
7f89 ff        rst     38h
7f8a ff        rst     38h
7f8b ff        rst     38h
7f8c ff        rst     38h
7f8d ff        rst     38h
7f8e ff        rst     38h
7f8f ff        rst     38h
7f90 ff        rst     38h
7f91 ff        rst     38h
7f92 ff        rst     38h
7f93 ff        rst     38h
7f94 ff        rst     38h
7f95 ff        rst     38h
7f96 ff        rst     38h
7f97 ff        rst     38h
7f98 ff        rst     38h
7f99 ff        rst     38h
7f9a ff        rst     38h
7f9b ff        rst     38h
7f9c ff        rst     38h
7f9d ff        rst     38h
7f9e ff        rst     38h
7f9f ff        rst     38h
7fa0 ff        rst     38h
7fa1 ff        rst     38h
7fa2 ff        rst     38h
7fa3 ff        rst     38h
7fa4 ff        rst     38h
7fa5 ff        rst     38h
7fa6 ff        rst     38h
7fa7 ff        rst     38h
7fa8 ff        rst     38h
7fa9 ff        rst     38h
7faa ff        rst     38h
7fab ff        rst     38h
7fac ff        rst     38h
7fad ff        rst     38h
7fae ff        rst     38h
7faf ff        rst     38h
7fb0 ff        rst     38h
7fb1 ff        rst     38h
7fb2 ff        rst     38h
7fb3 ff        rst     38h
7fb4 ff        rst     38h
7fb5 ff        rst     38h
7fb6 ff        rst     38h
7fb7 ff        rst     38h
7fb8 ff        rst     38h
7fb9 ff        rst     38h
7fba ff        rst     38h
7fbb ff        rst     38h
7fbc ff        rst     38h
7fbd ff        rst     38h
7fbe ff        rst     38h
7fbf ff        rst     38h
7fc0 ff        rst     38h
7fc1 ff        rst     38h
7fc2 ff        rst     38h
7fc3 ff        rst     38h
7fc4 ff        rst     38h
7fc5 ff        rst     38h
7fc6 ff        rst     38h
7fc7 ff        rst     38h
7fc8 ff        rst     38h
7fc9 ff        rst     38h
7fca ff        rst     38h
7fcb ff        rst     38h
7fcc ff        rst     38h
7fcd ff        rst     38h
7fce ff        rst     38h
7fcf ff        rst     38h
7fd0 ff        rst     38h
7fd1 ff        rst     38h
7fd2 ff        rst     38h
7fd3 ff        rst     38h
7fd4 ff        rst     38h
7fd5 ff        rst     38h
7fd6 ff        rst     38h
7fd7 ff        rst     38h
7fd8 ff        rst     38h
7fd9 ff        rst     38h
7fda ff        rst     38h
7fdb ff        rst     38h
7fdc ff        rst     38h
7fdd ff        rst     38h
7fde ff        rst     38h
7fdf ff        rst     38h
7fe0 ff        rst     38h
7fe1 ff        rst     38h
7fe2 ff        rst     38h
7fe3 ff        rst     38h
7fe4 ff        rst     38h
7fe5 ff        rst     38h
7fe6 ff        rst     38h
7fe7 ff        rst     38h
7fe8 ff        rst     38h
7fe9 ff        rst     38h
7fea ff        rst     38h
7feb ff        rst     38h
7fec ff        rst     38h
7fed ff        rst     38h
7fee ff        rst     38h
7fef ff        rst     38h
7ff0 ff        rst     38h
7ff1 ff        rst     38h
7ff2 ff        rst     38h
7ff3 ff        rst     38h
7ff4 ff        rst     38h
7ff5 ff        rst     38h
7ff6 ff        rst     38h
7ff7 ff        rst     38h
7ff8 ff        rst     38h
7ff9 ff        rst     38h
7ffa ff        rst     38h
7ffb ff        rst     38h
7ffc ff        rst     38h
7ffd ff        rst     38h
7ffe ff        rst     38h
7fff ff        rst     38h
